 mri

 Timestamp is 5847b21f (Wed Dec 07 01:54:23 2016)

 Preferred load address is 10000000

 Start         Length     Name                   Class
 0001:00000000 00089966H .text                   CODE
 0001:00089970 0001850bH .text$x                 CODE
 0001:000a1e80 0000540cH .text$yc                CODE
 0001:000a7290 0000263cH .text$yd                CODE
 0002:00000000 00000548H .idata$5                DATA
 0002:00000548 00000004H .CRT$XCA                DATA
 0002:0000054c 00000004H .CRT$XCL                DATA
 0002:00000550 000001f0H .CRT$XCU                DATA
 0002:00000740 00000004H .CRT$XCZ                DATA
 0002:00000744 00000004H .CRT$XIA                DATA
 0002:00000748 00000004H .CRT$XIAA               DATA
 0002:0000074c 00000004H .CRT$XIC                DATA
 0002:00000750 00000004H .CRT$XIZ                DATA
 0002:00000760 0000f780H .rdata                  DATA
 0002:0000fee0 00000058H .rdata$debug            DATA
 0002:0000ff38 0000250cH .rdata$r                DATA
 0002:00012450 00001450H .rdata$sxdata           DATA
 0002:000138a0 00000004H .rtc$IAA                DATA
 0002:000138a4 00000004H .rtc$IZZ                DATA
 0002:000138a8 00000004H .rtc$TAA                DATA
 0002:000138ac 00000004H .rtc$TZZ                DATA
 0002:000138b0 0001da54H .xdata$x                DATA
 0002:00031304 00000004H ATL$__a                 DATA
 0002:00031308 00000004H ATL$__z                 DATA
 0002:0003130c 000000b4H .idata$2                DATA
 0002:000313c0 00000014H .idata$3                DATA
 0002:000313d4 00000548H .idata$4                DATA
 0002:0003191c 00002478H .idata$6                DATA
 0002:00033da0 00000404H .edata                  DATA
 0003:00000000 00004924H .data                   DATA
 0003:00004928 00001ffcH .bss                    DATA
 0004:00000000 00000058H .rsrc$01                DATA
 0004:00000060 00000180H .rsrc$02                DATA

  Address         Publics by Value              Rva+Base       Lib:Object

 0000:00000000       __except_list              00000000     <absolute>
 0000:00000514       ___safe_se_handler_count   00000514     <absolute>
 0000:00009876       __fltused                  00009876     <absolute>
 0000:00009876       __ldused                   00009876     <absolute>
 0000:00000000       ___ImageBase               10000000     <linker-defined>
 0001:00000000       ??$_Allocate@D@std@@YAPADIPAD@Z 10001000 f i mriapi.obj
 0001:00000030       ??$_Allocate@_W@std@@YAPA_WIPA_W@Z 10001030 f i mriapi.obj
 0001:00000060       ??$addressof@D@std@@YAPADAAD@Z 10001060 f i mriapi.obj
 0001:00000070       ??$addressof@_W@std@@YAPA_WAA_W@Z 10001070 f i mriapi.obj
 0001:00000080       ??$construct@PADAAPAD@?$_Wrap_alloc@V?$allocator@D@std@@@std@@QAEXPAPADAAPAD@Z 10001080 f i mriapi.obj
 0001:000000e0       ??$construct@PADAAPAD@?$allocator@D@std@@QAEXPAPADAAPAD@Z 100010e0 f i mriapi.obj
 0001:00000140       ??$construct@PADAAPAD@?$allocator_traits@V?$allocator@D@std@@@std@@SAXAAV?$allocator@D@1@PAPADAAPAD@Z 10001140 f i mriapi.obj
 0001:000001a0       ??$construct@PA_WAAPA_W@?$_Wrap_alloc@V?$allocator@_W@std@@@std@@QAEXPAPA_WAAPA_W@Z 100011a0 f i mriapi.obj
 0001:00000200       ??$construct@PA_WAAPA_W@?$allocator@_W@std@@QAEXPAPA_WAAPA_W@Z 10001200 f i mriapi.obj
 0001:00000260       ??$construct@PA_WAAPA_W@?$allocator_traits@V?$allocator@_W@std@@@std@@SAXAAV?$allocator@_W@1@PAPA_WAAPA_W@Z 10001260 f i mriapi.obj
 0001:000002c0       ??$destroy@PAD@?$_Wrap_alloc@V?$allocator@D@std@@@std@@QAEXPAPAD@Z 100012c0 f i mriapi.obj
 0001:000002d0       ??$destroy@PAD@?$allocator@D@std@@QAEXPAPAD@Z 100012d0 f i mriapi.obj
 0001:000002e0       ??$destroy@PAD@?$allocator_traits@V?$allocator@D@std@@@std@@SAXAAV?$allocator@D@1@PAPAD@Z 100012e0 f i mriapi.obj
 0001:000002f0       ??$destroy@PA_W@?$_Wrap_alloc@V?$allocator@_W@std@@@std@@QAEXPAPA_W@Z 100012f0 f i mriapi.obj
 0001:00000300       ??$destroy@PA_W@?$allocator@_W@std@@QAEXPAPA_W@Z 10001300 f i mriapi.obj
 0001:00000310       ??$destroy@PA_W@?$allocator_traits@V?$allocator@_W@std@@@std@@SAXAAV?$allocator@_W@1@PAPA_W@Z 10001310 f i mriapi.obj
 0001:00000320       ??$forward@AAPAD@std@@YAAAPADAAPAD@Z 10001320 f i mriapi.obj
 0001:00000330       ??$forward@AAPA_W@std@@YAAAPA_WAAPA_W@Z 10001330 f i mriapi.obj
 0001:00000340       ??0?$_String_alloc@$0A@U?$_String_base_types@DV?$allocator@D@std@@@std@@@std@@QAE@ABV?$allocator@D@1@@Z 10001340 f i mriapi.obj
 0001:00000360       ??0?$_String_alloc@$0A@U?$_String_base_types@_WV?$allocator@_W@std@@@std@@@std@@QAE@ABV?$allocator@_W@1@@Z 10001360 f i mriapi.obj
 0001:00000380       ??0?$_String_val@U?$_Simple_types@D@std@@@std@@QAE@XZ 10001380 f i mriapi.obj
 0001:000003a0       ??0?$_String_val@U?$_Simple_types@_W@std@@@std@@QAE@XZ 100013a0 f i mriapi.obj
 0001:000003c0       ??0?$_Wrap_alloc@V?$allocator@D@std@@@std@@QAE@XZ 100013c0 f i mriapi.obj
 0001:000003d0       ??0?$_Wrap_alloc@V?$allocator@_W@std@@@std@@QAE@ABV?$allocator@_W@1@@Z 100013d0 f i mriapi.obj
 0001:000003e0       ??0?$_Wrap_alloc@V?$allocator@_W@std@@@std@@QAE@XZ 100013e0 f i mriapi.obj
 0001:000003f0       ??0?$allocator@D@std@@QAE@XZ 100013f0 f i mriapi.obj
 0001:00000400       ??0?$allocator@_W@std@@QAE@ABV01@@Z 10001400 f i mriapi.obj
 0001:00000410       ??0?$allocator@_W@std@@QAE@XZ 10001410 f i mriapi.obj
 0001:00000420       ??0?$basic_string@DU?$char_traits@D@std@@V?$allocator@D@2@@std@@QAE@PBD@Z 10001420 f i mriapi.obj
 0001:00000480       ??0?$basic_string@_WU?$char_traits@_W@std@@V?$allocator@_W@2@@std@@QAE@ABV01@@Z 10001480 f i mriapi.obj
 0001:000004b0       ??0?$basic_string@_WU?$char_traits@_W@std@@V?$allocator@_W@2@@std@@QAE@PB_W@Z 100014b0 f i mriapi.obj
 0001:00000510       ??0?$basic_string@_WU?$char_traits@_W@std@@V?$allocator@_W@2@@std@@QAE@XZ 10001510 f i mriapi.obj
 0001:00000530       ??0Message_Routing_Interface@@QAE@XZ 10001530 f   mriapi.obj
 0001:000008e0       ??0Mri_Status@@QAE@W4MR_STATUS@@@Z 100018e0 f i mriapi.obj
 0001:000008f0       ??0SE_Exception@@QAE@IPAU_EXCEPTION_POINTERS@@@Z 100018f0 f i mriapi.obj
 0001:00000910       ??0_Generic_error_category@std@@QAE@XZ 10001910 f i mriapi.obj
 0001:00000970       ??0_Iostream_error_category@std@@QAE@XZ 10001970 f i mriapi.obj
 0001:000009d0       ??0_System_error_category@std@@QAE@XZ 100019d0 f i mriapi.obj
 0001:00000a30       ??0error_category@std@@QAE@XZ 10001a30 f i mriapi.obj
 0001:00000a40       ??0error_condition@std@@QAE@HABVerror_category@1@@Z 10001a40 f i mriapi.obj
 0001:00000a60       ??1?$basic_string@DU?$char_traits@D@std@@V?$allocator@D@2@@std@@QAE@XZ 10001a60 f i mriapi.obj
 0001:00000a90       ??1?$basic_string@_WU?$char_traits@_W@std@@V?$allocator@_W@2@@std@@QAE@XZ 10001a90 f i mriapi.obj
 0001:00000ac0       ??1EM_UnexpectedException@@UAE@XZ 10001ac0 f i mriapi.obj
 0001:00000b40       ??1EM_UnexpectedFailure1@@UAE@XZ 10001b40 f i mriapi.obj
 0001:00000be0       ??1EM_UnexpectedFailure@@UAE@XZ 10001be0 f i mriapi.obj
 0001:00000c80       ??1SE_Exception@@QAE@XZ    10001c80 f i mriapi.obj
 0001:00000c90       ??1_Generic_error_category@std@@UAE@XZ 10001c90 f i mriapi.obj
 0001:00000ce0       ??1_Iostream_error_category@std@@UAE@XZ 10001ce0 f i mriapi.obj
 0001:00000d30       ??1_System_error_category@std@@UAE@XZ 10001d30 f i mriapi.obj
 0001:00000d80       ??1error_category@std@@UAE@XZ 10001d80 f i mriapi.obj
 0001:00000d90       ??2@YAPAXIPAX@Z            10001d90 f i mriapi.obj
 0001:00000da0       ??3@YAXPAX0@Z              10001da0 f i mriapi.obj
 0001:00000db0       ??4?$basic_string@_WU?$char_traits@_W@std@@V?$allocator@_W@2@@std@@QAEAAV01@PB_W@Z 10001db0 f i mriapi.obj
 0001:00000e00       ??8error_category@std@@QBE_NABV01@@Z 10001e00 f i mriapi.obj
 0001:00000e10       ??8error_condition@std@@QBE_NABV01@@Z 10001e10 f i mriapi.obj
 0001:00000e30       ??Y?$basic_string@_WU?$char_traits@_W@std@@V?$allocator@_W@2@@std@@QAEAAV01@ABV01@@Z 10001e30 f i mriapi.obj
 0001:00000e50       ??Y?$basic_string@_WU?$char_traits@_W@std@@V?$allocator@_W@2@@std@@QAEAAV01@PB_W@Z 10001e50 f i mriapi.obj
 0001:00000ea0       ??_GMriAttachHandler@@QAEPAXI@Z 10001ea0 f i mriapi.obj
 0001:00000ed0       ??_GMriDetachHandler@@QAEPAXI@Z 10001ed0 f i mriapi.obj
 0001:00000f00       ??_E_Generic_error_category@std@@UAEPAXI@Z 10001f00 f i mriapi.obj
 0001:00000f00       ??_G_Generic_error_category@std@@UAEPAXI@Z 10001f00 f i mriapi.obj
 0001:00000f60       ??_G_Iostream_error_category@std@@UAEPAXI@Z 10001f60 f i mriapi.obj
 0001:00000f60       ??_E_Iostream_error_category@std@@UAEPAXI@Z 10001f60 f i mriapi.obj
 0001:00000fc0       ??_G_System_error_category@std@@UAEPAXI@Z 10001fc0 f i mriapi.obj
 0001:00000fc0       ??_E_System_error_category@std@@UAEPAXI@Z 10001fc0 f i mriapi.obj
 0001:00001020       ??_Eerror_category@std@@UAEPAXI@Z 10002020 f i mriapi.obj
 0001:00001020       ??_Gerror_category@std@@UAEPAXI@Z 10002020 f i mriapi.obj
 0001:00001050       ?AllocateBuf@Message_Routing_Interface@@QAE?AW4MR_STATUS@@KPAPAUMR_MESSAGE@@@Z 10002050 f   mriapi.obj
 0001:000018e0       ?AttachPort@Message_Routing_Interface@@QAE?AW4MR_STATUS@@PAXEEPAPAX@Z 100028e0 f   mriapi.obj
 0001:00002140       ?ClearMRITrace@Message_Routing_Interface@@QAEEPAUMR_MESSAGE@@@Z 10003140 f i mriapi.obj
 0001:00002160       ?Close@Message_Routing_Interface@@QAE?AW4MR_STATUS@@PAX@Z 10003160 f   mriapi.obj
 0001:000028f0       ?CreateEqueue@Message_Routing_Interface@@QAE?AW4MR_STATUS@@PAXPAPAX@Z 100038f0 f   mriapi.obj
 0001:00003660       ?DestroyEqueue@Message_Routing_Interface@@QAE?AW4MR_STATUS@@PAX@Z 10004660 f   mriapi.obj
 0001:00004110       ?DetachPort@Message_Routing_Interface@@QAE?AW4MR_STATUS@@PAX@Z 10005110 f   mriapi.obj
 0001:00004ad0       ?DumpHdr@Message_Routing_Interface@@QAE?AW4MR_STATUS@@PAUMR_MESSAGE@@@Z 10005ad0 f   mriapi.obj
 0001:000052e0       ?FreeBuf@Message_Routing_Interface@@QAE?AW4MR_STATUS@@PAUMR_MESSAGE@@@Z 100062e0 f   mriapi.obj
 0001:00006030       ?FreeBuf@Message_Routing_Interface@@QAE?AW4MR_STATUS@@PAUMR_MESSAGE@@_N@Z 10007030 f   mriapi.obj
 0001:00006900       ?GetBinStream@TR_Module@@QAEAAVTR_BinStream@@XZ 10007900 f i mriapi.obj
 0001:00006910       ?GetBoardMask@Message_Routing_Interface@@QAE?AW4MR_STATUS@@PAK@Z 10007910 f   mriapi.obj
 0001:00006e20       ?GetHostRclass@Message_Routing_Interface@@QAEEE@Z 10007e20 f   mriapi.obj
 0001:00006e30       ?GetHostRclass@Message_Routing_Interface@@QAEEXZ 10007e30 f   mriapi.obj
 0001:00006e40       ?GetMDPBoardMask@Message_Routing_Interface@@QAE?AW4MR_STATUS@@PAK@Z 10007e40 f   mriapi.obj
 0001:00007350       ?GetMessageFromReceiveQueue@Message_Routing_Interface@@AAE?AW4MR_STATUS@@PAU_Q_STRUCT@@PAPAUMR_MESSAGE@@@Z 10008350 f   mriapi.obj
 0001:000079a0       ?GetMySlot@Message_Routing_Interface@@QAE?AW4MR_STATUS@@PAE@Z 100089a0 f   mriapi.obj
 0001:000079d0       ?GetPortInfo@Message_Routing_Interface@@QAE?AW4MR_STATUS@@EPAU_MR_PORTINFO@@@Z 100089d0 f   mriapi.obj
 0001:00008eb0       ?GetRouteInfo@Message_Routing_Interface@@QAE?AW4MR_STATUS@@EPAU_MR_ROUTEINFO@@@Z 10009eb0 f   mriapi.obj
 0001:00009cc0       ?GetSCBoardMask@Message_Routing_Interface@@QAE?AW4MR_STATUS@@PAK@Z 1000acc0 f   mriapi.obj
 0001:0000a1d0       ?GetSetting@TR_Level@@QBE?AW4Setting@1@XZ 1000b1d0 f i mriapi.obj
 0001:0000a1e0       ?GetSlotInfo@Message_Routing_Interface@@QAE?AW4MR_STATUS@@PAU_MR_SLOT_INFO@@@Z 1000b1e0 f   mriapi.obj
 0001:0000a210       ?IsDisabled@TR_Level@@QBE_NXZ 1000b210 f i mriapi.obj
 0001:0000a220       ?IsVariableDataSuppressionEnabled@EM_NestedException@@SA_NXZ 1000b220 f i mriapi.obj
 0001:0000a230       ?MRI_SetNAPLog@Message_Routing_Interface@@SAXPAVNLogBase@@@Z 1000b230 f   mriapi.obj
 0001:0000a240       ?MRI_TRACE_STRINGS@@YAXPBDZZ 1000b240 f   mriapi.obj
 0001:0000a360       ?Open@Message_Routing_Interface@@QAE?AW4MR_STATUS@@PAPAX@Z 1000b360 f   mriapi.obj
 0001:0000b8e0       ?ReceiveMRIMsg@Message_Routing_Interface@@QAE?AW4MR_STATUS@@PAXPAPAUMR_MESSAGE@@K@Z 1000c8e0 f   mriapi.obj
 0001:0000c2e0       ?RouteMRIMsg@Message_Routing_Interface@@QAE?AW4MR_STATUS@@PAUMR_MESSAGE@@_N@Z 1000d2e0 f   mriapi.obj
 0001:0000cd70       ?SendMRIMsg@Message_Routing_Interface@@QAE?AW4MR_STATUS@@PAUMR_MESSAGE@@_N@Z 1000dd70 f   mriapi.obj
 0001:0000d380       ?Size@Queue@@QAEKXZ        1000e380 f i mriapi.obj
 0001:0000d390       ?WaitEqueue@Message_Routing_Interface@@QAE?AW4MR_STATUS@@PAXPAU_MR_EVENT@@K@Z 1000e390 f   mriapi.obj
 0001:0000dc30       ?_AtlInitializeCriticalSectionEx@ATL@@YAHPAU_RTL_CRITICAL_SECTION@@KK@Z 1000ec30 f i mriapi.obj
 0001:0000dc50       ?_Copy@?$basic_string@DU?$char_traits@D@std@@V?$allocator@D@2@@std@@QAEXII@Z 1000ec50 f i mriapi.obj
 0001:0000ddc0       ?_Copy@?$basic_string@_WU?$char_traits@_W@std@@V?$allocator@_W@2@@std@@QAEXII@Z 1000edc0 f i mriapi.obj
 0001:0000df40       ?_Eos@?$basic_string@DU?$char_traits@D@std@@V?$allocator@D@2@@std@@QAEXI@Z 1000ef40 f i mriapi.obj
 0001:0000df70       ?_Eos@?$basic_string@_WU?$char_traits@_W@std@@V?$allocator@_W@2@@std@@QAEXI@Z 1000ef70 f i mriapi.obj
 0001:0000dfa0       ?_Getal@?$_String_alloc@$0A@U?$_String_base_types@DV?$allocator@D@std@@@std@@@std@@QBE?AU?$_Wrap_alloc@V?$allocator@D@std@@@2@XZ 1000efa0 f i mriapi.obj
 0001:0000dfb0       ?_Getal@?$_String_alloc@$0A@U?$_String_base_types@_WV?$allocator@_W@std@@@std@@@std@@QBE?AU?$_Wrap_alloc@V?$allocator@_W@std@@@2@XZ 1000efb0 f i mriapi.obj
 0001:0000dfc0       ?_Grow@?$basic_string@DU?$char_traits@D@std@@V?$allocator@D@2@@std@@QAE_NI_N@Z 1000efc0 f i mriapi.obj
 0001:0000e070       ?_Grow@?$basic_string@_WU?$char_traits@_W@std@@V?$allocator@_W@2@@std@@QAE_NI_N@Z 1000f070 f i mriapi.obj
 0001:0000e130       ?_Inside@?$basic_string@DU?$char_traits@D@std@@V?$allocator@D@2@@std@@QAE_NPBD@Z 1000f130 f i mriapi.obj
 0001:0000e170       ?_Inside@?$basic_string@_WU?$char_traits@_W@std@@V?$allocator@_W@2@@std@@QAE_NPB_W@Z 1000f170 f i mriapi.obj
 0001:0000e1b0       ?_Myptr@?$_String_val@U?$_Simple_types@D@std@@@std@@QAEPADXZ 1000f1b0 f i mriapi.obj
 0001:0000e1c0       ?_Myptr@?$_String_val@U?$_Simple_types@D@std@@@std@@QBEPBDXZ 1000f1c0 f i mriapi.obj
 0001:0000e1d0       ?_Myptr@?$_String_val@U?$_Simple_types@_W@std@@@std@@QAEPA_WXZ 1000f1d0 f i mriapi.obj
 0001:0000e1e0       ?_Myptr@?$_String_val@U?$_Simple_types@_W@std@@@std@@QBEPB_WXZ 1000f1e0 f i mriapi.obj
 0001:0000e1f0       ?_Tidy@?$basic_string@DU?$char_traits@D@std@@V?$allocator@D@2@@std@@QAEX_NI@Z 1000f1f0 f i mriapi.obj
 0001:0000e240       ?_Tidy@?$basic_string@_WU?$char_traits@_W@std@@V?$allocator@_W@2@@std@@QAEX_NI@Z 1000f240 f i mriapi.obj
 0001:0000e290       ?_Xlen@?$basic_string@DU?$char_traits@D@std@@V?$allocator@D@2@@std@@QBEXXZ 1000f290 f i mriapi.obj
 0001:0000e2a0       ?_Xlen@?$basic_string@_WU?$char_traits@_W@std@@V?$allocator@_W@2@@std@@QBEXXZ 1000f2a0 f i mriapi.obj
 0001:0000e2b0       ?_Xran@?$basic_string@DU?$char_traits@D@std@@V?$allocator@D@2@@std@@QBEXXZ 1000f2b0 f i mriapi.obj
 0001:0000e2c0       ?_Xran@?$basic_string@_WU?$char_traits@_W@std@@V?$allocator@_W@2@@std@@QBEXXZ 1000f2c0 f i mriapi.obj
 0001:0000e2d0       ?allocate@?$_Wrap_alloc@V?$allocator@D@std@@@std@@QAEPADI@Z 1000f2d0 f i mriapi.obj
 0001:0000e300       ?allocate@?$_Wrap_alloc@V?$allocator@_W@std@@@std@@QAEPA_WI@Z 1000f300 f i mriapi.obj
 0001:0000e330       ?allocate@?$allocator@D@std@@QAEPADI@Z 1000f330 f i mriapi.obj
 0001:0000e360       ?allocate@?$allocator@_W@std@@QAEPA_WI@Z 1000f360 f i mriapi.obj
 0001:0000e390       ?append@?$basic_string@_WU?$char_traits@_W@std@@V?$allocator@_W@2@@std@@QAEAAV12@ABV12@@Z 1000f390 f i mriapi.obj
 0001:0000e3b0       ?append@?$basic_string@_WU?$char_traits@_W@std@@V?$allocator@_W@2@@std@@QAEAAV12@ABV12@II@Z 1000f3b0 f i mriapi.obj
 0001:0000e4b0       ?append@?$basic_string@_WU?$char_traits@_W@std@@V?$allocator@_W@2@@std@@QAEAAV12@PB_W@Z 1000f4b0 f i mriapi.obj
 0001:0000e500       ?append@?$basic_string@_WU?$char_traits@_W@std@@V?$allocator@_W@2@@std@@QAEAAV12@PB_WI@Z 1000f500 f i mriapi.obj
 0001:0000e620       ?assign@?$basic_string@DU?$char_traits@D@std@@V?$allocator@D@2@@std@@QAEAAV12@ABV12@II@Z 1000f620 f i mriapi.obj
 0001:0000e740       ?assign@?$basic_string@DU?$char_traits@D@std@@V?$allocator@D@2@@std@@QAEAAV12@PBD@Z 1000f740 f i mriapi.obj
 0001:0000e780       ?assign@?$basic_string@DU?$char_traits@D@std@@V?$allocator@D@2@@std@@QAEAAV12@PBDI@Z 1000f780 f i mriapi.obj
 0001:0000e880       ?assign@?$basic_string@_WU?$char_traits@_W@std@@V?$allocator@_W@2@@std@@QAEAAV12@ABV12@II@Z 1000f880 f i mriapi.obj
 0001:0000e9a0       ?assign@?$basic_string@_WU?$char_traits@_W@std@@V?$allocator@_W@2@@std@@QAEAAV12@PB_W@Z 1000f9a0 f i mriapi.obj
 0001:0000e9f0       ?assign@?$basic_string@_WU?$char_traits@_W@std@@V?$allocator@_W@2@@std@@QAEAAV12@PB_WI@Z 1000f9f0 f i mriapi.obj
 0001:0000eaf0       ?assign@?$char_traits@D@std@@SAXAADABD@Z 1000faf0 f i mriapi.obj
 0001:0000eb00       ?assign@?$char_traits@_W@std@@SAXAA_WAB_W@Z 1000fb00 f i mriapi.obj
 0001:0000eb20       ?category@error_code@std@@QBEABVerror_category@2@XZ 1000fb20 f i mriapi.obj
 0001:0000eb30       ?category@error_condition@std@@QBEABVerror_category@2@XZ 1000fb30 f i mriapi.obj
 0001:0000eb40       ?copy@?$char_traits@D@std@@SAPADPADPBDI@Z 1000fb40 f i mriapi.obj
 0001:0000eb60       ?copy@?$char_traits@_W@std@@SAPA_WPA_WPB_WI@Z 1000fb60 f i mriapi.obj
 0001:0000eb80       ?deallocate@?$_Wrap_alloc@V?$allocator@D@std@@@std@@QAEXPADI@Z 1000fb80 f i mriapi.obj
 0001:0000eba0       ?deallocate@?$_Wrap_alloc@V?$allocator@_W@std@@@std@@QAEXPA_WI@Z 1000fba0 f i mriapi.obj
 0001:0000ebc0       ?deallocate@?$allocator@D@std@@QAEXPADI@Z 1000fbc0 f i mriapi.obj
 0001:0000ebe0       ?deallocate@?$allocator@_W@std@@QAEXPA_WI@Z 1000fbe0 f i mriapi.obj
 0001:0000ec00       ?default_error_condition@_System_error_category@std@@UBE?AVerror_condition@2@H@Z 1000fc00 f i mriapi.obj
 0001:0000ec40       ?default_error_condition@error_category@std@@UBE?AVerror_condition@2@H@Z 1000fc40 f i mriapi.obj
 0001:0000ec60       ?equivalent@error_category@std@@UBE_NABVerror_code@2@H@Z 1000fc60 f i mriapi.obj
 0001:0000ec80       ?equivalent@error_category@std@@UBE_NHABVerror_condition@2@@Z 1000fc80 f i mriapi.obj
 0001:0000ecc0       ?erase@?$basic_string@DU?$char_traits@D@std@@V?$allocator@D@2@@std@@QAEAAV12@I@Z 1000fcc0 f i mriapi.obj
 0001:0000ed00       ?erase@?$basic_string@DU?$char_traits@D@std@@V?$allocator@D@2@@std@@QAEAAV12@II@Z 1000fd00 f i mriapi.obj
 0001:0000eda0       ?erase@?$basic_string@_WU?$char_traits@_W@std@@V?$allocator@_W@2@@std@@QAEAAV12@I@Z 1000fda0 f i mriapi.obj
 0001:0000ede0       ?erase@?$basic_string@_WU?$char_traits@_W@std@@V?$allocator@_W@2@@std@@QAEAAV12@II@Z 1000fde0 f i mriapi.obj
 0001:0000ee90       ?generic_category@std@@YAABVerror_category@1@XZ 1000fe90 f i mriapi.obj
 0001:0000eea0       ?getSeNumber@SE_Exception@@QAEIXZ 1000fea0 f i mriapi.obj
 0001:0000eeb0       ?getSeStruct@SE_Exception@@QAEPAU_EXCEPTION_POINTERS@@XZ 1000feb0 f i mriapi.obj
 0001:0000eec0       ?length@?$char_traits@D@std@@SAIPBD@Z 1000fec0 f i mriapi.obj
 0001:0000eee0       ?length@?$char_traits@_W@std@@SAIPB_W@Z 1000fee0 f i mriapi.obj
 0001:0000ef10       ?max_size@?$_Wrap_alloc@V?$allocator@D@std@@@std@@QBEIXZ 1000ff10 f i mriapi.obj
 0001:0000ef20       ?max_size@?$_Wrap_alloc@V?$allocator@_W@std@@@std@@QBEIXZ 1000ff20 f i mriapi.obj
 0001:0000ef30       ?max_size@?$allocator@D@std@@QBEIXZ 1000ff30 f i mriapi.obj
 0001:0000ef40       ?max_size@?$allocator@_W@std@@QBEIXZ 1000ff40 f i mriapi.obj
 0001:0000ef50       ?max_size@?$allocator_traits@V?$allocator@D@std@@@std@@SAIABV?$allocator@D@2@@Z 1000ff50 f i mriapi.obj
 0001:0000ef60       ?max_size@?$allocator_traits@V?$allocator@_W@std@@@std@@SAIABV?$allocator@_W@2@@Z 1000ff60 f i mriapi.obj
 0001:0000ef70       ?max_size@?$basic_string@DU?$char_traits@D@std@@V?$allocator@D@2@@std@@QBEIXZ 1000ff70 f i mriapi.obj
 0001:0000ef80       ?max_size@?$basic_string@_WU?$char_traits@_W@std@@V?$allocator@_W@2@@std@@QBEIXZ 1000ff80 f i mriapi.obj
 0001:0000ef90       ?message@_Generic_error_category@std@@UBE?AV?$basic_string@DU?$char_traits@D@std@@V?$allocator@D@2@@2@H@Z 1000ff90 f i mriapi.obj
 0001:0000f030       ?message@_Iostream_error_category@std@@UBE?AV?$basic_string@DU?$char_traits@D@std@@V?$allocator@D@2@@2@H@Z 10010030 f i mriapi.obj
 0001:0000f0b0       ?message@_System_error_category@std@@UBE?AV?$basic_string@DU?$char_traits@D@std@@V?$allocator@D@2@@2@H@Z 100100b0 f i mriapi.obj
 0001:0000f150       ?move@?$char_traits@D@std@@SAPADPADPBDI@Z 10010150 f i mriapi.obj
 0001:0000f170       ?move@?$char_traits@_W@std@@SAPA_WPA_WPB_WI@Z 10010170 f i mriapi.obj
 0001:0000f190       ?name@_Generic_error_category@std@@UBEPBDXZ 10010190 f i mriapi.obj
 0001:0000f1a0       ?name@_Iostream_error_category@std@@UBEPBDXZ 100101a0 f i mriapi.obj
 0001:0000f1b0       ?name@_System_error_category@std@@UBEPBDXZ 100101b0 f i mriapi.obj
 0001:0000f1c0       ?select_on_container_copy_construction@?$_Wrap_alloc@V?$allocator@_W@std@@@std@@QBE?AU12@XZ 100101c0 f i mriapi.obj
 0001:0000f1d0       ?select_on_container_copy_construction@?$allocator@_W@std@@QBE?AV12@XZ 100101d0 f i mriapi.obj
 0001:0000f1e0       ?select_on_container_copy_construction@?$allocator_traits@V?$allocator@_W@std@@@std@@SA?AV?$allocator@_W@2@ABV32@@Z 100101e0 f i mriapi.obj
 0001:0000f1f0       ?size@?$basic_string@DU?$char_traits@D@std@@V?$allocator@D@2@@std@@QBEIXZ 100101f0 f i mriapi.obj
 0001:0000f200       ?size@?$basic_string@_WU?$char_traits@_W@std@@V?$allocator@_W@2@@std@@QBEIXZ 10010200 f i mriapi.obj
 0001:0000f210       ?swprintf@@YAHPA_WPB_WZZ   10010210 f i mriapi.obj
 0001:0000f230       ?system_category@std@@YAABVerror_category@1@XZ 10010230 f i mriapi.obj
 0001:0000f240       ?value@error_code@std@@QBEHXZ 10010240 f i mriapi.obj
 0001:0000f250       ?value@error_condition@std@@QBEHXZ 10010250 f i mriapi.obj
 0001:0000f260       _wmemcpy                   10010260 f i mriapi.obj
 0001:0000f280       _wmemmove                  10010280 f i mriapi.obj
 0001:0000f2a0       ?CopyMsg@Message_Routing_Interface@@AAE?AW4MR_STATUS@@PAUMR_MESSAGE@@PAPAU3@@Z 100102a0 f   mriint.obj
 0001:0000f830       ?GetVNMSRouting@Message_Routing_Interface@@AAEII@Z 10010830 f   mriint.obj
 0001:0000f860       ?IsMRITrace@Message_Routing_Interface@@QAEEPAUMR_MESSAGE@@@Z 10010860 f i mriint.obj
 0001:0000f880       ?ProcessIntraBoardMsg@Message_Routing_Interface@@AAEXPAUMR_MESSAGE@@PAU_MESSAGE_ROUTING_CONTROL_BLOCK@@PAX@Z 10010880 f   mriint.obj
 0001:0000ffa0       ?ProcessMRIMsg@Message_Routing_Interface@@AAE?AW4MR_STATUS@@PAUMR_MESSAGE@@@Z 10010fa0 f   mriint.obj
 0001:00010710       ?UpdateActiveBoardStructure@Message_Routing_Interface@@AAE?AW4MR_STATUS@@PAUMR_MESSAGE@@@Z 10011710 f   mriint.obj
 0001:00010e50       ??0MriAttachHandler@@QAE@PAVMessage_Routing_Interface@@@Z 10011e50 f   mrishared.obj
 0001:00010e60       ??0MriDetachHandler@@QAE@PAVMessage_Routing_Interface@@@Z 10011e60 f   mrishared.obj
 0001:00010e70       ??0MriSharedInternals@@QAE@XZ 10011e70 f   mrishared.obj
 0001:00011140       ??1MriAttachHandler@@QAE@XZ 10012140 f   mrishared.obj
 0001:00011150       ??1MriDetachHandler@@QAE@XZ 10012150 f   mrishared.obj
 0001:00011160       ??1THR_Semaphore@@UAE@XZ   10012160 f i mrishared.obj
 0001:000111b0       ??_ETHR_Semaphore@@UAEPAXI@Z 100121b0 f i mrishared.obj
 0001:000111b0       ??_GTHR_Semaphore@@UAEPAXI@Z 100121b0 f i mrishared.obj
 0001:00011210       ?AssignRcvQToMRCB@MriAttachHandler@@QAE?AW4MR_STATUS@@PAU_MESSAGE_ROUTING_CONTROL_BLOCK@@0@Z 10012210 f   mrishared.obj
 0001:00011780       ?AttachThisPort@MriAttachHandler@@QAE?AW4MR_STATUS@@EEEPAU_MR_OPEN_HANDLE@@PAPAX@Z 10012780 f   mrishared.obj
 0001:000120e0       ?BuildSetSendReply@Message_Routing_Interface@@QAE?AW4MR_STATUS@@PAPAUMR_MESSAGE@@PAU_MR_CMM_GLOBALS@@@Z 100130e0 f   mrishared.obj
 0001:000123b0       ?CreateMMF@MriAttachHandler@@QAE?AW4MR_STATUS@@QA_WHPAPAX1@Z 100133b0 f   mrishared.obj
 0001:00012ec0       ?CreateMRCB@MriAttachHandler@@QAE?AW4MR_STATUS@@EEEPAU_MR_PORT_STRUCT@@PAU_MR_OPEN_HANDLE@@PAPAU_MESSAGE_ROUTING_CONTROL_BLOCK@@@Z 10013ec0 f   mrishared.obj
 0001:00013510       ?CreatePortVector@MriAttachHandler@@QAE?AW4MR_STATUS@@EPAU_MR_ROUTING_STRUCT@@PAPAX@Z 10014510 f   mrishared.obj
 0001:00013ac0       ?CreateRcvQ@MriAttachHandler@@QAE?AW4MR_STATUS@@PAU_MESSAGE_ROUTING_CONTROL_BLOCK@@EE@Z 10014ac0 f   mrishared.obj
 0001:000144f0       ?DeleteMRCB@MriDetachHandler@@QAEXPAU_MESSAGE_ROUTING_CONTROL_BLOCK@@PAU_MR_PORT_STRUCT@@@Z 100154f0 f   mrishared.obj
 0001:000154b0       ?DeleteRcvQueueStructures@MriDetachHandler@@QAEXPAU_MESSAGE_ROUTING_CONTROL_BLOCK@@@Z 100164b0 f   mrishared.obj
 0001:00015ea0       ?DestroyPort@MriDetachHandler@@QAEXPAU_MESSAGE_ROUTING_CONTROL_BLOCK@@PAU_MR_OPEN_HANDLE@@@Z 10016ea0 f   mrishared.obj
 0001:000164f0       ?DispatchMsg@MriSharedInternals@@QAE?AW4MR_STATUS@@PAUMR_MESSAGE@@PAU_MESSAGE_ROUTING_CONTROL_BLOCK@@PAX@Z 100174f0 f   mrishared.obj
 0001:00017790       ?FindMRCB@MriSharedInternals@@QAE?AW4MR_STATUS@@EEEPAPAU_MESSAGE_ROUTING_CONTROL_BLOCK@@PAPAX@Z 10018790 f   mrishared.obj
 0001:00019300       ?GetLock@MriSharedInternals@@SA_NPAXK@Z 1001a300 f   mrishared.obj
 0001:00019a50       ?GetRcvQ@MriSharedInternals@@QAEXPAU_MESSAGE_ROUTING_CONTROL_BLOCK@@PAPAX@Z 1001aa50 f   mrishared.obj
 0001:00019b40       ?InitGlobals@MriSharedInternals@@SAXPAU_MR_CMM_GLOBALS@@@Z 1001ab40 f   mrishared.obj
 0001:0001a1e0       ?IsActiveSC@MriSharedInternals@@QAEEXZ 1001b1e0 f   mrishared.obj
 0001:0001a900       ?IsSCA@MriSharedInternals@@QAEEXZ 1001b900 f i mrishared.obj
 0001:0001a910       ?LinkMrcbToList@MriAttachHandler@@QAEXPAU_MR_OPEN_HANDLE@@PAU_MESSAGE_ROUTING_CONTROL_BLOCK@@@Z 1001b910 f   mrishared.obj
 0001:0001aef0       ?MapVNMSRouteId@MriAttachHandler@@QAE?AW4MR_STATUS@@EPAE@Z 1001bef0 f   mrishared.obj
 0001:0001b780       ?ProcessApplicationFailure@MriAttachHandler@@QAE?AW4MR_STATUS@@PAU_MESSAGE_ROUTING_CONTROL_BLOCK@@EEEPAU_MR_OPEN_HANDLE@@PAPAX@Z 1001c780 f   mrishared.obj
 0001:0001bf30       ?ProcessHMS@MriSharedInternals@@QAE_NPAUMR_MESSAGE@@@Z 1001cf30 f   mrishared.obj
 0001:0001c710       ?ProcessInterBoardMsg@Message_Routing_Interface@@AAEXPAUMR_MESSAGE@@@Z 1001d710 f   mrishared.obj
 0001:0001cb50       ?ProcessSendBoardUpdated@Message_Routing_Interface@@QAE?AW4MR_STATUS@@E@Z 1001db50 f   mrishared.obj
 0001:0001d5e0       ?ReleaseLock@MriSharedInternals@@SAXPAX@Z 1001e5e0 f   mrishared.obj
 0001:0001d760       ?ReturnSendStatus@Message_Routing_Interface@@AAE?AW4MR_STATUS@@PAUMR_MESSAGE@@K@Z 1001e760 f   mrishared.obj
 0001:0001dda0       ?SendInterBoardNotification@Message_Routing_Interface@@QAE?AW4MR_STATUS@@EEEE@Z 1001eda0 f   mrishared.obj
 0001:0001e340       ?SendInterBoardNotification@Message_Routing_Interface@@QAE?AW4MR_STATUS@@EEKPAX@Z 1001f340 f   mrishared.obj
 0001:0001e7f0       ?SignalEQueue@Message_Routing_Interface@@QAE?AW4MR_STATUS@@PAU_Q_STRUCT@@PAUMR_MESSAGE@@@Z 1001f7f0 f   mrishared.obj
 0001:0001f880       ?SwitchSendBoard@MriSharedInternals@@QAE?AW4MR_STATUS@@PAUMR_MESSAGE@@@Z 10020880 f   mrishared.obj
 0001:00020130       ?ValidateMD@MriSharedInternals@@QAE?AW4MR_STATUS@@PAUMR_MESSAGE@@@Z 10021130 f   mrishared.obj
 0001:00020b00       ?ValidateMD@MriSharedInternals@@QAE?AW4MR_STATUS@@PAUMR_MESSAGE@@_N@Z 10021b00 f   mrishared.obj
 0001:000212b0       ?VerifySignatureWithThrow@MriSharedInternals@@SAXPAU_SIGNATURE_VERIFICATION@@KG@Z 100222b0 f i mrishared.obj
 0001:00021e70       ?c_str@?$basic_string@_WU?$char_traits@_W@std@@V?$allocator@_W@2@@std@@QBEPB_WXZ 10022e70 f i mrishared.obj
 0001:00021e80       ?wcschr@@YAPA_WPA_W_W@Z    10022e80 f i mrishared.obj
 0001:00021e90       ?CreateMRIInterface@@YAPAXXZ 10022e90 f   MriWrapper.obj
 0001:00021f00       ?DestroyMRIInterface@@YAHPAX@Z 10022f00 f   MriWrapper.obj
 0001:00021f20       ?MRI_Interface_AllocateBuf@@YA?AW4MR_STATUS@@PAXKPAPAUMR_MESSAGE@@@Z 10022f20 f   MriWrapper.obj
 0001:00021f40       ?MRI_Interface_AttachPort@@YA?AW4MR_STATUS@@PAX0EEPAPAX@Z 10022f40 f   MriWrapper.obj
 0001:00021f60       ?MRI_Interface_BuildSetSendReply@@YA?AW4MR_STATUS@@PAXPAPAUMR_MESSAGE@@PAU_MR_CMM_GLOBALS@@@Z 10022f60 f   MriWrapper.obj
 0001:00021f80       ?MRI_Interface_Close@@YA?AW4MR_STATUS@@PAX0@Z 10022f80 f   MriWrapper.obj
 0001:00021f90       ?MRI_Interface_CreateEqueue@@YA?AW4MR_STATUS@@PAX0PAPAX@Z 10022f90 f   MriWrapper.obj
 0001:00021fb0       ?MRI_Interface_DestroyEqueue@@YA?AW4MR_STATUS@@PAX0@Z 10022fb0 f   MriWrapper.obj
 0001:00021fc0       ?MRI_Interface_DetachPort@@YA?AW4MR_STATUS@@PAX0@Z 10022fc0 f   MriWrapper.obj
 0001:00021fd0       ?MRI_Interface_FreeBuf@@YA?AW4MR_STATUS@@PAXPAUMR_MESSAGE@@@Z 10022fd0 f   MriWrapper.obj
 0001:00021fe0       ?MRI_Interface_FreeBufOptions@@YA?AW4MR_STATUS@@PAXPAUMR_MESSAGE@@_N@Z 10022fe0 f   MriWrapper.obj
 0001:00022000       ?MRI_Interface_GetHostRclass@@YAEPAX@Z 10023000 f   MriWrapper.obj
 0001:00022010       ?MRI_Interface_GetHostRclassBySlot@@YAEPAXE@Z 10023010 f   MriWrapper.obj
 0001:00022020       ?MRI_Interface_GetMDPBoardMask@@YA?AW4MR_STATUS@@PAXPAK@Z 10023020 f   MriWrapper.obj
 0001:00022030       ?MRI_Interface_GetMySlot@@YA?AW4MR_STATUS@@PAXPAE@Z 10023030 f   MriWrapper.obj
 0001:00022040       ?MRI_Interface_GetPortInfo@@YA?AW4MR_STATUS@@PAXEPAU_MR_PORTINFO@@@Z 10023040 f   MriWrapper.obj
 0001:00022060       ?MRI_Interface_GetRouteInfo@@YA?AW4MR_STATUS@@PAXEPAU_MR_ROUTEINFO@@@Z 10023060 f   MriWrapper.obj
 0001:00022080       ?MRI_Interface_GetSlotInfo@@YA?AW4MR_STATUS@@PAXPAU_MR_SLOT_INFO@@@Z 10023080 f   MriWrapper.obj
 0001:00022090       ?MRI_Interface_Open@@YA?AW4MR_STATUS@@PAXPAPAX@Z 10023090 f   MriWrapper.obj
 0001:000220a0       ?MRI_Interface_ProcessSendBoardUpdated@@YA?AW4MR_STATUS@@PAXE@Z 100230a0 f   MriWrapper.obj
 0001:000220b0       ?MRI_Interface_ReceiveMRIMsg@@YA?AW4MR_STATUS@@PAX0PAPAUMR_MESSAGE@@K@Z 100230b0 f   MriWrapper.obj
 0001:000220d0       ?MRI_Interface_SendInterBoardNotification@@YA?AW4MR_STATUS@@PAXEEEE@Z 100230d0 f   MriWrapper.obj
 0001:000220f0       ?MRI_Interface_SendInterBoardNotificationWithData@@YA?AW4MR_STATUS@@PAXEEK0@Z 100230f0 f   MriWrapper.obj
 0001:00022110       ?MRI_Interface_SendMRIMsg@@YA?AW4MR_STATUS@@PAXPAUMR_MESSAGE@@E@Z 10023110 f   MriWrapper.obj
 0001:00022130       ?MRI_Interface_SignalEQueue@@YA?AW4MR_STATUS@@PAXPAU_Q_STRUCT@@PAUMR_MESSAGE@@@Z 10023130 f   MriWrapper.obj
 0001:00022150       ?MRI_Interface_WaitEqueue@@YA?AW4MR_STATUS@@PAX0PAU_MR_EVENT@@K@Z 10023150 f   MriWrapper.obj
 0001:00022170       ??0Queue@@QAE@PAU_Q_STRUCT@@@Z 10023170 f   Queue.obj
 0001:00022180       ??0Queue@@QAE@PAU_Q_STRUCT@@PAE@Z 10023180 f   Queue.obj
 0001:000221a0       ??0Queue@@QAE@XZ           100231a0 f   Queue.obj
 0001:000221b0       ??1Queue@@QAE@XZ           100231b0 f   Queue.obj
 0001:000221c0       ?DeQ@Queue@@QAE?AW4MR_STATUS@@PAK@Z 100231c0 f   Queue.obj
 0001:000226e0       ?DeQ@Queue@@QAE?AW4MR_STATUS@@PAPAUMR_MESSAGE@@@Z 100236e0 f   Queue.obj
 0001:00022bf0       ?EnQ@Queue@@QAE?AW4MR_STATUS@@K@Z 10023bf0 f   Queue.obj
 0001:00023190       ?EnQ@Queue@@QAE?AW4MR_STATUS@@PAUMR_MESSAGE@@@Z 10024190 f   Queue.obj
 0001:00023730       ??0EM_Win32CallFailed@@QAE@V?$basic_string@_WU?$char_traits@_W@std@@V?$allocator@_W@2@@std@@VUTIL_WinError@@PBVEM_NestedException@@@Z 10024730 f   TR_Trace:emEvents.obj
 0001:000237e0       ??0EM_Win32CallFailed@@QAE@ABV0@@Z 100247e0 f   TR_Trace:emEvents.obj
 0001:00023890       ??0EM_Win32CallFailed@@QAE@PBVEM_NestedException@@ABUEM_NestedExceptionData@@@Z 10024890 f   TR_Trace:emEvents.obj
 0001:00023930       ?Throw@EM_Win32CallFailed@@SAXAAUEM_NestedExceptionData@@PAVEM_NestedException@@@Z 10024930 f   TR_Trace:emEvents.obj
 0001:000239b0       ?FormatExceptionData@EM_Win32CallFailed@@UBEXPAPAUEM_LogParams@@@Z 100249b0 f   TR_Trace:emEvents.obj
 0001:00023af0       ?GetAttributes@EM_Win32CallFailed@@UBEABUEM_EventInfo@@XZ 10024af0 f   TR_Trace:emEvents.obj
 0001:00023b00       ?Clone@EM_Win32CallFailed@@UBEPAVEM_NestedException@@XZ 10024b00 f   TR_Trace:emEvents.obj
 0001:00023b70       ?GetId@EM_Win32CallFailed@@UBEJXZ 10024b70 f   TR_Trace:emEvents.obj
 0001:00023b80       ??0EM_Win32FileCallFailed@@QAE@V?$basic_string@_WU?$char_traits@_W@std@@V?$allocator@_W@2@@std@@0VUTIL_WinError@@PBVEM_NestedException@@@Z 10024b80 f   TR_Trace:emEvents.obj
 0001:00023c90       ??0EM_Win32FileCallFailed@@QAE@ABV0@@Z 10024c90 f   TR_Trace:emEvents.obj
 0001:00023d80       ??0EM_Win32FileCallFailed@@QAE@PBVEM_NestedException@@ABUEM_NestedExceptionData@@@Z 10024d80 f   TR_Trace:emEvents.obj
 0001:00023e50       ?Throw@EM_Win32FileCallFailed@@SAXAAUEM_NestedExceptionData@@PAVEM_NestedException@@@Z 10024e50 f   TR_Trace:emEvents.obj
 0001:00023ed0       ?FormatExceptionData@EM_Win32FileCallFailed@@UBEXPAPAUEM_LogParams@@@Z 10024ed0 f   TR_Trace:emEvents.obj
 0001:00024080       ?GetAttributes@EM_Win32FileCallFailed@@UBEABUEM_EventInfo@@XZ 10025080 f   TR_Trace:emEvents.obj
 0001:00024090       ?Clone@EM_Win32FileCallFailed@@UBEPAVEM_NestedException@@XZ 10025090 f   TR_Trace:emEvents.obj
 0001:00024100       ?GetId@EM_Win32FileCallFailed@@UBEJXZ 10025100 f   TR_Trace:emEvents.obj
 0001:00024110       ??0EM_AssertFailed@@QAE@V?$basic_string@_WU?$char_traits@_W@std@@V?$allocator@_W@2@@std@@0JPBVEM_NestedException@@@Z 10025110 f   TR_Trace:emEvents.obj
 0001:00024220       ??0EM_AssertFailed@@QAE@ABV0@@Z 10025220 f   TR_Trace:emEvents.obj
 0001:00024310       ??0EM_AssertFailed@@QAE@PBVEM_NestedException@@ABUEM_NestedExceptionData@@@Z 10025310 f   TR_Trace:emEvents.obj
 0001:000243d0       ?Throw@EM_AssertFailed@@SAXAAUEM_NestedExceptionData@@PAVEM_NestedException@@@Z 100253d0 f   TR_Trace:emEvents.obj
 0001:00024450       ?FormatExceptionData@EM_AssertFailed@@UBEXPAPAUEM_LogParams@@@Z 10025450 f   TR_Trace:emEvents.obj
 0001:000245d0       ?GetAttributes@EM_AssertFailed@@UBEABUEM_EventInfo@@XZ 100255d0 f   TR_Trace:emEvents.obj
 0001:000245e0       ?Clone@EM_AssertFailed@@UBEPAVEM_NestedException@@XZ 100255e0 f   TR_Trace:emEvents.obj
 0001:00024650       ?GetId@EM_AssertFailed@@UBEJXZ 10025650 f   TR_Trace:emEvents.obj
 0001:00024660       ??0EM_AssertFailed1@@QAE@V?$basic_string@_WU?$char_traits@_W@std@@V?$allocator@_W@2@@std@@0JJPBVEM_NestedException@@@Z 10025660 f   TR_Trace:emEvents.obj
 0001:00024770       ??0EM_AssertFailed1@@QAE@ABV0@@Z 10025770 f   TR_Trace:emEvents.obj
 0001:00024870       ??0EM_AssertFailed1@@QAE@PBVEM_NestedException@@ABUEM_NestedExceptionData@@@Z 10025870 f   TR_Trace:emEvents.obj
 0001:00024930       ?Throw@EM_AssertFailed1@@SAXAAUEM_NestedExceptionData@@PAVEM_NestedException@@@Z 10025930 f   TR_Trace:emEvents.obj
 0001:000249b0       ?FormatExceptionData@EM_AssertFailed1@@UBEXPAPAUEM_LogParams@@@Z 100259b0 f   TR_Trace:emEvents.obj
 0001:00024b60       ?GetAttributes@EM_AssertFailed1@@UBEABUEM_EventInfo@@XZ 10025b60 f   TR_Trace:emEvents.obj
 0001:00024b70       ?Clone@EM_AssertFailed1@@UBEPAVEM_NestedException@@XZ 10025b70 f   TR_Trace:emEvents.obj
 0001:00024be0       ?GetId@EM_AssertFailed1@@UBEJXZ 10025be0 f   TR_Trace:emEvents.obj
 0001:00024bf0       ??0EM_AssertFailed2@@QAE@V?$basic_string@_WU?$char_traits@_W@std@@V?$allocator@_W@2@@std@@0JJJPBVEM_NestedException@@@Z 10025bf0 f   TR_Trace:emEvents.obj
 0001:00024d10       ??0EM_AssertFailed2@@QAE@ABV0@@Z 10025d10 f   TR_Trace:emEvents.obj
 0001:00024e20       ??0EM_AssertFailed2@@QAE@PBVEM_NestedException@@ABUEM_NestedExceptionData@@@Z 10025e20 f   TR_Trace:emEvents.obj
 0001:00024ee0       ?Throw@EM_AssertFailed2@@SAXAAUEM_NestedExceptionData@@PAVEM_NestedException@@@Z 10025ee0 f   TR_Trace:emEvents.obj
 0001:00024f60       ?FormatExceptionData@EM_AssertFailed2@@UBEXPAPAUEM_LogParams@@@Z 10025f60 f   TR_Trace:emEvents.obj
 0001:00025130       ?GetAttributes@EM_AssertFailed2@@UBEABUEM_EventInfo@@XZ 10026130 f   TR_Trace:emEvents.obj
 0001:00025140       ?Clone@EM_AssertFailed2@@UBEPAVEM_NestedException@@XZ 10026140 f   TR_Trace:emEvents.obj
 0001:000251b0       ?GetId@EM_AssertFailed2@@UBEJXZ 100261b0 f   TR_Trace:emEvents.obj
 0001:000251c0       ??0EM_PreconditionFailed@@QAE@V?$basic_string@_WU?$char_traits@_W@std@@V?$allocator@_W@2@@std@@0JPBVEM_NestedException@@@Z 100261c0 f   TR_Trace:emEvents.obj
 0001:000252d0       ??0EM_PreconditionFailed@@QAE@ABV0@@Z 100262d0 f   TR_Trace:emEvents.obj
 0001:000253c0       ??0EM_PreconditionFailed@@QAE@PBVEM_NestedException@@ABUEM_NestedExceptionData@@@Z 100263c0 f   TR_Trace:emEvents.obj
 0001:00025480       ?Throw@EM_PreconditionFailed@@SAXAAUEM_NestedExceptionData@@PAVEM_NestedException@@@Z 10026480 f   TR_Trace:emEvents.obj
 0001:00025500       ?FormatExceptionData@EM_PreconditionFailed@@UBEXPAPAUEM_LogParams@@@Z 10026500 f   TR_Trace:emEvents.obj
 0001:00025680       ?GetAttributes@EM_PreconditionFailed@@UBEABUEM_EventInfo@@XZ 10026680 f   TR_Trace:emEvents.obj
 0001:00025690       ?Clone@EM_PreconditionFailed@@UBEPAVEM_NestedException@@XZ 10026690 f   TR_Trace:emEvents.obj
 0001:00025700       ?GetId@EM_PreconditionFailed@@UBEJXZ 10026700 f   TR_Trace:emEvents.obj
 0001:00025710       ??0EM_PreconditionFailed1@@QAE@V?$basic_string@_WU?$char_traits@_W@std@@V?$allocator@_W@2@@std@@0JJPBVEM_NestedException@@@Z 10026710 f   TR_Trace:emEvents.obj
 0001:00025820       ??0EM_PreconditionFailed1@@QAE@ABV0@@Z 10026820 f   TR_Trace:emEvents.obj
 0001:00025920       ??0EM_PreconditionFailed1@@QAE@PBVEM_NestedException@@ABUEM_NestedExceptionData@@@Z 10026920 f   TR_Trace:emEvents.obj
 0001:000259e0       ?Throw@EM_PreconditionFailed1@@SAXAAUEM_NestedExceptionData@@PAVEM_NestedException@@@Z 100269e0 f   TR_Trace:emEvents.obj
 0001:00025a60       ?FormatExceptionData@EM_PreconditionFailed1@@UBEXPAPAUEM_LogParams@@@Z 10026a60 f   TR_Trace:emEvents.obj
 0001:00025c10       ?GetAttributes@EM_PreconditionFailed1@@UBEABUEM_EventInfo@@XZ 10026c10 f   TR_Trace:emEvents.obj
 0001:00025c20       ?Clone@EM_PreconditionFailed1@@UBEPAVEM_NestedException@@XZ 10026c20 f   TR_Trace:emEvents.obj
 0001:00025c90       ?GetId@EM_PreconditionFailed1@@UBEJXZ 10026c90 f   TR_Trace:emEvents.obj
 0001:00025ca0       ??0EM_PreconditionFailed2@@QAE@V?$basic_string@_WU?$char_traits@_W@std@@V?$allocator@_W@2@@std@@0JJJPBVEM_NestedException@@@Z 10026ca0 f   TR_Trace:emEvents.obj
 0001:00025dc0       ??0EM_PreconditionFailed2@@QAE@ABV0@@Z 10026dc0 f   TR_Trace:emEvents.obj
 0001:00025ed0       ??0EM_PreconditionFailed2@@QAE@PBVEM_NestedException@@ABUEM_NestedExceptionData@@@Z 10026ed0 f   TR_Trace:emEvents.obj
 0001:00025f90       ?Throw@EM_PreconditionFailed2@@SAXAAUEM_NestedExceptionData@@PAVEM_NestedException@@@Z 10026f90 f   TR_Trace:emEvents.obj
 0001:00026010       ?FormatExceptionData@EM_PreconditionFailed2@@UBEXPAPAUEM_LogParams@@@Z 10027010 f   TR_Trace:emEvents.obj
 0001:000261e0       ?GetAttributes@EM_PreconditionFailed2@@UBEABUEM_EventInfo@@XZ 100271e0 f   TR_Trace:emEvents.obj
 0001:000261f0       ?Clone@EM_PreconditionFailed2@@UBEPAVEM_NestedException@@XZ 100271f0 f   TR_Trace:emEvents.obj
 0001:00026260       ?GetId@EM_PreconditionFailed2@@UBEJXZ 10027260 f   TR_Trace:emEvents.obj
 0001:00026270       ??0EM_UnexpectedFailure@@QAE@V?$basic_string@_WU?$char_traits@_W@std@@V?$allocator@_W@2@@std@@0JPBVEM_NestedException@@@Z 10027270 f   TR_Trace:emEvents.obj
 0001:00026380       ??0EM_UnexpectedFailure@@QAE@QBDV?$basic_string@_WU?$char_traits@_W@std@@V?$allocator@_W@2@@std@@JPBVEM_NestedException@@@Z 10027380 f   TR_Trace:emEvents.obj
 0001:000264f0       ??0EM_UnexpectedFailure@@QAE@ABV0@@Z 100274f0 f   TR_Trace:emEvents.obj
 0001:000265e0       ??0EM_UnexpectedFailure@@QAE@PBVEM_NestedException@@ABUEM_NestedExceptionData@@@Z 100275e0 f   TR_Trace:emEvents.obj
 0001:000266a0       ?Throw@EM_UnexpectedFailure@@SAXAAUEM_NestedExceptionData@@PAVEM_NestedException@@@Z 100276a0 f   TR_Trace:emEvents.obj
 0001:00026720       ?FormatExceptionData@EM_UnexpectedFailure@@UBEXPAPAUEM_LogParams@@@Z 10027720 f   TR_Trace:emEvents.obj
 0001:000268a0       ?GetAttributes@EM_UnexpectedFailure@@UBEABUEM_EventInfo@@XZ 100278a0 f   TR_Trace:emEvents.obj
 0001:000268b0       ?Clone@EM_UnexpectedFailure@@UBEPAVEM_NestedException@@XZ 100278b0 f   TR_Trace:emEvents.obj
 0001:00026920       ?GetId@EM_UnexpectedFailure@@UBEJXZ 10027920 f   TR_Trace:emEvents.obj
 0001:00026930       ??0EM_ExceptionWhileHandling@@QAE@V?$basic_string@_WU?$char_traits@_W@std@@V?$allocator@_W@2@@std@@PBVEM_NestedException@@@Z 10027930 f   TR_Trace:emEvents.obj
 0001:000269e0       ??0EM_ExceptionWhileHandling@@QAE@ABV0@@Z 100279e0 f   TR_Trace:emEvents.obj
 0001:00026a80       ??0EM_ExceptionWhileHandling@@QAE@PBVEM_NestedException@@ABUEM_NestedExceptionData@@@Z 10027a80 f   TR_Trace:emEvents.obj
 0001:00026b10       ?Throw@EM_ExceptionWhileHandling@@SAXAAUEM_NestedExceptionData@@PAVEM_NestedException@@@Z 10027b10 f   TR_Trace:emEvents.obj
 0001:00026b90       ?FormatExceptionData@EM_ExceptionWhileHandling@@UBEXPAPAUEM_LogParams@@@Z 10027b90 f   TR_Trace:emEvents.obj
 0001:00026c80       ?GetAttributes@EM_ExceptionWhileHandling@@UBEABUEM_EventInfo@@XZ 10027c80 f   TR_Trace:emEvents.obj
 0001:00026c90       ?Clone@EM_ExceptionWhileHandling@@UBEPAVEM_NestedException@@XZ 10027c90 f   TR_Trace:emEvents.obj
 0001:00026d00       ?GetId@EM_ExceptionWhileHandling@@UBEJXZ 10027d00 f   TR_Trace:emEvents.obj
 0001:00026d10       ??0EM_UnexpectedException@@QAE@V?$basic_string@_WU?$char_traits@_W@std@@V?$allocator@_W@2@@std@@PBVEM_NestedException@@@Z 10027d10 f   TR_Trace:emEvents.obj
 0001:00026dc0       ??0EM_UnexpectedException@@QAE@ABV0@@Z 10027dc0 f   TR_Trace:emEvents.obj
 0001:00026e60       ??0EM_UnexpectedException@@QAE@PBVEM_NestedException@@ABUEM_NestedExceptionData@@@Z 10027e60 f   TR_Trace:emEvents.obj
 0001:00026ef0       ?Throw@EM_UnexpectedException@@SAXAAUEM_NestedExceptionData@@PAVEM_NestedException@@@Z 10027ef0 f   TR_Trace:emEvents.obj
 0001:00026f70       ?FormatExceptionData@EM_UnexpectedException@@UBEXPAPAUEM_LogParams@@@Z 10027f70 f   TR_Trace:emEvents.obj
 0001:00027060       ?GetAttributes@EM_UnexpectedException@@UBEABUEM_EventInfo@@XZ 10028060 f   TR_Trace:emEvents.obj
 0001:00027070       ?Clone@EM_UnexpectedException@@UBEPAVEM_NestedException@@XZ 10028070 f   TR_Trace:emEvents.obj
 0001:000270e0       ?GetId@EM_UnexpectedException@@UBEJXZ 100280e0 f   TR_Trace:emEvents.obj
 0001:000270f0       ??0EM_RemoteException@@QAE@V?$basic_string@_WU?$char_traits@_W@std@@V?$allocator@_W@2@@std@@00PBVEM_NestedException@@@Z 100280f0 f   TR_Trace:emEvents.obj
 0001:00027240       ??0EM_RemoteException@@QAE@ABV0@@Z 10028240 f   TR_Trace:emEvents.obj
 0001:00027370       ??0EM_RemoteException@@QAE@PBVEM_NestedException@@ABUEM_NestedExceptionData@@@Z 10028370 f   TR_Trace:emEvents.obj
 0001:00027460       ?Throw@EM_RemoteException@@SAXAAUEM_NestedExceptionData@@PAVEM_NestedException@@@Z 10028460 f   TR_Trace:emEvents.obj
 0001:000274e0       ?FormatExceptionData@EM_RemoteException@@UBEXPAPAUEM_LogParams@@@Z 100284e0 f   TR_Trace:emEvents.obj
 0001:000276b0       ?GetAttributes@EM_RemoteException@@UBEABUEM_EventInfo@@XZ 100286b0 f   TR_Trace:emEvents.obj
 0001:000276c0       ?Clone@EM_RemoteException@@UBEPAVEM_NestedException@@XZ 100286c0 f   TR_Trace:emEvents.obj
 0001:00027730       ?GetId@EM_RemoteException@@UBEJXZ 10028730 f   TR_Trace:emEvents.obj
 0001:00027740       ??0EM_ValueTooSmall@@QAE@JJPBVEM_NestedException@@@Z 10028740 f   TR_Trace:emEvents.obj
 0001:000277b0       ??0EM_ValueTooSmall@@QAE@ABV0@@Z 100287b0 f   TR_Trace:emEvents.obj
 0001:00027820       ??0EM_ValueTooSmall@@QAE@PBVEM_NestedException@@ABUEM_NestedExceptionData@@@Z 10028820 f   TR_Trace:emEvents.obj
 0001:00027880       ?Throw@EM_ValueTooSmall@@SAXAAUEM_NestedExceptionData@@PAVEM_NestedException@@@Z 10028880 f   TR_Trace:emEvents.obj
 0001:000278f0       ?FormatExceptionData@EM_ValueTooSmall@@UBEXPAPAUEM_LogParams@@@Z 100288f0 f   TR_Trace:emEvents.obj
 0001:000279c0       ?GetAttributes@EM_ValueTooSmall@@UBEABUEM_EventInfo@@XZ 100289c0 f   TR_Trace:emEvents.obj
 0001:000279d0       ?Clone@EM_ValueTooSmall@@UBEPAVEM_NestedException@@XZ 100289d0 f   TR_Trace:emEvents.obj
 0001:00027a40       ?GetId@EM_ValueTooSmall@@UBEJXZ 10028a40 f   TR_Trace:emEvents.obj
 0001:00027a50       ??0EM_ValueTooLarge@@QAE@JJPBVEM_NestedException@@@Z 10028a50 f   TR_Trace:emEvents.obj
 0001:00027ac0       ??0EM_ValueTooLarge@@QAE@ABV0@@Z 10028ac0 f   TR_Trace:emEvents.obj
 0001:00027b30       ??0EM_ValueTooLarge@@QAE@PBVEM_NestedException@@ABUEM_NestedExceptionData@@@Z 10028b30 f   TR_Trace:emEvents.obj
 0001:00027b90       ?Throw@EM_ValueTooLarge@@SAXAAUEM_NestedExceptionData@@PAVEM_NestedException@@@Z 10028b90 f   TR_Trace:emEvents.obj
 0001:00027c00       ?FormatExceptionData@EM_ValueTooLarge@@UBEXPAPAUEM_LogParams@@@Z 10028c00 f   TR_Trace:emEvents.obj
 0001:00027cd0       ?GetAttributes@EM_ValueTooLarge@@UBEABUEM_EventInfo@@XZ 10028cd0 f   TR_Trace:emEvents.obj
 0001:00027ce0       ?Clone@EM_ValueTooLarge@@UBEPAVEM_NestedException@@XZ 10028ce0 f   TR_Trace:emEvents.obj
 0001:00027d50       ?GetId@EM_ValueTooLarge@@UBEJXZ 10028d50 f   TR_Trace:emEvents.obj
 0001:00027d60       ??0EM_StringTooShort@@QAE@V?$basic_string@_WU?$char_traits@_W@std@@V?$allocator@_W@2@@std@@JJPBVEM_NestedException@@@Z 10028d60 f   TR_Trace:emEvents.obj
 0001:00027e20       ??0EM_StringTooShort@@QAE@ABV0@@Z 10028e20 f   TR_Trace:emEvents.obj
 0001:00027ee0       ??0EM_StringTooShort@@QAE@PBVEM_NestedException@@ABUEM_NestedExceptionData@@@Z 10028ee0 f   TR_Trace:emEvents.obj
 0001:00027f70       ?Throw@EM_StringTooShort@@SAXAAUEM_NestedExceptionData@@PAVEM_NestedException@@@Z 10028f70 f   TR_Trace:emEvents.obj
 0001:00027ff0       ?FormatExceptionData@EM_StringTooShort@@UBEXPAPAUEM_LogParams@@@Z 10028ff0 f   TR_Trace:emEvents.obj
 0001:00028130       ?GetAttributes@EM_StringTooShort@@UBEABUEM_EventInfo@@XZ 10029130 f   TR_Trace:emEvents.obj
 0001:00028140       ?Clone@EM_StringTooShort@@UBEPAVEM_NestedException@@XZ 10029140 f   TR_Trace:emEvents.obj
 0001:000281b0       ?GetId@EM_StringTooShort@@UBEJXZ 100291b0 f   TR_Trace:emEvents.obj
 0001:000281c0       ??0EM_StringTooLong@@QAE@V?$basic_string@_WU?$char_traits@_W@std@@V?$allocator@_W@2@@std@@JJPBVEM_NestedException@@@Z 100291c0 f   TR_Trace:emEvents.obj
 0001:00028280       ??0EM_StringTooLong@@QAE@ABV0@@Z 10029280 f   TR_Trace:emEvents.obj
 0001:00028340       ??0EM_StringTooLong@@QAE@PBVEM_NestedException@@ABUEM_NestedExceptionData@@@Z 10029340 f   TR_Trace:emEvents.obj
 0001:000283d0       ?Throw@EM_StringTooLong@@SAXAAUEM_NestedExceptionData@@PAVEM_NestedException@@@Z 100293d0 f   TR_Trace:emEvents.obj
 0001:00028450       ?FormatExceptionData@EM_StringTooLong@@UBEXPAPAUEM_LogParams@@@Z 10029450 f   TR_Trace:emEvents.obj
 0001:00028590       ?GetAttributes@EM_StringTooLong@@UBEABUEM_EventInfo@@XZ 10029590 f   TR_Trace:emEvents.obj
 0001:000285a0       ?Clone@EM_StringTooLong@@UBEPAVEM_NestedException@@XZ 100295a0 f   TR_Trace:emEvents.obj
 0001:00028610       ?GetId@EM_StringTooLong@@UBEJXZ 10029610 f   TR_Trace:emEvents.obj
 0001:00028620       ??0EM_InvalidExceptionData@@QAE@V?$basic_string@_WU?$char_traits@_W@std@@V?$allocator@_W@2@@std@@JPBVEM_NestedException@@@Z 10029620 f   TR_Trace:emEvents.obj
 0001:000286d0       ??0EM_InvalidExceptionData@@QAE@ABV0@@Z 100296d0 f   TR_Trace:emEvents.obj
 0001:00028780       ??0EM_InvalidExceptionData@@QAE@PBVEM_NestedException@@ABUEM_NestedExceptionData@@@Z 10029780 f   TR_Trace:emEvents.obj
 0001:00028810       ?Throw@EM_InvalidExceptionData@@SAXAAUEM_NestedExceptionData@@PAVEM_NestedException@@@Z 10029810 f   TR_Trace:emEvents.obj
 0001:00028890       ?FormatExceptionData@EM_InvalidExceptionData@@UBEXPAPAUEM_LogParams@@@Z 10029890 f   TR_Trace:emEvents.obj
 0001:000289a0       ?GetAttributes@EM_InvalidExceptionData@@UBEABUEM_EventInfo@@XZ 100299a0 f   TR_Trace:emEvents.obj
 0001:000289b0       ?Clone@EM_InvalidExceptionData@@UBEPAVEM_NestedException@@XZ 100299b0 f   TR_Trace:emEvents.obj
 0001:00028a20       ?GetId@EM_InvalidExceptionData@@UBEJXZ 10029a20 f   TR_Trace:emEvents.obj
 0001:00028a30       ??0EM_UnexpectedFailure1@@QAE@V?$basic_string@_WU?$char_traits@_W@std@@V?$allocator@_W@2@@std@@0JPBVEM_NestedException@@@Z 10029a30 f   TR_Trace:emEvents.obj
 0001:00028b40       ??0EM_UnexpectedFailure1@@QAE@ABV0@@Z 10029b40 f   TR_Trace:emEvents.obj
 0001:00028c30       ??0EM_UnexpectedFailure1@@QAE@PBVEM_NestedException@@ABUEM_NestedExceptionData@@@Z 10029c30 f   TR_Trace:emEvents.obj
 0001:00028cf0       ?Throw@EM_UnexpectedFailure1@@SAXAAUEM_NestedExceptionData@@PAVEM_NestedException@@@Z 10029cf0 f   TR_Trace:emEvents.obj
 0001:00028d70       ?FormatExceptionData@EM_UnexpectedFailure1@@UBEXPAPAUEM_LogParams@@@Z 10029d70 f   TR_Trace:emEvents.obj
 0001:00028ef0       ?GetAttributes@EM_UnexpectedFailure1@@UBEABUEM_EventInfo@@XZ 10029ef0 f   TR_Trace:emEvents.obj
 0001:00028f00       ?Clone@EM_UnexpectedFailure1@@UBEPAVEM_NestedException@@XZ 10029f00 f   TR_Trace:emEvents.obj
 0001:00028f70       ?GetId@EM_UnexpectedFailure1@@UBEJXZ 10029f70 f   TR_Trace:emEvents.obj
 0001:00028f80       ??0EM_Event@@QAE@ABV0@@Z   10029f80 f i TR_Trace:emEvents.obj
 0001:00028fa0       ??0EM_LogParams@@QAE@XZ    10029fa0 f i TR_Trace:emEvents.obj
 0001:00029030       ??0_bstr_t@@QAE@XZ         1002a030 f i TR_Trace:emEvents.obj
 0001:00029050       ??1EM_AssertFailed1@@UAE@XZ 1002a050 f i TR_Trace:emEvents.obj
 0001:000290c0       ??1EM_AssertFailed2@@UAE@XZ 1002a0c0 f i TR_Trace:emEvents.obj
 0001:00029130       ??1EM_AssertFailed@@UAE@XZ 1002a130 f i TR_Trace:emEvents.obj
 0001:000291a0       ??1EM_ExceptionWhileHandling@@UAE@XZ 1002a1a0 f i TR_Trace:emEvents.obj
 0001:00029200       ??1EM_InvalidExceptionData@@UAE@XZ 1002a200 f i TR_Trace:emEvents.obj
 0001:00029260       ??1EM_PreconditionFailed1@@UAE@XZ 1002a260 f i TR_Trace:emEvents.obj
 0001:000292d0       ??1EM_PreconditionFailed2@@UAE@XZ 1002a2d0 f i TR_Trace:emEvents.obj
 0001:00029340       ??1EM_PreconditionFailed@@UAE@XZ 1002a340 f i TR_Trace:emEvents.obj
 0001:000293b0       ??1EM_RemoteException@@UAE@XZ 1002a3b0 f i TR_Trace:emEvents.obj
 0001:00029430       ??1EM_StringTooLong@@UAE@XZ 1002a430 f i TR_Trace:emEvents.obj
 0001:00029490       ??1EM_StringTooShort@@UAE@XZ 1002a490 f i TR_Trace:emEvents.obj
 0001:000294f0       ??1EM_ValueTooLarge@@UAE@XZ 1002a4f0 f i TR_Trace:emEvents.obj
 0001:00029530       ??1EM_ValueTooSmall@@UAE@XZ 1002a530 f i TR_Trace:emEvents.obj
 0001:00029570       ??1EM_Win32CallFailed@@UAE@XZ 1002a570 f i TR_Trace:emEvents.obj
 0001:000295d0       ??1EM_Win32FileCallFailed@@UAE@XZ 1002a5d0 f i TR_Trace:emEvents.obj
 0001:00029640       ??1_bstr_t@@QAE@XZ         1002a640 f i TR_Trace:emEvents.obj
 0001:00029670       ??_EEM_AssertFailed1@@UAEPAXI@Z 1002a670 f i TR_Trace:emEvents.obj
 0001:00029670       ??_GEM_AssertFailed1@@UAEPAXI@Z 1002a670 f i TR_Trace:emEvents.obj
 0001:000296a0       ??_GEM_AssertFailed2@@UAEPAXI@Z 1002a6a0 f i TR_Trace:emEvents.obj
 0001:000296a0       ??_EEM_AssertFailed2@@UAEPAXI@Z 1002a6a0 f i TR_Trace:emEvents.obj
 0001:000296d0       ??_EEM_AssertFailed@@UAEPAXI@Z 1002a6d0 f i TR_Trace:emEvents.obj
 0001:000296d0       ??_GEM_AssertFailed@@UAEPAXI@Z 1002a6d0 f i TR_Trace:emEvents.obj
 0001:00029700       ??_GEM_Event@@UAEPAXI@Z    1002a700 f i TR_Trace:emEvents.obj
 0001:00029700       ??_EEM_Event@@UAEPAXI@Z    1002a700 f i TR_Trace:emEvents.obj
 0001:00029730       ??_GEM_ExceptionWhileHandling@@UAEPAXI@Z 1002a730 f i TR_Trace:emEvents.obj
 0001:00029730       ??_EEM_ExceptionWhileHandling@@UAEPAXI@Z 1002a730 f i TR_Trace:emEvents.obj
 0001:000297a0       ??_EEM_InvalidExceptionData@@UAEPAXI@Z 1002a7a0 f i TR_Trace:emEvents.obj
 0001:000297a0       ??_GEM_InvalidExceptionData@@UAEPAXI@Z 1002a7a0 f i TR_Trace:emEvents.obj
 0001:00029810       ??_GEM_PreconditionFailed1@@UAEPAXI@Z 1002a810 f i TR_Trace:emEvents.obj
 0001:00029810       ??_EEM_PreconditionFailed1@@UAEPAXI@Z 1002a810 f i TR_Trace:emEvents.obj
 0001:00029840       ??_GEM_PreconditionFailed2@@UAEPAXI@Z 1002a840 f i TR_Trace:emEvents.obj
 0001:00029840       ??_EEM_PreconditionFailed2@@UAEPAXI@Z 1002a840 f i TR_Trace:emEvents.obj
 0001:00029870       ??_GEM_PreconditionFailed@@UAEPAXI@Z 1002a870 f i TR_Trace:emEvents.obj
 0001:00029870       ??_EEM_PreconditionFailed@@UAEPAXI@Z 1002a870 f i TR_Trace:emEvents.obj
 0001:000298a0       ??_EEM_RemoteException@@UAEPAXI@Z 1002a8a0 f i TR_Trace:emEvents.obj
 0001:000298a0       ??_GEM_RemoteException@@UAEPAXI@Z 1002a8a0 f i TR_Trace:emEvents.obj
 0001:000298d0       ??_EEM_StringTooLong@@UAEPAXI@Z 1002a8d0 f i TR_Trace:emEvents.obj
 0001:000298d0       ??_GEM_StringTooLong@@UAEPAXI@Z 1002a8d0 f i TR_Trace:emEvents.obj
 0001:00029940       ??_GEM_StringTooShort@@UAEPAXI@Z 1002a940 f i TR_Trace:emEvents.obj
 0001:00029940       ??_EEM_StringTooShort@@UAEPAXI@Z 1002a940 f i TR_Trace:emEvents.obj
 0001:000299b0       ??_EEM_UnexpectedException@@UAEPAXI@Z 1002a9b0 f i TR_Trace:emEvents.obj
 0001:000299b0       ??_GEM_UnexpectedException@@UAEPAXI@Z 1002a9b0 f i TR_Trace:emEvents.obj
 0001:00029a20       ??_EEM_UnexpectedFailure1@@UAEPAXI@Z 1002aa20 f i TR_Trace:emEvents.obj
 0001:00029a20       ??_GEM_UnexpectedFailure1@@UAEPAXI@Z 1002aa20 f i TR_Trace:emEvents.obj
 0001:00029a50       ??_EEM_UnexpectedFailure@@UAEPAXI@Z 1002aa50 f i TR_Trace:emEvents.obj
 0001:00029a50       ??_GEM_UnexpectedFailure@@UAEPAXI@Z 1002aa50 f i TR_Trace:emEvents.obj
 0001:00029a80       ??_GEM_ValueTooLarge@@UAEPAXI@Z 1002aa80 f i TR_Trace:emEvents.obj
 0001:00029a80       ??_EEM_ValueTooLarge@@UAEPAXI@Z 1002aa80 f i TR_Trace:emEvents.obj
 0001:00029ae0       ??_EEM_ValueTooSmall@@UAEPAXI@Z 1002aae0 f i TR_Trace:emEvents.obj
 0001:00029ae0       ??_GEM_ValueTooSmall@@UAEPAXI@Z 1002aae0 f i TR_Trace:emEvents.obj
 0001:00029b40       ??_GEM_Win32CallFailed@@UAEPAXI@Z 1002ab40 f i TR_Trace:emEvents.obj
 0001:00029b40       ??_EEM_Win32CallFailed@@UAEPAXI@Z 1002ab40 f i TR_Trace:emEvents.obj
 0001:00029bb0       ??_GEM_Win32FileCallFailed@@UAEPAXI@Z 1002abb0 f i TR_Trace:emEvents.obj
 0001:00029bb0       ??_EEM_Win32FileCallFailed@@UAEPAXI@Z 1002abb0 f i TR_Trace:emEvents.obj
 0001:00029be0       ?Release@Data_t@_bstr_t@@QAEKXZ 1002abe0 f i TR_Trace:emEvents.obj
 0001:00029c50       ?_Free@Data_t@_bstr_t@@AAEXXZ 1002ac50 f i TR_Trace:emEvents.obj
 0001:00029cb0       ??0EM_NestedExceptionData@@QAE@QA_W@Z 1002acb0 f   TR_Trace:nestedException.obj
 0001:00029d10       ?ParseNestedExceptionData@EM_NestedExceptionData@@QAEXQA_W@Z 1002ad10 f   TR_Trace:nestedException.obj
 0001:00029ee0       ??0EM_TunneledExceptions@@QAE@PA_W@Z 1002aee0 f   TR_Trace:nestedException.obj
 0001:0002a060       ??0EM_TunneledExceptions@@QAE@ABV?$basic_string@_WU?$char_traits@_W@std@@V?$allocator@_W@2@@std@@0PBVEM_NestedException@@@Z 1002b060 f   TR_Trace:nestedException.obj
 0001:0002a2f0       ??1EM_TunneledExceptions@@QAE@XZ 1002b2f0 f   TR_Trace:nestedException.obj
 0001:0002aa00       ?Throw@EM_TunneledExceptions@@QAEXXZ 1002ba00 f   TR_Trace:nestedException.obj
 0001:0002ab40       ?Reset@EM_TunneledExceptions@@QAEXXZ 1002bb40 f   TR_Trace:nestedException.obj
 0001:0002ab60       ?GetNextException@EM_TunneledExceptions@@QAE_NAAUEM_NestedExceptionData@@@Z 1002bb60 f   TR_Trace:nestedException.obj
 0001:0002abb0       ?AddExceptionData@EM_TunneledExceptions@@QAE_NPA_WH@Z 1002bbb0 f   TR_Trace:nestedException.obj
 0001:0002acc0       ?AddEndMarker@EM_TunneledExceptions@@QAEXXZ 1002bcc0 f   TR_Trace:nestedException.obj
 0001:0002ad60       ?Clone@EM_TunneledExceptions@@QAEPA_WXZ 1002bd60 f   TR_Trace:nestedException.obj
 0001:0002ad80       ??0EM_NestedException@@QAE@ABV0@@Z 1002bd80 f   TR_Trace:nestedException.obj
 0001:0002ae70       ??0EM_NestedException@@QAE@PBV0@@Z 1002be70 f   TR_Trace:nestedException.obj
 0001:0002af00       ??0EM_NestedException@@QAE@ABUEM_NestedExceptionData@@PBV0@PBUEM_EventInfo@@@Z 1002bf00 f   TR_Trace:nestedException.obj
 0001:0002b010       ??1EM_NestedException@@UAE@XZ 1002c010 f   TR_Trace:nestedException.obj
 0001:0002b0f0       ?Log@EM_NestedException@@UBEXAAVEM_EventLog@@@Z 1002c0f0 f   TR_Trace:nestedException.obj
 0001:0002b160       ?LogThis@EM_NestedException@@QBEXAAVEM_EventLog@@@Z 1002c160 f   TR_Trace:nestedException.obj
 0001:0002b1f0       ?GetLogParams@EM_NestedException@@QBEABUEM_LogParams@@XZ 1002c1f0 f   TR_Trace:nestedException.obj
 0001:0002b230       ?GetNapSource@EM_NestedException@@QAE?AV?$basic_string@_WU?$char_traits@_W@std@@V?$allocator@_W@2@@std@@XZ 1002c230 f   TR_Trace:nestedException.obj
 0001:0002b2c0       ?GetHighestSeverity@EM_NestedException@@QBE?AW4EM_Severity@@XZ 1002c2c0 f   TR_Trace:nestedException.obj
 0001:0002b320       ?AsString@EM_NestedException@@QBE?AV?$basic_string@_WU?$char_traits@_W@std@@V?$allocator@_W@2@@std@@_N@Z 1002c320 f   TR_Trace:nestedException.obj
 0001:0002b550       ??YEM_NestedException@@QAEABV0@AAV0@@Z 1002c550 f   TR_Trace:nestedException.obj
 0001:0002b630       ??HEM_NestedException@@QAEPAV0@AAV0@@Z 1002c630 f   TR_Trace:nestedException.obj
 0001:0002b660       ??4EM_NestedException@@QAEABV0@ABV0@@Z 1002c660 f   TR_Trace:nestedException.obj
 0001:0002b780       ?Throw@EM_NestedException@@SAXPA_W@Z 1002c780 f   TR_Trace:nestedException.obj
 0001:0002b7f0       ?Throw@EM_NestedException@@SAXPAE@Z 1002c7f0 f   TR_Trace:nestedException.obj
 0001:0002b8f0       ?SetVariableDataSuppression@EM_NestedException@@SA_N_N@Z 1002c8f0 f   TR_Trace:nestedException.obj
 0001:0002b910       ?StripSerializationMarkers@EM_NestedException@@SAXPAPA_W@Z 1002c910 f   TR_Trace:nestedException.obj
 0001:0002bc00       ?SetEventInfo@EM_NestedException@@IAEXPAUEM_EventInfo@@@Z 1002cc00 f   TR_Trace:nestedException.obj
 0001:0002bc40       ?Serialize@EM_NestedException@@AAEPADAAH@Z 1002cc40 f   TR_Trace:nestedException.obj
 0001:0002bc70       ?AddSerializationMarkers@EM_NestedException@@CAXPAPA_W@Z 1002cc70 f   TR_Trace:nestedException.obj
 0001:0002bd80       ??0EM_EventInfoWrapper@@QAE@AAUEM_EventInfo@@@Z 1002cd80 f   TR_Trace:nestedException.obj
 0001:0002bdd0       ??1EM_EventInfoWrapper@@QAE@XZ 1002cdd0 f   TR_Trace:nestedException.obj
 0001:0002bde0       ?EM_stripPath@@YA?AV?$basic_string@_WU?$char_traits@_W@std@@V?$allocator@_W@2@@std@@ABV12@@Z 1002cde0 f   TR_Trace:nestedException.obj
 0001:0002bf50       ?EM_throwAssertFailed@@YGXPB_W0H@Z 1002cf50 f   TR_Trace:nestedException.obj
 0001:0002c050       ?EM_throwAssertFailed@@YGXPB_W0HJ@Z 1002d050 f   TR_Trace:nestedException.obj
 0001:0002c150       ?EM_throwAssertFailed@@YGXPB_W0HJJ@Z 1002d150 f   TR_Trace:nestedException.obj
 0001:0002c250       ?EM_throwPreconditionFailed@@YGXPB_W0H@Z 1002d250 f   TR_Trace:nestedException.obj
 0001:0002c350       ?EM_throwPreconditionFailed@@YGXPB_W0HJ@Z 1002d350 f   TR_Trace:nestedException.obj
 0001:0002c450       ?EM_throwPreconditionFailed@@YGXPB_W0HJJ@Z 1002d450 f   TR_Trace:nestedException.obj
 0001:0002c550       ?FormatEventArgument@@YAX_JAAV_bstr_t@@W4EM_FormatType@@@Z 1002d550 f   TR_Trace:nestedException.obj
 0001:0002c600       ?FormatEventArgument@@YAXJAAV_bstr_t@@W4EM_FormatType@@@Z 1002d600 f   TR_Trace:nestedException.obj
 0001:0002c6a0       ?FormatEventArgument@@YAXKAAV_bstr_t@@W4EM_FormatType@@@Z 1002d6a0 f   TR_Trace:nestedException.obj
 0001:0002c740       ?FormatEventArgument@@YAXFAAV_bstr_t@@W4EM_FormatType@@@Z 1002d740 f   TR_Trace:nestedException.obj
 0001:0002c760       ?FormatEventArgument@@YAXGAAV_bstr_t@@W4EM_FormatType@@@Z 1002d760 f   TR_Trace:nestedException.obj
 0001:0002c780       ?FormatEventArgument@@YAXHAAV_bstr_t@@W4EM_FormatType@@@Z 1002d780 f   TR_Trace:nestedException.obj
 0001:0002c7a0       ?FormatEventArgument@@YAXIAAV_bstr_t@@W4EM_FormatType@@@Z 1002d7a0 f   TR_Trace:nestedException.obj
 0001:0002c7c0       ?FormatEventArgument@@YAXMAAV_bstr_t@@@Z 1002d7c0 f   TR_Trace:nestedException.obj
 0001:0002c820       ?FormatEventArgument@@YAXNAAV_bstr_t@@@Z 1002d820 f   TR_Trace:nestedException.obj
 0001:0002c8d0       ?FormatEventArgument@@YAXDAAV_bstr_t@@W4EM_FormatType@@@Z 1002d8d0 f   TR_Trace:nestedException.obj
 0001:0002c8f0       ?FormatEventArgument@@YAXEAAV_bstr_t@@W4EM_FormatType@@@Z 1002d8f0 f   TR_Trace:nestedException.obj
 0001:0002c910       ?FormatEventArgument@@YAXV?$basic_string@_WU?$char_traits@_W@std@@V?$allocator@_W@2@@std@@AAV_bstr_t@@@Z 1002d910 f   TR_Trace:nestedException.obj
 0001:0002c9c0       ?FormatEventArgument@@YAXV?$basic_string@DU?$char_traits@D@std@@V?$allocator@D@2@@std@@AAV_bstr_t@@@Z 1002d9c0 f   TR_Trace:nestedException.obj
 0001:0002ca50       ?FormatEventArgument@@YAXPB_WAAV_bstr_t@@@Z 1002da50 f   TR_Trace:nestedException.obj
 0001:0002cad0       ?getLogParamsList@@YAXPBVEM_NestedException@@AAV?$list@PBUEM_LogParams@@V?$allocator@PBUEM_LogParams@@@std@@@std@@@Z 1002dad0 f   TR_Trace:nestedException.obj
 0001:0002cb30       ??$_Buynode@PBUEM_EventInfo@@@?$_List_buy@PBUEM_EventInfo@@V?$allocator@PBUEM_EventInfo@@@std@@@std@@QAEPAU?$_List_node@PBUEM_EventInfo@@PAX@1@PAU21@0$$QAPBUEM_EventInfo@@@Z 1002db30 f i TR_Trace:nestedException.obj
 0001:0002cbf0       ??$_Buynode@PBUEM_LogParams@@@?$_List_buy@PBUEM_LogParams@@V?$allocator@PBUEM_LogParams@@@std@@@std@@QAEPAU?$_List_node@PBUEM_LogParams@@PAX@1@PAU21@0$$QAPBUEM_LogParams@@@Z 1002dbf0 f i TR_Trace:nestedException.obj
 0001:0002ccb0       ??$_Insert@PBUEM_EventInfo@@@?$list@PBUEM_EventInfo@@V?$allocator@PBUEM_EventInfo@@@std@@@std@@QAEXV?$_List_unchecked_const_iterator@V?$_List_val@U?$_List_simple_types@PBUEM_EventInfo@@@std@@@std@@U_Iterator_base0@2@@1@$$QAPBUEM_EventInfo@@@Z 1002dcb0 f i TR_Trace:nestedException.obj
 0001:0002cd20       ??$_Insert@PBUEM_LogParams@@@?$list@PBUEM_LogParams@@V?$allocator@PBUEM_LogParams@@@std@@@std@@QAEXV?$_List_unchecked_const_iterator@V?$_List_val@U?$_List_simple_types@PBUEM_LogParams@@@std@@@std@@U_Iterator_base0@2@@1@$$QAPBUEM_LogParams@@@Z 1002dd20 f i TR_Trace:nestedException.obj
 0001:0002cd90       ??0?$_List_alloc@$0A@U?$_List_base_types@PBUEM_LogParams@@V?$allocator@PBUEM_LogParams@@@std@@@std@@@std@@QAE@ABV?$allocator@PBUEM_LogParams@@@1@@Z 1002dd90 f i TR_Trace:nestedException.obj
 0001:0002cdd0       ??0?$list@PBUEM_LogParams@@V?$allocator@PBUEM_LogParams@@@std@@@std@@QAE@XZ 1002ddd0 f i TR_Trace:nestedException.obj
 0001:0002ce40       ??0_bstr_t@@QAE@PB_W@Z     1002de40 f i TR_Trace:nestedException.obj
 0001:0002cf00       ??1?$_List_alloc@$0A@U?$_List_base_types@PBUEM_LogParams@@V?$allocator@PBUEM_LogParams@@@std@@@std@@@std@@QAE@XZ 1002df00 f i TR_Trace:nestedException.obj
 0001:0002cf30       ??1?$_List_buy@PBUEM_LogParams@@V?$allocator@PBUEM_LogParams@@@std@@@std@@QAE@XZ 1002df30 f i TR_Trace:nestedException.obj
 0001:0002cf80       ??1?$list@PBUEM_LogParams@@V?$allocator@PBUEM_LogParams@@@std@@@std@@QAE@XZ 1002df80 f i TR_Trace:nestedException.obj
 0001:0002cfe0       ??1EM_Event@@UAE@XZ        1002dfe0 f i TR_Trace:nestedException.obj
 0001:0002d000       ??1EM_LogParams@@QAE@XZ    1002e000 f i TR_Trace:nestedException.obj
 0001:0002d060       ??1_variant_t@@QAE@XZ      1002e060 f i TR_Trace:nestedException.obj
 0001:0002d080       ??4?$basic_string@_WU?$char_traits@_W@std@@V?$allocator@_W@2@@std@@QAEAAV01@ABV01@@Z 1002e080 f i TR_Trace:nestedException.obj
 0001:0002d0e0       ??4EM_LogParams@@QAEAAU0@ABU0@@Z 1002e0e0 f i TR_Trace:nestedException.obj
 0001:0002d150       ??4_bstr_t@@QAEAAV0@ABV0@@Z 1002e150 f i TR_Trace:nestedException.obj
 0001:0002d1b0       ??4_bstr_t@@QAEAAV0@ABV_variant_t@@@Z 1002e1b0 f i TR_Trace:nestedException.obj
 0001:0002d290       ??4_bstr_t@@QAEAAV0@PB_W@Z 1002e290 f i TR_Trace:nestedException.obj
 0001:0002d3a0       ??_EEM_NestedException@@UAEPAXI@Z 1002e3a0 f i TR_Trace:nestedException.obj
 0001:0002d3a0       ??_GEM_NestedException@@UAEPAXI@Z 1002e3a0 f i TR_Trace:nestedException.obj
 0001:0002d3d0       ?Copy@Data_t@_bstr_t@@QBEPA_WXZ 1002e3d0 f i TR_Trace:nestedException.obj
 0001:0002d420       ?_Assign_rv@?$basic_string@_WU?$char_traits@_W@std@@V?$allocator@_W@2@@std@@QAEX$$QAV12@@Z 1002e420 f i TR_Trace:nestedException.obj
 0001:0002d500       ?_Buynode0@?$_List_alloc@$0A@U?$_List_base_types@PBUEM_EventInfo@@V?$allocator@PBUEM_EventInfo@@@std@@@std@@@std@@QAEPAU?$_List_node@PBUEM_EventInfo@@PAX@2@PAU32@0@Z 1002e500 f i TR_Trace:nestedException.obj
 0001:0002d640       ?_Buynode0@?$_List_alloc@$0A@U?$_List_base_types@PBUEM_LogParams@@V?$allocator@PBUEM_LogParams@@@std@@@std@@@std@@QAEPAU?$_List_node@PBUEM_LogParams@@PAX@2@PAU32@0@Z 1002e640 f i TR_Trace:nestedException.obj
 0001:0002d780       ?clear@?$list@PBUEM_LogParams@@V?$allocator@PBUEM_LogParams@@@std@@@std@@QAEXXZ 1002e780 f i TR_Trace:nestedException.obj
 0001:0002d7f0       ??0EM_Event@@QAE@XZ        1002e7f0 f   TR_Trace:eventLog.obj
 0001:0002d810       ?ThrowFromList@EM_EventInfo@@SAXAAUEM_NestedExceptionData@@PAVEM_NestedException@@@Z 1002e810 f   TR_Trace:eventLog.obj
 0001:0002db20       ?Serialize@EM_LogParams@@QBEPADAAH@Z 1002eb20 f   TR_Trace:eventLog.obj
 0001:0002e180       ?EM_getEventInfoList@@YAAAV?$list@PBUEM_EventInfo@@V?$allocator@PBUEM_EventInfo@@@std@@@std@@XZ 1002f180 f   TR_Trace:eventLog.obj
 0001:0002e220       ??0EM_EventLog@@QAE@XZ     1002f220 f   TR_Trace:eventLog.obj
 0001:0002e290       ??1EM_EventLog@@QAE@XZ     1002f290 f   TR_Trace:eventLog.obj
 0001:0002e940       ?LogAdvisoryMessage@EM_EventLog@@QAE_NV?$basic_string@_WU?$char_traits@_W@std@@V?$allocator@_W@2@@std@@@Z 1002f940 f   TR_Trace:eventLog.obj
 0001:0002ea70       ?GetSeverityString@EM_EventLog@@SAPB_WW4EM_Severity@@@Z 1002fa70 f   TR_Trace:eventLog.obj
 0001:0002ead0       ?GetSeverityLevel@EM_EventLog@@SA?BW4EM_Severity@@PB_W@Z 1002fad0 f   TR_Trace:eventLog.obj
 0001:0002eb60       ?GetHeader@EM_EventLog@@SA?AV?$basic_string@_WU?$char_traits@_W@std@@V?$allocator@_W@2@@std@@W4EM_Severity@@JPB_W1_N@Z 1002fb60 f   TR_Trace:eventLog.obj
 0001:0002edc0       ?FormatEventMessage@EM_EventLog@@SA?AV?$basic_string@_WU?$char_traits@_W@std@@V?$allocator@_W@2@@std@@PB_WQBV_bstr_t@@H0W4EM_Severity@@J_N0033@Z 1002fdc0 f   TR_Trace:eventLog.obj
 0001:0002f080       ?SetAsGlobal@EM_EventLog@@QAEXXZ 10030080 f   TR_Trace:eventLog.obj
 0001:0002f0c0       ??0EM_FileEventLog@@QAE@AAV?$basic_ostream@_WU?$char_traits@_W@std@@@std@@V?$basic_string@_WU?$char_traits@_W@std@@V?$allocator@_W@2@@2@@Z 100300c0 f   TR_Trace:eventLog.obj
 0001:0002f140       ?Log@EM_FileEventLog@@UAE_NAAV?$list@PBUEM_LogParams@@V?$allocator@PBUEM_LogParams@@@std@@@std@@@Z 10030140 f   TR_Trace:eventLog.obj
 0001:0002f3e0       ??1EM_FileEventLog@@QAE@XZ 100303e0 f   TR_Trace:eventLog.obj
 0001:0002fa80       ??0EM_LocalEventLog@@QAE@PB_WAAKV?$basic_string@_WU?$char_traits@_W@std@@V?$allocator@_W@2@@std@@W4EventLogType@EM_NTEventLog@@@Z 10030a80 f   TR_Trace:eventLog.obj
 0001:0002fbb0       ??1EM_LocalEventLog@@QAE@XZ 10030bb0 f   TR_Trace:eventLog.obj
 0001:00030270       ?Log@EM_LocalEventLog@@UAE_NAAV?$list@PBUEM_LogParams@@V?$allocator@PBUEM_LogParams@@@std@@@std@@@Z 10031270 f   TR_Trace:eventLog.obj
 0001:000302a0       ?Log@EM_LocalEventLog@@UAE_NAAV?$list@PBUEM_LogParams@@V?$allocator@PBUEM_LogParams@@@std@@@std@@PA_W1@Z 100312a0 f   TR_Trace:eventLog.obj
 0001:00030680       ?UpdateEventTypeAndId@EM_LocalEventLog@@ABEXW4EM_Severity@@PAW4EventType@EM_NTEventLog@@PAW4CommonEventID@1@@Z 10031680 f   TR_Trace:eventLog.obj
 0001:00030710       ?EM_getEventLog@@YAAAVEM_EventLog@@XZ 10031710 f   TR_Trace:eventLog.obj
 0001:00030740       ?EM_setEventLog@@YAXAAVEM_EventLog@@@Z 10031740 f   TR_Trace:eventLog.obj
 0001:00030760       ?EM_GetLogPtr@@YAPAVEM_EventLog@@XZ 10031760 f   TR_Trace:eventLog.obj
 0001:00030770       ?EM_SetLogPtr@@YAXPAVEM_EventLog@@@Z 10031770 f   TR_Trace:eventLog.obj
 0001:00030790       ?initDefaultEventLog@@YAXXZ 10031790 f   TR_Trace:eventLog.obj
 0001:000309c0       ??0EM_WaitForDebuggerOnStartup@@QAE@XZ 100319c0 f   TR_Trace:eventLog.obj
 0001:000312c0       ??$?6_WU?$char_traits@_W@std@@@std@@YAAAV?$basic_ostream@_WU?$char_traits@_W@std@@@0@AAV10@PB_W@Z 100322c0 f i TR_Trace:eventLog.obj
 0001:00031620       ??$?6_WU?$char_traits@_W@std@@V?$allocator@_W@1@@std@@YAAAV?$basic_ostream@_WU?$char_traits@_W@std@@@0@AAV10@ABV?$basic_string@_WU?$char_traits@_W@std@@V?$allocator@_W@2@@0@@Z 10032620 f i TR_Trace:eventLog.obj
 0001:00031930       ??$?H_WU?$char_traits@_W@std@@V?$allocator@_W@1@@std@@YA?AV?$basic_string@_WU?$char_traits@_W@std@@V?$allocator@_W@2@@0@$$QAV10@ABV10@@Z 10032930 f i TR_Trace:eventLog.obj
 0001:000319c0       ??$?H_WU?$char_traits@_W@std@@V?$allocator@_W@1@@std@@YA?AV?$basic_string@_WU?$char_traits@_W@std@@V?$allocator@_W@2@@0@PB_WABV10@@Z 100329c0 f i TR_Trace:eventLog.obj
 0001:00031ae0       ??$assign@V?$_String_iterator@V?$_String_val@U?$_Simple_types@_W@std@@@std@@@std@@@?$basic_string@_WU?$char_traits@_W@std@@V?$allocator@_W@2@@std@@QAEAAV01@V?$_String_iterator@V?$_String_val@U?$_Simple_types@_W@std@@@std@@@1@0@Z 10032ae0 f i TR_Trace:eventLog.obj
 0001:00031b70       ??0EM_IRemoteException@@QAE@ABV0@@Z 10032b70 f i TR_Trace:eventLog.obj
 0001:00031bd0       ??0EM_IRemoteException@@QAE@V?$basic_string@_WU?$char_traits@_W@std@@V?$allocator@_W@2@@std@@00PBVEM_NestedException@@@Z 10032bd0 f i TR_Trace:eventLog.obj
 0001:00031d40       ??0_Sentry_base@?$basic_ostream@_WU?$char_traits@_W@std@@@std@@QAE@AAV12@@Z 10032d40 f i TR_Trace:eventLog.obj
 0001:00031da0       ??0sentry@?$basic_ostream@_WU?$char_traits@_W@std@@@std@@QAE@AAV12@@Z 10032da0 f i TR_Trace:eventLog.obj
 0001:00031e50       ??1?$_List_alloc@$0A@U?$_List_base_types@PBUEM_EventInfo@@V?$allocator@PBUEM_EventInfo@@@std@@@std@@@std@@QAE@XZ 10032e50 f i TR_Trace:eventLog.obj
 0001:00031e80       ??1?$_List_buy@PBUEM_EventInfo@@V?$allocator@PBUEM_EventInfo@@@std@@@std@@QAE@XZ 10032e80 f i TR_Trace:eventLog.obj
 0001:00031ed0       ??1EM_IRemoteException@@UAE@XZ 10032ed0 f i TR_Trace:eventLog.obj
 0001:00031f10       ??1_Sentry_base@?$basic_ostream@_WU?$char_traits@_W@std@@@std@@QAE@XZ 10032f10 f i TR_Trace:eventLog.obj
 0001:00031f70       ??1sentry@?$basic_ostream@_WU?$char_traits@_W@std@@@std@@QAE@XZ 10032f70 f i TR_Trace:eventLog.obj
 0001:00031fd0       ??4?$basic_string@_WU?$char_traits@_W@std@@V?$allocator@_W@2@@std@@QAEAAV01@$$QAV01@@Z 10032fd0 f i TR_Trace:eventLog.obj
 0001:000320b0       ??_EEM_IRemoteException@@UAEPAXI@Z 100330b0 f i TR_Trace:eventLog.obj
 0001:000320b0       ??_GEM_IRemoteException@@UAEPAXI@Z 100330b0 f i TR_Trace:eventLog.obj
 0001:00032110       ?GetId@EM_IRemoteException@@UBEJXZ 10033110 f i TR_Trace:eventLog.obj
 0001:00032160       ?assign@?$basic_string@_WU?$char_traits@_W@std@@V?$allocator@_W@2@@std@@QAEAAV12@$$QAV12@@Z 10033160 f i TR_Trace:eventLog.obj
 0001:000321d0       ?clear@?$list@PBUEM_EventInfo@@V?$allocator@PBUEM_EventInfo@@@std@@@std@@QAEXXZ 100331d0 f i TR_Trace:eventLog.obj
 0001:00032240       ?length@_bstr_t@@QBEIXZ    10033240 f i TR_Trace:eventLog.obj
 0001:00032290       ?replace@?$basic_string@_WU?$char_traits@_W@std@@V?$allocator@_W@2@@std@@QAEAAV12@IIABV12@II@Z 10033290 f i TR_Trace:eventLog.obj
 0001:00032a00       ?replace@?$basic_string@_WU?$char_traits@_W@std@@V?$allocator@_W@2@@std@@QAEAAV12@IIPB_WI@Z 10033a00 f i TR_Trace:eventLog.obj
 0001:00032c80       ?replace@?$basic_string@_WU?$char_traits@_W@std@@V?$allocator@_W@2@@std@@QAEAAV12@V?$_String_const_iterator@V?$_String_val@U?$_Simple_types@_W@std@@@std@@@2@0V?$_String_iterator@V?$_String_val@U?$_Simple_types@_W@std@@@std@@@2@1@Z 10033c80 f i TR_Trace:eventLog.obj
 0001:00032df0       ?reserve@?$basic_string@_WU?$char_traits@_W@std@@V?$allocator@_W@2@@std@@QAEXI@Z 10033df0 f i TR_Trace:eventLog.obj
 0001:00032e40       ??$?6U?$char_traits@D@std@@@std@@YAAAV?$basic_ostream@DU?$char_traits@D@std@@@0@AAV10@D@Z 10033e40 f i TR_Trace:stringConversion.obj
 0001:00033070       ??$forward@V?$basic_string@DU?$char_traits@D@std@@V?$allocator@D@2@@std@@@std@@YA$$QAV?$basic_string@DU?$char_traits@D@std@@V?$allocator@D@2@@0@AAV10@@Z 10034070 f i TR_Trace:stringConversion.obj
 0001:00033080       ??$forward@V?$basic_string@_WU?$char_traits@_W@std@@V?$allocator@_W@2@@std@@@std@@YA$$QAV?$basic_string@_WU?$char_traits@_W@std@@V?$allocator@_W@2@@0@AAV10@@Z 10034080 f i TR_Trace:stringConversion.obj
 0001:00033090       ??0?$basic_string@DU?$char_traits@D@std@@V?$allocator@D@2@@std@@QAE@$$QAV01@@Z 10034090 f i TR_Trace:stringConversion.obj
 0001:000330c0       ??0?$basic_string@_WU?$char_traits@_W@std@@V?$allocator@_W@2@@std@@QAE@$$QAV01@@Z 100340c0 f i TR_Trace:stringConversion.obj
 0001:000330f0       ??0_Sentry_base@?$basic_ostream@DU?$char_traits@D@std@@@std@@QAE@AAV12@@Z 100340f0 f i TR_Trace:stringConversion.obj
 0001:00033120       ??0sentry@?$basic_ostream@DU?$char_traits@D@std@@@std@@QAE@AAV12@@Z 10034120 f i TR_Trace:stringConversion.obj
 0001:000331b0       ??1_Sentry_base@?$basic_ostream@DU?$char_traits@D@std@@@std@@QAE@XZ 100341b0 f i TR_Trace:stringConversion.obj
 0001:000331d0       ??1sentry@?$basic_ostream@DU?$char_traits@D@std@@@std@@QAE@XZ 100341d0 f i TR_Trace:stringConversion.obj
 0001:00033240       ??6@YAAAV?$basic_ostream@DU?$char_traits@D@std@@@std@@AAV01@ABV?$basic_string@_WU?$char_traits@_W@std@@V?$allocator@_W@2@@1@@Z 10034240 f   TR_Trace:stringConversion.obj
 0001:00033280       ??6@YAAAV?$basic_ostream@DU?$char_traits@D@std@@@std@@AAV01@PB_W@Z 10034280 f   TR_Trace:stringConversion.obj
 0001:000332d0       ??A?$basic_string@DU?$char_traits@D@std@@V?$allocator@D@2@@std@@QBEABDI@Z 100342d0 f i TR_Trace:stringConversion.obj
 0001:000332f0       ??A?$basic_string@_WU?$char_traits@_W@std@@V?$allocator@_W@2@@std@@QBEAB_WI@Z 100342f0 f i TR_Trace:stringConversion.obj
 0001:00033310       ??Bsentry@?$basic_ostream@DU?$char_traits@D@std@@@std@@QBEPQ?$_Bool_struct@V?$basic_ostream@DU?$char_traits@D@std@@@std@@@2@HXZ 10034310 f i TR_Trace:stringConversion.obj
 0001:00033320       ??Y?$basic_string@DU?$char_traits@D@std@@V?$allocator@D@2@@std@@QAEAAV01@D@Z 10034320 f i TR_Trace:stringConversion.obj
 0001:00033340       ??Y?$basic_string@_WU?$char_traits@_W@std@@V?$allocator@_W@2@@std@@QAEAAV01@_W@Z 10034340 f i TR_Trace:stringConversion.obj
 0001:00033360       ?UTIL_PutWideChar@@YAXAAV?$basic_ostream@DU?$char_traits@D@std@@@std@@_W@Z 10034360 f   TR_Trace:stringConversion.obj
 0001:00033370       ?UTIL_StringToWstring@@YA?AV?$basic_string@_WU?$char_traits@_W@std@@V?$allocator@_W@2@@std@@ABV?$basic_string@DU?$char_traits@D@std@@V?$allocator@D@2@@2@@Z 10034370 f   TR_Trace:stringConversion.obj
 0001:000333d0       ?UTIL_WstringToString@@YA?AV?$basic_string@DU?$char_traits@D@std@@V?$allocator@D@2@@std@@ABV?$basic_string@_WU?$char_traits@_W@std@@V?$allocator@_W@2@@2@@Z 100343d0 f   TR_Trace:stringConversion.obj
 0001:00033430       ?UTIL_ebcdicstringToWstring@@YA?AV?$basic_string@_WU?$char_traits@_W@std@@V?$allocator@_W@2@@std@@PBDI@Z 10034430 f   TR_Trace:stringConversion.obj
 0001:00033500       ?UTIL_putWideChar@@YAXAAV?$basic_ostream@DU?$char_traits@D@std@@@std@@_W@Z 10034500 f   TR_Trace:stringConversion.obj
 0001:00033550       ?UTIL_stringToWstring@@YA?AV?$basic_string@_WU?$char_traits@_W@std@@V?$allocator@_W@2@@std@@ABV?$basic_string@DU?$char_traits@D@std@@V?$allocator@D@2@@2@@Z 10034550 f   TR_Trace:stringConversion.obj
 0001:00033610       ?UTIL_wstringToEBCDICstring@@YAKABV?$basic_string@_WU?$char_traits@_W@std@@V?$allocator@_W@2@@std@@PADAAI@Z 10034610 f   TR_Trace:stringConversion.obj
 0001:00033660       ?UTIL_wstringToString@@YA?AV?$basic_string@DU?$char_traits@D@std@@V?$allocator@D@2@@std@@ABV?$basic_string@_WU?$char_traits@_W@std@@V?$allocator@_W@2@@2@@Z 10034660 f   TR_Trace:stringConversion.obj
 0001:00033740       ?_Assign_rv@?$basic_string@DU?$char_traits@D@std@@V?$allocator@D@2@@std@@QAEX$$QAV12@@Z 10034740 f i TR_Trace:stringConversion.obj
 0001:000337e0       ?_Chassign@?$basic_string@DU?$char_traits@D@std@@V?$allocator@D@2@@std@@QAEXIID@Z 100347e0 f i TR_Trace:stringConversion.obj
 0001:00033830       ?_Chassign@?$basic_string@_WU?$char_traits@_W@std@@V?$allocator@_W@2@@std@@QAEXII_W@Z 10034830 f i TR_Trace:stringConversion.obj
 0001:00033890       ?append@?$basic_string@DU?$char_traits@D@std@@V?$allocator@D@2@@std@@QAEAAV12@ID@Z 10034890 f i TR_Trace:stringConversion.obj
 0001:00033940       ?append@?$basic_string@_WU?$char_traits@_W@std@@V?$allocator@_W@2@@std@@QAEAAV12@I_W@Z 10034940 f i TR_Trace:stringConversion.obj
 0001:00033a00       ?assign@?$char_traits@D@std@@SAPADPADID@Z 10034a00 f i TR_Trace:stringConversion.obj
 0001:00033a20       ?assign@?$char_traits@_W@std@@SAPA_WPA_WI_W@Z 10034a20 f i TR_Trace:stringConversion.obj
 0001:00033a50       ?eof@?$char_traits@D@std@@SAHXZ 10034a50 f i TR_Trace:stringConversion.obj
 0001:00033a60       ?eq_int_type@?$char_traits@D@std@@SA_NABH0@Z 10034a60 f i TR_Trace:stringConversion.obj
 0001:00033a80       ?length@?$basic_string@_WU?$char_traits@_W@std@@V?$allocator@_W@2@@std@@QBEIXZ 10034a80 f i TR_Trace:stringConversion.obj
 0001:00033a90       _wmemset                   10034a90 f i TR_Trace:stringConversion.obj
 0001:00033ac0       ?PrintErr@SE_Exception@@QAE?AV?$basic_string@_WU?$char_traits@_W@std@@V?$allocator@_W@2@@std@@XZ 10034ac0 f   TR_Trace:ExcTF.obj
 0001:00033c60       ?PrintSym@SE_Exception@@QAE?AV?$basic_string@_WU?$char_traits@_W@std@@V?$allocator@_W@2@@std@@KPAU_IMAGEHLP_SYMBOL@@PAKPAU_IMAGEHLP_MODULE@@PAU_IMAGEHLP_LINE@@1@Z 10034c60 f   TR_Trace:ExcTF.obj
 0001:00034070       ?DumpSym@SE_Exception@@QAE?AV?$basic_string@_WU?$char_traits@_W@std@@V?$allocator@_W@2@@std@@K@Z 10035070 f   TR_Trace:ExcTF.obj
 0001:000342e0       ?StackWalker@SE_Exception@@QAE?AV?$basic_string@_WU?$char_traits@_W@std@@V?$allocator@_W@2@@std@@XZ 100352e0 f   TR_Trace:ExcTF.obj
 0001:000347a0       ?GetFaultString@SE_Exception@@QAE?AV?$basic_string@_WU?$char_traits@_W@std@@V?$allocator@_W@2@@std@@XZ 100357a0 f   TR_Trace:ExcTF.obj
 0001:000351e0       ?GetInstance@Sym_Init@@SAAAV1@XZ 100361e0 f   TR_Trace:ExcTF.obj
 0001:00035690       ?TranslatorFunction@@YAXIPAU_EXCEPTION_POINTERS@@@Z 10036690 f   TR_Trace:ExcTF.obj
 0001:00035700       ??0Sym_Init@@QAE@XZ        10036700 f i TR_Trace:ExcTF.obj
 0001:00035960       ??$?0$$CBHH@?$pair@$$CBHH@std@@QAE@$$QAU01@PAPAX@Z 10036960 f i TR_Trace:trace.obj
 0001:00035980       ??$?0AAHAAH@?$pair@$$CBHH@std@@QAE@AAH0PAPAX@Z 10036980 f i TR_Trace:trace.obj
 0001:000359a0       ??$?0AAV?$_Tree_iterator@V?$_Tree_val@U?$_Tree_simple_types@U?$pair@$$CBHH@std@@@std@@@std@@@std@@_N@?$pair@V?$_Tree_iterator@V?$_Tree_val@U?$_Tree_simple_types@U?$pair@$$CBHH@std@@@std@@@std@@@std@@_N@std@@QAE@AAV?$_Tree_iterator@V?$_Tree_val@U?$_Tree_simple_types@U?$pair@$$CBHH@std@@@std@@@std@@@1@$$QA_NPAPAX@Z 100369a0 f i TR_Trace:trace.obj
 0001:000359c0       ??$?0U?$_List_node@HPAX@std@@@?$allocator@H@std@@QAE@ABV?$allocator@U?$_List_node@HPAX@std@@@1@@Z 100369c0 f i TR_Trace:trace.obj
 0001:000359d0       ??$?0U?$_List_node@PAVTR_Module@@PAX@std@@@?$allocator@PAVTR_Module@@@std@@QAE@ABV?$allocator@U?$_List_node@PAVTR_Module@@PAX@std@@@1@@Z 100369d0 f i TR_Trace:trace.obj
 0001:000359e0       ??$?0V?$_Tree_iterator@V?$_Tree_val@U?$_Tree_simple_types@U?$pair@$$CBHH@std@@@std@@@std@@@std@@_N@?$pair@V?$_Tree_iterator@V?$_Tree_val@U?$_Tree_simple_types@U?$pair@$$CBHH@std@@@std@@@std@@@std@@_N@std@@QAE@$$QAU01@PAPAX@Z 100369e0 f i TR_Trace:trace.obj
 0001:00035a00       ??$?0V?$_Tree_iterator@V?$_Tree_val@U?$_Tree_simple_types@U?$pair@$$CBHH@std@@@std@@@std@@@std@@_N@?$pair@V?$_Tree_iterator@V?$_Tree_val@U?$_Tree_simple_types@U?$pair@$$CBHH@std@@@std@@@std@@@std@@_N@std@@QAE@$$QAV?$_Tree_iterator@V?$_Tree_val@U?$_Tree_simple_types@U?$pair@$$CBHH@std@@@std@@@std@@@1@$$QA_NPAPAX@Z 10036a00 f i TR_Trace:trace.obj
 0001:00035a20       ??$?6_WU?$char_traits@_W@std@@@std@@YAAAV?$basic_ostream@_WU?$char_traits@_W@std@@@0@AAV10@D@Z 10036a20 f i TR_Trace:trace.obj
 0001:00035cc0       ??$?6_WU?$char_traits@_W@std@@@std@@YAAAV?$basic_ostream@_WU?$char_traits@_W@std@@@0@AAV10@_W@Z 10036cc0 f i TR_Trace:trace.obj
 0001:00035f00       ??$?8U?$_List_node@PAVTR_Module@@PAX@std@@U01@@std@@YA_NABV?$allocator@U?$_List_node@PAVTR_Module@@PAX@std@@@0@0@Z 10036f00 f i TR_Trace:trace.obj
 0001:00035f10       ??$?8V?$allocator@U?$_List_node@PAVTR_Module@@PAX@std@@@std@@V01@@std@@YA_NABU?$_Wrap_alloc@V?$allocator@U?$_List_node@PAVTR_Module@@PAX@std@@@std@@@0@0@Z 10036f10 f i TR_Trace:trace.obj
 0001:00035f20       ??$?8V?$allocator@_W@std@@V01@@std@@YA_NABU?$_Wrap_alloc@V?$allocator@_W@std@@@0@0@Z 10036f20 f i TR_Trace:trace.obj
 0001:00035f30       ??$?8_W_W@std@@YA_NABV?$allocator@_W@0@0@Z 10036f30 f i TR_Trace:trace.obj
 0001:00035f40       ??$?9V?$allocator@_W@std@@V01@@std@@YA_NABU?$_Wrap_alloc@V?$allocator@_W@std@@@0@0@Z 10036f40 f i TR_Trace:trace.obj
 0001:00035f50       ??$?H_WU?$char_traits@_W@std@@V?$allocator@_W@1@@std@@YA?AV?$basic_string@_WU?$char_traits@_W@std@@V?$allocator@_W@2@@0@ABV10@$$QAV10@@Z 10036f50 f i TR_Trace:trace.obj
 0001:00035fd0       ??$_Allocate@U?$_List_node@HPAX@std@@@std@@YAPAU?$_List_node@HPAX@0@IPAU10@@Z 10036fd0 f i TR_Trace:trace.obj
 0001:00036010       ??$_Allocate@U?$_List_node@PAVTR_Level@@PAX@std@@@std@@YAPAU?$_List_node@PAVTR_Level@@PAX@0@IPAU10@@Z 10037010 f i TR_Trace:trace.obj
 0001:00036050       ??$_Allocate@U?$_List_node@PAVTR_Module@@PAX@std@@@std@@YAPAU?$_List_node@PAVTR_Module@@PAX@0@IPAU10@@Z 10037050 f i TR_Trace:trace.obj
 0001:00036090       ??$_Allocate@U?$_Tree_node@U?$pair@$$CBHH@std@@PAX@std@@@std@@YAPAU?$_Tree_node@U?$pair@$$CBHH@std@@PAX@0@IPAU10@@Z 10037090 f i TR_Trace:trace.obj
 0001:000360d0       ??$_Buynode@ABH@?$_List_buy@HV?$allocator@H@std@@@std@@QAEPAU?$_List_node@HPAX@1@PAU21@0ABH@Z 100370d0 f i TR_Trace:trace.obj
 0001:00036160       ??$_Buynode@ABQAVTR_Level@@@?$_List_buy@PAVTR_Level@@V?$allocator@PAVTR_Level@@@std@@@std@@QAEPAU?$_List_node@PAVTR_Level@@PAX@1@PAU21@0ABQAVTR_Level@@@Z 10037160 f i TR_Trace:trace.obj
 0001:000361f0       ??$_Buynode@ABQAVTR_Module@@@?$_List_buy@PAVTR_Module@@V?$allocator@PAVTR_Module@@@std@@@std@@QAEPAU?$_List_node@PAVTR_Module@@PAX@1@PAU21@0ABQAVTR_Module@@@Z 100371f0 f i TR_Trace:trace.obj
 0001:00036280       ??$_Buynode@PAVTR_Module@@@?$_List_buy@PAVTR_Module@@V?$allocator@PAVTR_Module@@@std@@@std@@QAEPAU?$_List_node@PAVTR_Module@@PAX@1@PAU21@0$$QAPAVTR_Module@@@Z 10037280 f i TR_Trace:trace.obj
 0001:00036310       ??$_Buynode@U?$pair@$$CBHH@std@@@?$_Tree_buy@U?$pair@$$CBHH@std@@V?$allocator@U?$pair@$$CBHH@std@@@2@@std@@QAEPAU?$_Tree_node@U?$pair@$$CBHH@std@@PAX@1@$$QAU?$pair@$$CBHH@1@@Z 10037310 f i TR_Trace:trace.obj
 0001:000363a0       ??$_Buynode_if_nil@U?$pair@$$CBHH@std@@@?$_Tree@V?$_Tmap_traits@HHU?$less@H@std@@V?$allocator@U?$pair@$$CBHH@std@@@2@$0A@@std@@@std@@IAEPAU?$_Tree_node@U?$pair@$$CBHH@std@@PAX@1@U_Nil@1@$$QAU?$pair@$$CBHH@1@@Z 100373a0 f i TR_Trace:trace.obj
 0001:000363b0       ??$_Fgetc@D@std@@YA_NAADPAU_iobuf@@@Z 100373b0 f i TR_Trace:trace.obj
 0001:000363e0       ??$_Fgetc@_W@std@@YA_NAA_WPAU_iobuf@@@Z 100373e0 f i TR_Trace:trace.obj
 0001:00036410       ??$_Fputc@D@std@@YA_NDPAU_iobuf@@@Z 10037410 f i TR_Trace:trace.obj
 0001:00036430       ??$_Fputc@_W@std@@YA_N_WPAU_iobuf@@@Z 10037430 f i TR_Trace:trace.obj
 0001:00036460       ??$_Insert@ABH@?$list@HV?$allocator@H@std@@@std@@QAEXV?$_List_unchecked_const_iterator@V?$_List_val@U?$_List_simple_types@H@std@@@std@@U_Iterator_base0@2@@1@ABH@Z 10037460 f i TR_Trace:trace.obj
 0001:000364b0       ??$_Insert@ABQAVTR_Level@@@?$list@PAVTR_Level@@V?$allocator@PAVTR_Level@@@std@@@std@@QAEXV?$_List_unchecked_const_iterator@V?$_List_val@U?$_List_simple_types@PAVTR_Level@@@std@@@std@@U_Iterator_base0@2@@1@ABQAVTR_Level@@@Z 100374b0 f i TR_Trace:trace.obj
 0001:00036500       ??$_Insert@ABQAVTR_Module@@@?$list@PAVTR_Module@@V?$allocator@PAVTR_Module@@@std@@@std@@QAEXV?$_List_unchecked_const_iterator@V?$_List_val@U?$_List_simple_types@PAVTR_Module@@@std@@@std@@U_Iterator_base0@2@@1@ABQAVTR_Module@@@Z 10037500 f i TR_Trace:trace.obj
 0001:00036550       ??$_Insert@PAVTR_Module@@@?$list@PAVTR_Module@@V?$allocator@PAVTR_Module@@@std@@@std@@QAEXV?$_List_unchecked_const_iterator@V?$_List_val@U?$_List_simple_types@PAVTR_Module@@@std@@@std@@U_Iterator_base0@2@@1@$$QAPAVTR_Module@@@Z 10037550 f i TR_Trace:trace.obj
 0001:000365a0       ??$_Insert_at@U?$pair@$$CBHH@std@@U_Nil@2@@?$_Tree@V?$_Tmap_traits@HHU?$less@H@std@@V?$allocator@U?$pair@$$CBHH@std@@@2@$0A@@std@@@std@@IAE?AV?$_Tree_iterator@V?$_Tree_val@U?$_Tree_simple_types@U?$pair@$$CBHH@std@@@std@@@std@@@1@_NPAU?$_Tree_node@U?$pair@$$CBHH@std@@PAX@1@$$QAU?$pair@$$CBHH@1@U_Nil@1@@Z 100375a0 f i TR_Trace:trace.obj
 0001:000367a0       ??$_Insert_nohint@U?$pair@$$CBHH@std@@U_Nil@2@@?$_Tree@V?$_Tmap_traits@HHU?$less@H@std@@V?$allocator@U?$pair@$$CBHH@std@@@2@$0A@@std@@@std@@IAE?AU?$pair@V?$_Tree_iterator@V?$_Tree_val@U?$_Tree_simple_types@U?$pair@$$CBHH@std@@@std@@@std@@@std@@_N@1@_N$$QAU?$pair@$$CBHH@1@U_Nil@1@@Z 100377a0 f i TR_Trace:trace.obj
 0001:000368a0       ??$_Insert_range@V?$_List_const_iterator@V?$_List_val@U?$_List_simple_types@H@std@@@std@@@std@@@?$list@HV?$allocator@H@std@@@std@@QAEXV?$_List_unchecked_const_iterator@V?$_List_val@U?$_List_simple_types@H@std@@@std@@U_Iterator_base0@2@@1@V?$_List_const_iterator@V?$_List_val@U?$_List_simple_types@H@std@@@std@@@1@1Uforward_iterator_tag@1@@Z 100378a0 f i TR_Trace:trace.obj
 0001:00036950       ??$_Iter_cat@V?$_List_const_iterator@V?$_List_val@U?$_List_simple_types@H@std@@@std@@@std@@@std@@YA?AUbidirectional_iterator_tag@0@ABV?$_List_const_iterator@V?$_List_val@U?$_List_simple_types@H@std@@@std@@@0@@Z 10037950 f i TR_Trace:trace.obj
 0001:00036960       ??$_Kfn@$$CBHH@?$_Tmap_traits@HHU?$less@H@std@@V?$allocator@U?$pair@$$CBHH@std@@@2@$0A@@std@@SAABHABU?$pair@$$CBHH@1@@Z 10037960 f i TR_Trace:trace.obj
 0001:00036970       ??$_Move@AAD@std@@YA$$QADAAD@Z 10037970 f i TR_Trace:trace.obj
 0001:00036980       ??$_Move@AAI@std@@YA$$QAIAAI@Z 10037980 f i TR_Trace:trace.obj
 0001:00036990       ??$_Move@AAPAU?$_List_node@PAVTR_Module@@PAX@std@@@std@@YA$$QAPAU?$_List_node@PAVTR_Module@@PAX@0@AAPAU10@@Z 10037990 f i TR_Trace:trace.obj
 0001:000369a0       ??$_Swap_adl@PAU?$_List_node@PAVTR_Module@@PAX@std@@@std@@YAXAAPAU?$_List_node@PAVTR_Module@@PAX@0@0@Z 100379a0 f i TR_Trace:trace.obj
 0001:000369c0       ??$_Ungetc@D@std@@YA_NABDPAU_iobuf@@@Z 100379c0 f i TR_Trace:trace.obj
 0001:000369e0       ??$_Ungetc@_W@std@@YA_NAB_WPAU_iobuf@@@Z 100379e0 f i TR_Trace:trace.obj
 0001:00036a10       ??$addressof@H@std@@YAPAHAAH@Z 10037a10 f i TR_Trace:trace.obj
 0001:00036a20       ??$addressof@PAU?$_List_node@HPAX@std@@@std@@YAPAPAU?$_List_node@HPAX@0@AAPAU10@@Z 10037a20 f i TR_Trace:trace.obj
 0001:00036a30       ??$addressof@PAU?$_List_node@PAVTR_Level@@PAX@std@@@std@@YAPAPAU?$_List_node@PAVTR_Level@@PAX@0@AAPAU10@@Z 10037a30 f i TR_Trace:trace.obj
 0001:00036a40       ??$addressof@PAU?$_List_node@PAVTR_Module@@PAX@std@@@std@@YAPAPAU?$_List_node@PAVTR_Module@@PAX@0@AAPAU10@@Z 10037a40 f i TR_Trace:trace.obj
 0001:00036a50       ??$addressof@PAU?$_Tree_node@U?$pair@$$CBHH@std@@PAX@std@@@std@@YAPAPAU?$_Tree_node@U?$pair@$$CBHH@std@@PAX@0@AAPAU10@@Z 10037a50 f i TR_Trace:trace.obj
 0001:00036a60       ??$addressof@PAVTR_Level@@@std@@YAPAPAVTR_Level@@AAPAV1@@Z 10037a60 f i TR_Trace:trace.obj
 0001:00036a70       ??$addressof@PAVTR_Module@@@std@@YAPAPAVTR_Module@@AAPAV1@@Z 10037a70 f i TR_Trace:trace.obj
 0001:00036a80       ??$addressof@U?$pair@$$CBHH@std@@@std@@YAPAU?$pair@$$CBHH@0@AAU10@@Z 10037a80 f i TR_Trace:trace.obj
 0001:00036a90       ??$construct@HABH@?$_Wrap_alloc@V?$allocator@U?$_List_node@HPAX@std@@@std@@@std@@QAEXPAHABH@Z 10037a90 f i TR_Trace:trace.obj
 0001:00036af0       ??$construct@HABH@?$allocator@U?$_List_node@HPAX@std@@@std@@QAEXPAHABH@Z 10037af0 f i TR_Trace:trace.obj
 0001:00036b50       ??$construct@HABH@?$allocator_traits@V?$allocator@U?$_List_node@HPAX@std@@@std@@@std@@SAXAAV?$allocator@U?$_List_node@HPAX@std@@@1@PAHABH@Z 10037b50 f i TR_Trace:trace.obj
 0001:00036bb0       ??$construct@PAU?$_List_node@HPAX@std@@AAPAU12@@?$_Wrap_alloc@V?$allocator@U?$_List_node@HPAX@std@@@std@@@std@@QAEXPAPAU?$_List_node@HPAX@1@AAPAU21@@Z 10037bb0 f i TR_Trace:trace.obj
 0001:00036c10       ??$construct@PAU?$_List_node@HPAX@std@@AAPAU12@@?$allocator@U?$_List_node@HPAX@std@@@std@@QAEXPAPAU?$_List_node@HPAX@1@AAPAU21@@Z 10037c10 f i TR_Trace:trace.obj
 0001:00036c70       ??$construct@PAU?$_List_node@HPAX@std@@AAPAU12@@?$allocator_traits@V?$allocator@U?$_List_node@HPAX@std@@@std@@@std@@SAXAAV?$allocator@U?$_List_node@HPAX@std@@@1@PAPAU?$_List_node@HPAX@1@AAPAU31@@Z 10037c70 f i TR_Trace:trace.obj
 0001:00036cd0       ??$construct@PAU?$_List_node@PAVTR_Level@@PAX@std@@AAPAU12@@?$_Wrap_alloc@V?$allocator@U?$_List_node@PAVTR_Level@@PAX@std@@@std@@@std@@QAEXPAPAU?$_List_node@PAVTR_Level@@PAX@1@AAPAU21@@Z 10037cd0 f i TR_Trace:trace.obj
 0001:00036d30       ??$construct@PAU?$_List_node@PAVTR_Level@@PAX@std@@AAPAU12@@?$allocator@U?$_List_node@PAVTR_Level@@PAX@std@@@std@@QAEXPAPAU?$_List_node@PAVTR_Level@@PAX@1@AAPAU21@@Z 10037d30 f i TR_Trace:trace.obj
 0001:00036d90       ??$construct@PAU?$_List_node@PAVTR_Level@@PAX@std@@AAPAU12@@?$allocator_traits@V?$allocator@U?$_List_node@PAVTR_Level@@PAX@std@@@std@@@std@@SAXAAV?$allocator@U?$_List_node@PAVTR_Level@@PAX@std@@@1@PAPAU?$_List_node@PAVTR_Level@@PAX@1@AAPAU31@@Z 10037d90 f i TR_Trace:trace.obj
 0001:00036df0       ??$construct@PAU?$_List_node@PAVTR_Module@@PAX@std@@AAPAU12@@?$_Wrap_alloc@V?$allocator@U?$_List_node@PAVTR_Module@@PAX@std@@@std@@@std@@QAEXPAPAU?$_List_node@PAVTR_Module@@PAX@1@AAPAU21@@Z 10037df0 f i TR_Trace:trace.obj
 0001:00036e50       ??$construct@PAU?$_List_node@PAVTR_Module@@PAX@std@@AAPAU12@@?$allocator@U?$_List_node@PAVTR_Module@@PAX@std@@@std@@QAEXPAPAU?$_List_node@PAVTR_Module@@PAX@1@AAPAU21@@Z 10037e50 f i TR_Trace:trace.obj
 0001:00036eb0       ??$construct@PAU?$_List_node@PAVTR_Module@@PAX@std@@AAPAU12@@?$allocator_traits@V?$allocator@U?$_List_node@PAVTR_Module@@PAX@std@@@std@@@std@@SAXAAV?$allocator@U?$_List_node@PAVTR_Module@@PAX@std@@@1@PAPAU?$_List_node@PAVTR_Module@@PAX@1@AAPAU31@@Z 10037eb0 f i TR_Trace:trace.obj
 0001:00036f10       ??$construct@PAU?$_Tree_node@U?$pair@$$CBHH@std@@PAX@std@@AAPAU12@@?$_Wrap_alloc@V?$allocator@U?$_Tree_node@U?$pair@$$CBHH@std@@PAX@std@@@std@@@std@@QAEXPAPAU?$_Tree_node@U?$pair@$$CBHH@std@@PAX@1@AAPAU21@@Z 10037f10 f i TR_Trace:trace.obj
 0001:00036f70       ??$construct@PAU?$_Tree_node@U?$pair@$$CBHH@std@@PAX@std@@AAPAU12@@?$allocator@U?$_Tree_node@U?$pair@$$CBHH@std@@PAX@std@@@std@@QAEXPAPAU?$_Tree_node@U?$pair@$$CBHH@std@@PAX@1@AAPAU21@@Z 10037f70 f i TR_Trace:trace.obj
 0001:00036fd0       ??$construct@PAU?$_Tree_node@U?$pair@$$CBHH@std@@PAX@std@@AAPAU12@@?$allocator_traits@V?$allocator@U?$_Tree_node@U?$pair@$$CBHH@std@@PAX@std@@@std@@@std@@SAXAAV?$allocator@U?$_Tree_node@U?$pair@$$CBHH@std@@PAX@std@@@1@PAPAU?$_Tree_node@U?$pair@$$CBHH@std@@PAX@1@AAPAU31@@Z 10037fd0 f i TR_Trace:trace.obj
 0001:00037030       ??$construct@PAVTR_Level@@ABQAV1@@?$_Wrap_alloc@V?$allocator@U?$_List_node@PAVTR_Level@@PAX@std@@@std@@@std@@QAEXPAPAVTR_Level@@ABQAV2@@Z 10038030 f i TR_Trace:trace.obj
 0001:00037090       ??$construct@PAVTR_Level@@ABQAV1@@?$allocator@U?$_List_node@PAVTR_Level@@PAX@std@@@std@@QAEXPAPAVTR_Level@@ABQAV2@@Z 10038090 f i TR_Trace:trace.obj
 0001:000370f0       ??$construct@PAVTR_Level@@ABQAV1@@?$allocator_traits@V?$allocator@U?$_List_node@PAVTR_Level@@PAX@std@@@std@@@std@@SAXAAV?$allocator@U?$_List_node@PAVTR_Level@@PAX@std@@@1@PAPAVTR_Level@@ABQAV3@@Z 100380f0 f i TR_Trace:trace.obj
 0001:00037150       ??$construct@PAVTR_Module@@ABQAV1@@?$_Wrap_alloc@V?$allocator@U?$_List_node@PAVTR_Module@@PAX@std@@@std@@@std@@QAEXPAPAVTR_Module@@ABQAV2@@Z 10038150 f i TR_Trace:trace.obj
 0001:000371b0       ??$construct@PAVTR_Module@@ABQAV1@@?$allocator@U?$_List_node@PAVTR_Module@@PAX@std@@@std@@QAEXPAPAVTR_Module@@ABQAV2@@Z 100381b0 f i TR_Trace:trace.obj
 0001:00037210       ??$construct@PAVTR_Module@@ABQAV1@@?$allocator_traits@V?$allocator@U?$_List_node@PAVTR_Module@@PAX@std@@@std@@@std@@SAXAAV?$allocator@U?$_List_node@PAVTR_Module@@PAX@std@@@1@PAPAVTR_Module@@ABQAV3@@Z 10038210 f i TR_Trace:trace.obj
 0001:00037270       ??$construct@PAVTR_Module@@PAV1@@?$_Wrap_alloc@V?$allocator@U?$_List_node@PAVTR_Module@@PAX@std@@@std@@@std@@QAEXPAPAVTR_Module@@$$QAPAV2@@Z 10038270 f i TR_Trace:trace.obj
 0001:000372d0       ??$construct@PAVTR_Module@@PAV1@@?$allocator@U?$_List_node@PAVTR_Module@@PAX@std@@@std@@QAEXPAPAVTR_Module@@$$QAPAV2@@Z 100382d0 f i TR_Trace:trace.obj
 0001:00037330       ??$construct@PAVTR_Module@@PAV1@@?$allocator_traits@V?$allocator@U?$_List_node@PAVTR_Module@@PAX@std@@@std@@@std@@SAXAAV?$allocator@U?$_List_node@PAVTR_Module@@PAX@std@@@1@PAPAVTR_Module@@$$QAPAV3@@Z 10038330 f i TR_Trace:trace.obj
 0001:00037390       ??$construct@U?$pair@$$CBHH@std@@U12@@?$_Wrap_alloc@V?$allocator@U?$_Tree_node@U?$pair@$$CBHH@std@@PAX@std@@@std@@@std@@QAEXPAU?$pair@$$CBHH@1@$$QAU21@@Z 10038390 f i TR_Trace:trace.obj
 0001:000373f0       ??$construct@U?$pair@$$CBHH@std@@U12@@?$allocator@U?$_Tree_node@U?$pair@$$CBHH@std@@PAX@std@@@std@@QAEXPAU?$pair@$$CBHH@1@$$QAU21@@Z 100383f0 f i TR_Trace:trace.obj
 0001:00037450       ??$construct@U?$pair@$$CBHH@std@@U12@@?$allocator_traits@V?$allocator@U?$_Tree_node@U?$pair@$$CBHH@std@@PAX@std@@@std@@@std@@SAXAAV?$allocator@U?$_Tree_node@U?$pair@$$CBHH@std@@PAX@std@@@1@PAU?$pair@$$CBHH@1@$$QAU31@@Z 10038450 f i TR_Trace:trace.obj
 0001:000374b0       ??$destroy@H@?$_Wrap_alloc@V?$allocator@U?$_List_node@HPAX@std@@@std@@@std@@QAEXPAH@Z 100384b0 f i TR_Trace:trace.obj
 0001:000374c0       ??$destroy@H@?$allocator@U?$_List_node@HPAX@std@@@std@@QAEXPAH@Z 100384c0 f i TR_Trace:trace.obj
 0001:000374d0       ??$destroy@H@?$allocator_traits@V?$allocator@U?$_List_node@HPAX@std@@@std@@@std@@SAXAAV?$allocator@U?$_List_node@HPAX@std@@@1@PAH@Z 100384d0 f i TR_Trace:trace.obj
 0001:000374e0       ??$destroy@PAU?$_List_node@HPAX@std@@@?$_Wrap_alloc@V?$allocator@U?$_List_node@HPAX@std@@@std@@@std@@QAEXPAPAU?$_List_node@HPAX@1@@Z 100384e0 f i TR_Trace:trace.obj
 0001:000374f0       ??$destroy@PAU?$_List_node@HPAX@std@@@?$allocator@U?$_List_node@HPAX@std@@@std@@QAEXPAPAU?$_List_node@HPAX@1@@Z 100384f0 f i TR_Trace:trace.obj
 0001:00037500       ??$destroy@PAU?$_List_node@HPAX@std@@@?$allocator_traits@V?$allocator@U?$_List_node@HPAX@std@@@std@@@std@@SAXAAV?$allocator@U?$_List_node@HPAX@std@@@1@PAPAU?$_List_node@HPAX@1@@Z 10038500 f i TR_Trace:trace.obj
 0001:00037510       ??$destroy@PAU?$_List_node@PAVTR_Level@@PAX@std@@@?$_Wrap_alloc@V?$allocator@U?$_List_node@PAVTR_Level@@PAX@std@@@std@@@std@@QAEXPAPAU?$_List_node@PAVTR_Level@@PAX@1@@Z 10038510 f i TR_Trace:trace.obj
 0001:00037520       ??$destroy@PAU?$_List_node@PAVTR_Level@@PAX@std@@@?$allocator@U?$_List_node@PAVTR_Level@@PAX@std@@@std@@QAEXPAPAU?$_List_node@PAVTR_Level@@PAX@1@@Z 10038520 f i TR_Trace:trace.obj
 0001:00037530       ??$destroy@PAU?$_List_node@PAVTR_Level@@PAX@std@@@?$allocator_traits@V?$allocator@U?$_List_node@PAVTR_Level@@PAX@std@@@std@@@std@@SAXAAV?$allocator@U?$_List_node@PAVTR_Level@@PAX@std@@@1@PAPAU?$_List_node@PAVTR_Level@@PAX@1@@Z 10038530 f i TR_Trace:trace.obj
 0001:00037540       ??$destroy@PAU?$_List_node@PAVTR_Module@@PAX@std@@@?$_Wrap_alloc@V?$allocator@U?$_List_node@PAVTR_Module@@PAX@std@@@std@@@std@@QAEXPAPAU?$_List_node@PAVTR_Module@@PAX@1@@Z 10038540 f i TR_Trace:trace.obj
 0001:00037550       ??$destroy@PAU?$_List_node@PAVTR_Module@@PAX@std@@@?$allocator@U?$_List_node@PAVTR_Module@@PAX@std@@@std@@QAEXPAPAU?$_List_node@PAVTR_Module@@PAX@1@@Z 10038550 f i TR_Trace:trace.obj
 0001:00037560       ??$destroy@PAU?$_List_node@PAVTR_Module@@PAX@std@@@?$allocator_traits@V?$allocator@U?$_List_node@PAVTR_Module@@PAX@std@@@std@@@std@@SAXAAV?$allocator@U?$_List_node@PAVTR_Module@@PAX@std@@@1@PAPAU?$_List_node@PAVTR_Module@@PAX@1@@Z 10038560 f i TR_Trace:trace.obj
 0001:00037570       ??$destroy@PAU?$_Tree_node@U?$pair@$$CBHH@std@@PAX@std@@@?$_Wrap_alloc@V?$allocator@U?$_Tree_node@U?$pair@$$CBHH@std@@PAX@std@@@std@@@std@@QAEXPAPAU?$_Tree_node@U?$pair@$$CBHH@std@@PAX@1@@Z 10038570 f i TR_Trace:trace.obj
 0001:00037580       ??$destroy@PAU?$_Tree_node@U?$pair@$$CBHH@std@@PAX@std@@@?$allocator@U?$_Tree_node@U?$pair@$$CBHH@std@@PAX@std@@@std@@QAEXPAPAU?$_Tree_node@U?$pair@$$CBHH@std@@PAX@1@@Z 10038580 f i TR_Trace:trace.obj
 0001:00037590       ??$destroy@PAU?$_Tree_node@U?$pair@$$CBHH@std@@PAX@std@@@?$allocator_traits@V?$allocator@U?$_Tree_node@U?$pair@$$CBHH@std@@PAX@std@@@std@@@std@@SAXAAV?$allocator@U?$_Tree_node@U?$pair@$$CBHH@std@@PAX@std@@@1@PAPAU?$_Tree_node@U?$pair@$$CBHH@std@@PAX@1@@Z 10038590 f i TR_Trace:trace.obj
 0001:000375a0       ??$destroy@PAVTR_Level@@@?$_Wrap_alloc@V?$allocator@U?$_List_node@PAVTR_Level@@PAX@std@@@std@@@std@@QAEXPAPAVTR_Level@@@Z 100385a0 f i TR_Trace:trace.obj
 0001:000375b0       ??$destroy@PAVTR_Level@@@?$allocator@U?$_List_node@PAVTR_Level@@PAX@std@@@std@@QAEXPAPAVTR_Level@@@Z 100385b0 f i TR_Trace:trace.obj
 0001:000375c0       ??$destroy@PAVTR_Level@@@?$allocator_traits@V?$allocator@U?$_List_node@PAVTR_Level@@PAX@std@@@std@@@std@@SAXAAV?$allocator@U?$_List_node@PAVTR_Level@@PAX@std@@@1@PAPAVTR_Level@@@Z 100385c0 f i TR_Trace:trace.obj
 0001:000375d0       ??$destroy@PAVTR_Module@@@?$_Wrap_alloc@V?$allocator@U?$_List_node@PAVTR_Module@@PAX@std@@@std@@@std@@QAEXPAPAVTR_Module@@@Z 100385d0 f i TR_Trace:trace.obj
 0001:000375e0       ??$destroy@PAVTR_Module@@@?$allocator@U?$_List_node@PAVTR_Module@@PAX@std@@@std@@QAEXPAPAVTR_Module@@@Z 100385e0 f i TR_Trace:trace.obj
 0001:000375f0       ??$destroy@PAVTR_Module@@@?$allocator_traits@V?$allocator@U?$_List_node@PAVTR_Module@@PAX@std@@@std@@@std@@SAXAAV?$allocator@U?$_List_node@PAVTR_Module@@PAX@std@@@1@PAPAVTR_Module@@@Z 100385f0 f i TR_Trace:trace.obj
 0001:00037600       ??$destroy@U?$pair@$$CBHH@std@@@?$_Wrap_alloc@V?$allocator@U?$_Tree_node@U?$pair@$$CBHH@std@@PAX@std@@@std@@@std@@QAEXPAU?$pair@$$CBHH@1@@Z 10038600 f i TR_Trace:trace.obj
 0001:00037610       ??$destroy@U?$pair@$$CBHH@std@@@?$allocator@U?$_Tree_node@U?$pair@$$CBHH@std@@PAX@std@@@std@@QAEXPAU?$pair@$$CBHH@1@@Z 10038610 f i TR_Trace:trace.obj
 0001:00037620       ??$destroy@U?$pair@$$CBHH@std@@@?$allocator_traits@V?$allocator@U?$_Tree_node@U?$pair@$$CBHH@std@@PAX@std@@@std@@@std@@SAXAAV?$allocator@U?$_Tree_node@U?$pair@$$CBHH@std@@PAX@std@@@1@PAU?$pair@$$CBHH@1@@Z 10038620 f i TR_Trace:trace.obj
 0001:00037630       ??$emplace@PAVTR_Module@@@?$list@PAVTR_Module@@V?$allocator@PAVTR_Module@@@std@@@std@@QAE?AV?$_List_iterator@V?$_List_val@U?$_List_simple_types@PAVTR_Module@@@std@@@std@@@1@V?$_List_const_iterator@V?$_List_val@U?$_List_simple_types@PAVTR_Module@@@std@@@std@@@1@$$QAPAVTR_Module@@@Z 10038630 f i TR_Trace:trace.obj
 0001:00037680       ??$forward@$$CBH@std@@YA$$QBHABH@Z 10038680 f i TR_Trace:trace.obj
 0001:00037690       ??$forward@AAH@std@@YAAAHAAH@Z 10038690 f i TR_Trace:trace.obj
 0001:000376a0       ??$forward@AAPAU?$_List_node@HPAX@std@@@std@@YAAAPAU?$_List_node@HPAX@0@AAPAU10@@Z 100386a0 f i TR_Trace:trace.obj
 0001:000376b0       ??$forward@AAPAU?$_List_node@PAVTR_Level@@PAX@std@@@std@@YAAAPAU?$_List_node@PAVTR_Level@@PAX@0@AAPAU10@@Z 100386b0 f i TR_Trace:trace.obj
 0001:000376c0       ??$forward@AAPAU?$_List_node@PAVTR_Module@@PAX@std@@@std@@YAAAPAU?$_List_node@PAVTR_Module@@PAX@0@AAPAU10@@Z 100386c0 f i TR_Trace:trace.obj
 0001:000376d0       ??$forward@AAPAU?$_Tree_node@U?$pair@$$CBHH@std@@PAX@std@@@std@@YAAAPAU?$_Tree_node@U?$pair@$$CBHH@std@@PAX@0@AAPAU10@@Z 100386d0 f i TR_Trace:trace.obj
 0001:000376e0       ??$forward@AAV?$_Tree_iterator@V?$_Tree_val@U?$_Tree_simple_types@U?$pair@$$CBHH@std@@@std@@@std@@@std@@@std@@YAAAV?$_Tree_iterator@V?$_Tree_val@U?$_Tree_simple_types@U?$pair@$$CBHH@std@@@std@@@std@@@0@AAV10@@Z 100386e0 f i TR_Trace:trace.obj
 0001:000376f0       ??$forward@ABH@std@@YAABHABH@Z 100386f0 f i TR_Trace:trace.obj
 0001:00037700       ??$forward@ABQAVTR_Level@@@std@@YAABQAVTR_Level@@ABQAV1@@Z 10038700 f i TR_Trace:trace.obj
 0001:00037710       ??$forward@ABQAVTR_Module@@@std@@YAABQAVTR_Module@@ABQAV1@@Z 10038710 f i TR_Trace:trace.obj
 0001:00037720       ??$forward@H@std@@YA$$QAHAAH@Z 10038720 f i TR_Trace:trace.obj
 0001:00037730       ??$forward@PAVTR_Module@@@std@@YA$$QAPAVTR_Module@@AAPAV1@@Z 10038730 f i TR_Trace:trace.obj
 0001:00037740       ??$forward@U?$pair@$$CBHH@std@@@std@@YA$$QAU?$pair@$$CBHH@0@AAU10@@Z 10038740 f i TR_Trace:trace.obj
 0001:00037750       ??$forward@V?$_Tree_iterator@V?$_Tree_val@U?$_Tree_simple_types@U?$pair@$$CBHH@std@@@std@@@std@@@std@@@std@@YA$$QAV?$_Tree_iterator@V?$_Tree_val@U?$_Tree_simple_types@U?$pair@$$CBHH@std@@@std@@@std@@@0@AAV10@@Z 10038750 f i TR_Trace:trace.obj
 0001:00037760       ??$forward@_N@std@@YA$$QA_NAA_N@Z 10038760 f i TR_Trace:trace.obj
 0001:00037770       ??$insert@V?$_List_const_iterator@V?$_List_val@U?$_List_simple_types@H@std@@@std@@@std@@@?$list@HV?$allocator@H@std@@@std@@QAE?AV?$_List_iterator@V?$_List_val@U?$_List_simple_types@H@std@@@std@@@1@V?$_List_const_iterator@V?$_List_val@U?$_List_simple_types@H@std@@@std@@@1@00@Z 10038770 f i TR_Trace:trace.obj
 0001:000377c0       ??$merge@P6A_NPAVTR_Module@@0@Z@?$list@PAVTR_Module@@V?$allocator@PAVTR_Module@@@std@@@std@@QAEXAAV01@P6A_NPAVTR_Module@@1@Z@Z 100387c0 f i TR_Trace:trace.obj
 0001:00037850       ??$move@AAV?$basic_string@_WU?$char_traits@_W@std@@V?$allocator@_W@2@@std@@@std@@YA$$QAV?$basic_string@_WU?$char_traits@_W@std@@V?$allocator@_W@2@@0@AAV10@@Z 10038850 f i TR_Trace:trace.obj
 0001:00037860       ??$sort@P6A_NPAVTR_Module@@0@Z@?$list@PAVTR_Module@@V?$allocator@PAVTR_Module@@@std@@@std@@QAEXP6A_NPAVTR_Module@@0@Z@Z 10038860 f i TR_Trace:trace.obj
 0001:00037bb0       ??$swap@D@std@@YAXAAD0@Z   10038bb0 f i TR_Trace:trace.obj
 0001:00037bd0       ??$swap@I@std@@YAXAAI0@Z   10038bd0 f i TR_Trace:trace.obj
 0001:00037bf0       ??$swap@PAU?$_List_node@PAVTR_Module@@PAX@std@@@std@@YAXAAPAU?$_List_node@PAVTR_Module@@PAX@0@0@Z 10038bf0 f i TR_Trace:trace.obj
 0001:00037c10       ??$use_facet@V?$codecvt@DDH@std@@@std@@YAABV?$codecvt@DDH@0@ABVlocale@0@@Z 10038c10 f i TR_Trace:trace.obj
 0001:00037d10       ??$use_facet@V?$codecvt@_WDH@std@@@std@@YAABV?$codecvt@_WDH@0@ABVlocale@0@@Z 10038d10 f i TR_Trace:trace.obj
 0001:00037e10       ??$use_facet@V?$ctype@_W@std@@@std@@YAABV?$ctype@_W@0@ABVlocale@0@@Z 10038e10 f i TR_Trace:trace.obj
 0001:00037f10       ??0?$_List_alloc@$0A@U?$_List_base_types@HV?$allocator@H@std@@@std@@@std@@QAE@ABV?$allocator@H@1@@Z 10038f10 f i TR_Trace:trace.obj
 0001:00037f40       ??0?$_List_alloc@$0A@U?$_List_base_types@PAVTR_Level@@V?$allocator@PAVTR_Level@@@std@@@std@@@std@@QAE@ABV?$allocator@PAVTR_Level@@@1@@Z 10038f40 f i TR_Trace:trace.obj
 0001:00037f70       ??0?$_List_alloc@$0A@U?$_List_base_types@PAVTR_Module@@V?$allocator@PAVTR_Module@@@std@@@std@@@std@@QAE@ABV?$allocator@PAVTR_Module@@@1@@Z 10038f70 f i TR_Trace:trace.obj
 0001:00037fa0       ??0?$_List_buy@HV?$allocator@H@std@@@std@@QAE@ABV?$allocator@H@1@@Z 10038fa0 f i TR_Trace:trace.obj
 0001:00038000       ??0?$_List_buy@PAVTR_Level@@V?$allocator@PAVTR_Level@@@std@@@std@@QAE@ABV?$allocator@PAVTR_Level@@@1@@Z 10039000 f i TR_Trace:trace.obj
 0001:00038060       ??0?$_List_buy@PAVTR_Module@@V?$allocator@PAVTR_Module@@@std@@@std@@QAE@ABV?$allocator@PAVTR_Module@@@1@@Z 10039060 f i TR_Trace:trace.obj
 0001:000380c0       ??0?$_List_const_iterator@V?$_List_val@U?$_List_simple_types@H@std@@@std@@@std@@QAE@PAU?$_List_node@HPAX@1@PBV?$_List_val@U?$_List_simple_types@H@std@@@1@@Z 100390c0 f i TR_Trace:trace.obj
 0001:000380d0       ??0?$_List_const_iterator@V?$_List_val@U?$_List_simple_types@PAVTR_Level@@@std@@@std@@@std@@QAE@PAU?$_List_node@PAVTR_Level@@PAX@1@PBV?$_List_val@U?$_List_simple_types@PAVTR_Level@@@std@@@1@@Z 100390d0 f i TR_Trace:trace.obj
 0001:000380e0       ??0?$_List_const_iterator@V?$_List_val@U?$_List_simple_types@PAVTR_Module@@@std@@@std@@@std@@QAE@PAU?$_List_node@PAVTR_Module@@PAX@1@PBV?$_List_val@U?$_List_simple_types@PAVTR_Module@@@std@@@1@@Z 100390e0 f i TR_Trace:trace.obj
 0001:000380f0       ??0?$_List_iterator@V?$_List_val@U?$_List_simple_types@H@std@@@std@@@std@@QAE@PAU?$_List_node@HPAX@1@PBV?$_List_val@U?$_List_simple_types@H@std@@@1@@Z 100390f0 f i TR_Trace:trace.obj
 0001:00038100       ??0?$_List_iterator@V?$_List_val@U?$_List_simple_types@PAVTR_Level@@@std@@@std@@@std@@QAE@PAU?$_List_node@PAVTR_Level@@PAX@1@PBV?$_List_val@U?$_List_simple_types@PAVTR_Level@@@std@@@1@@Z 10039100 f i TR_Trace:trace.obj
 0001:00038110       ??0?$_List_iterator@V?$_List_val@U?$_List_simple_types@PAVTR_Module@@@std@@@std@@@std@@QAE@PAU?$_List_node@PAVTR_Module@@PAX@1@PBV?$_List_val@U?$_List_simple_types@PAVTR_Module@@@std@@@1@@Z 10039110 f i TR_Trace:trace.obj
 0001:00038120       ??0?$_List_unchecked_const_iterator@V?$_List_val@U?$_List_simple_types@H@std@@@std@@U_Iterator_base0@2@@std@@QAE@PAU?$_List_node@HPAX@1@PBV?$_List_val@U?$_List_simple_types@H@std@@@1@@Z 10039120 f i TR_Trace:trace.obj
 0001:00038130       ??0?$_List_unchecked_const_iterator@V?$_List_val@U?$_List_simple_types@PAVTR_Level@@@std@@@std@@U_Iterator_base0@2@@std@@QAE@PAU?$_List_node@PAVTR_Level@@PAX@1@PBV?$_List_val@U?$_List_simple_types@PAVTR_Level@@@std@@@1@@Z 10039130 f i TR_Trace:trace.obj
 0001:00038140       ??0?$_List_unchecked_const_iterator@V?$_List_val@U?$_List_simple_types@PAVTR_Module@@@std@@@std@@U_Iterator_base0@2@@std@@QAE@PAU?$_List_node@PAVTR_Module@@PAX@1@PBV?$_List_val@U?$_List_simple_types@PAVTR_Module@@@std@@@1@@Z 10039140 f i TR_Trace:trace.obj
 0001:00038150       ??0?$_List_unchecked_iterator@V?$_List_val@U?$_List_simple_types@H@std@@@std@@@std@@QAE@PAU?$_List_node@HPAX@1@PBV?$_List_val@U?$_List_simple_types@H@std@@@1@@Z 10039150 f i TR_Trace:trace.obj
 0001:00038160       ??0?$_List_unchecked_iterator@V?$_List_val@U?$_List_simple_types@PAVTR_Level@@@std@@@std@@@std@@QAE@PAU?$_List_node@PAVTR_Level@@PAX@1@PBV?$_List_val@U?$_List_simple_types@PAVTR_Level@@@std@@@1@@Z 10039160 f i TR_Trace:trace.obj
 0001:00038170       ??0?$_List_unchecked_iterator@V?$_List_val@U?$_List_simple_types@PAVTR_Module@@@std@@@std@@@std@@QAE@PAU?$_List_node@PAVTR_Module@@PAX@1@PBV?$_List_val@U?$_List_simple_types@PAVTR_Module@@@std@@@1@@Z 10039170 f i TR_Trace:trace.obj
 0001:00038180       ??0?$_List_val@U?$_List_simple_types@H@std@@@std@@QAE@XZ 10039180 f i TR_Trace:trace.obj
 0001:00038190       ??0?$_List_val@U?$_List_simple_types@PAVTR_Level@@@std@@@std@@QAE@XZ 10039190 f i TR_Trace:trace.obj
 0001:000381a0       ??0?$_List_val@U?$_List_simple_types@PAVTR_Module@@@std@@@std@@QAE@XZ 100391a0 f i TR_Trace:trace.obj
 0001:000381b0       ??0?$_String_const_iterator@V?$_String_val@U?$_Simple_types@D@std@@@std@@@std@@QAE@PBDPBU_Container_base0@1@@Z 100391b0 f i TR_Trace:trace.obj
 0001:000381c0       ??0?$_String_const_iterator@V?$_String_val@U?$_Simple_types@_W@std@@@std@@@std@@QAE@PB_WPBU_Container_base0@1@@Z 100391c0 f i TR_Trace:trace.obj
 0001:000381d0       ??0?$_String_iterator@V?$_String_val@U?$_Simple_types@D@std@@@std@@@std@@QAE@PADPBU_Container_base0@1@@Z 100391d0 f i TR_Trace:trace.obj
 0001:000381e0       ??0?$_String_iterator@V?$_String_val@U?$_Simple_types@_W@std@@@std@@@std@@QAE@PA_WPBU_Container_base0@1@@Z 100391e0 f i TR_Trace:trace.obj
 0001:000381f0       ??0?$_Tree@V?$_Tmap_traits@HHU?$less@H@std@@V?$allocator@U?$pair@$$CBHH@std@@@2@$0A@@std@@@std@@QAE@ABU?$less@H@1@ABV?$allocator@U?$pair@$$CBHH@std@@@1@@Z 100391f0 f i TR_Trace:trace.obj
 0001:00038250       ??0?$_Tree_alloc@$0A@U?$_Tree_base_types@U?$pair@$$CBHH@std@@V?$allocator@U?$pair@$$CBHH@std@@@2@@std@@@std@@QAE@ABV?$allocator@U?$pair@$$CBHH@std@@@1@@Z 10039250 f i TR_Trace:trace.obj
 0001:00038270       ??0?$_Tree_buy@U?$pair@$$CBHH@std@@V?$allocator@U?$pair@$$CBHH@std@@@2@@std@@QAE@ABV?$allocator@U?$pair@$$CBHH@std@@@1@@Z 10039270 f i TR_Trace:trace.obj
 0001:000382d0       ??0?$_Tree_comp@$0A@V?$_Tmap_traits@HHU?$less@H@std@@V?$allocator@U?$pair@$$CBHH@std@@@2@$0A@@std@@@std@@QAE@ABU?$less@H@1@ABV?$allocator@U?$pair@$$CBHH@std@@@1@@Z 100392d0 f i TR_Trace:trace.obj
 0001:00038330       ??0?$_Tree_const_iterator@V?$_Tree_val@U?$_Tree_simple_types@U?$pair@$$CBHH@std@@@std@@@std@@@std@@QAE@PAU?$_Tree_node@U?$pair@$$CBHH@std@@PAX@1@PBV?$_Tree_val@U?$_Tree_simple_types@U?$pair@$$CBHH@std@@@std@@@1@@Z 10039330 f i TR_Trace:trace.obj
 0001:00038340       ??0?$_Tree_iterator@V?$_Tree_val@U?$_Tree_simple_types@U?$pair@$$CBHH@std@@@std@@@std@@@std@@QAE@PAU?$_Tree_node@U?$pair@$$CBHH@std@@PAX@1@PBV?$_Tree_val@U?$_Tree_simple_types@U?$pair@$$CBHH@std@@@std@@@1@@Z 10039340 f i TR_Trace:trace.obj
 0001:00038350       ??0?$_Tree_unchecked_const_iterator@V?$_Tree_val@U?$_Tree_simple_types@U?$pair@$$CBHH@std@@@std@@@std@@U_Iterator_base0@2@@std@@QAE@PAU?$_Tree_node@U?$pair@$$CBHH@std@@PAX@1@PBV?$_Tree_val@U?$_Tree_simple_types@U?$pair@$$CBHH@std@@@std@@@1@@Z 10039350 f i TR_Trace:trace.obj
 0001:00038360       ??0?$_Tree_val@U?$_Tree_simple_types@U?$pair@$$CBHH@std@@@std@@@std@@QAE@XZ 10039360 f i TR_Trace:trace.obj
 0001:00038370       ??0?$_Wrap_alloc@V?$allocator@U?$_List_node@HPAX@std@@@std@@@std@@QAE@ABV?$allocator@U?$_List_node@HPAX@std@@@1@@Z 10039370 f i TR_Trace:trace.obj
 0001:00038380       ??0?$_Wrap_alloc@V?$allocator@U?$_List_node@HPAX@std@@@std@@@std@@QAE@XZ 10039380 f i TR_Trace:trace.obj
 0001:00038390       ??0?$_Wrap_alloc@V?$allocator@U?$_List_node@PAVTR_Level@@PAX@std@@@std@@@std@@QAE@XZ 10039390 f i TR_Trace:trace.obj
 0001:000383a0       ??0?$_Wrap_alloc@V?$allocator@U?$_List_node@PAVTR_Module@@PAX@std@@@std@@@std@@QAE@XZ 100393a0 f i TR_Trace:trace.obj
 0001:000383b0       ??0?$_Wrap_alloc@V?$allocator@U?$_Tree_node@U?$pair@$$CBHH@std@@PAX@std@@@std@@@std@@QAE@XZ 100393b0 f i TR_Trace:trace.obj
 0001:000383c0       ??0?$allocator@H@std@@QAE@XZ 100393c0 f i TR_Trace:trace.obj
 0001:000383d0       ??0?$allocator@PAVTR_Level@@@std@@QAE@XZ 100393d0 f i TR_Trace:trace.obj
 0001:000383e0       ??0?$allocator@PAVTR_Module@@@std@@QAE@XZ 100393e0 f i TR_Trace:trace.obj
 0001:000383f0       ??0?$allocator@U?$_List_node@HPAX@std@@@std@@QAE@ABV01@@Z 100393f0 f i TR_Trace:trace.obj
 0001:00038400       ??0?$allocator@U?$_List_node@HPAX@std@@@std@@QAE@XZ 10039400 f i TR_Trace:trace.obj
 0001:00038410       ??0?$allocator@U?$_List_node@PAVTR_Level@@PAX@std@@@std@@QAE@XZ 10039410 f i TR_Trace:trace.obj
 0001:00038420       ??0?$allocator@U?$_List_node@PAVTR_Module@@PAX@std@@@std@@QAE@ABV01@@Z 10039420 f i TR_Trace:trace.obj
 0001:00038430       ??0?$allocator@U?$_List_node@PAVTR_Module@@PAX@std@@@std@@QAE@XZ 10039430 f i TR_Trace:trace.obj
 0001:00038440       ??0?$allocator@U?$_Tree_node@U?$pair@$$CBHH@std@@PAX@std@@@std@@QAE@XZ 10039440 f i TR_Trace:trace.obj
 0001:00038450       ??0?$allocator@U?$pair@$$CBHH@std@@@std@@QAE@XZ 10039450 f i TR_Trace:trace.obj
 0001:00038460       ??0?$basic_filebuf@DU?$char_traits@D@std@@@std@@QAE@PAU_iobuf@@@Z 10039460 f i TR_Trace:trace.obj
 0001:00038500       ??0?$basic_filebuf@_WU?$char_traits@_W@std@@@std@@QAE@PAU_iobuf@@@Z 10039500 f i TR_Trace:trace.obj
 0001:00038580       ??0?$basic_ofstream@DU?$char_traits@D@std@@@std@@QAE@PBDHH@Z 10039580 f i TR_Trace:trace.obj
 0001:000386a0       ??0?$basic_ofstream@_WU?$char_traits@_W@std@@@std@@QAE@PBDHH@Z 100396a0 f i TR_Trace:trace.obj
 0001:000387c0       ??0?$basic_string@DU?$char_traits@D@std@@V?$allocator@D@2@@std@@QAE@ID@Z 100397c0 f i TR_Trace:trace.obj
 0001:000387f0       ??0?$basic_string@DU?$char_traits@D@std@@V?$allocator@D@2@@std@@QAE@XZ 100397f0 f i TR_Trace:trace.obj
 0001:00038810       ??0?$basic_string@_WU?$char_traits@_W@std@@V?$allocator@_W@2@@std@@QAE@ABV01@IIABV?$allocator@_W@1@@Z 10039810 f i TR_Trace:trace.obj
 0001:00038840       ??0?$basic_string@_WU?$char_traits@_W@std@@V?$allocator@_W@2@@std@@QAE@PB_WI@Z 10039840 f i TR_Trace:trace.obj
 0001:00038870       ??0?$fpos@H@std@@QAE@H_J@Z 10039870 f i TR_Trace:trace.obj
 0001:000388a0       ??0?$fpos@H@std@@QAE@_J@Z  100398a0 f i TR_Trace:trace.obj
 0001:000388d0       ??0?$list@HV?$allocator@H@std@@@std@@QAE@ABV01@@Z 100398d0 f i TR_Trace:trace.obj
 0001:00038970       ??0?$list@HV?$allocator@H@std@@@std@@QAE@XZ 10039970 f i TR_Trace:trace.obj
 0001:000389d0       ??0?$list@PAVTR_Level@@V?$allocator@PAVTR_Level@@@std@@@std@@QAE@XZ 100399d0 f i TR_Trace:trace.obj
 0001:00038a30       ??0?$list@PAVTR_Module@@V?$allocator@PAVTR_Module@@@std@@@std@@QAE@ABV?$allocator@PAVTR_Module@@@1@@Z 10039a30 f i TR_Trace:trace.obj
 0001:00038a90       ??0?$list@PAVTR_Module@@V?$allocator@PAVTR_Module@@@std@@@std@@QAE@XZ 10039a90 f i TR_Trace:trace.obj
 0001:00038af0       ??0?$map@HHU?$less@H@std@@V?$allocator@U?$pair@$$CBHH@std@@@2@@std@@QAE@XZ 10039af0 f i TR_Trace:trace.obj
 0001:00038b50       ??0TR_AltFileStream@@QAE@ABV?$basic_string@_WU?$char_traits@_W@std@@V?$allocator@_W@2@@std@@0H_NH11W4TR_Manipulator@@@Z 10039b50 f   TR_Trace:trace.obj
 0001:00039120       ??0TR_BinStream@@QAE@PBD@Z 1003a120 f   TR_Trace:trace.obj
 0001:000396a0       ??0TR_BinStream@@QAE@PBD_N@Z 1003a6a0 f   TR_Trace:trace.obj
 0001:00039cd0       ??0TR_BinStreamSerializer@@QAE@AAVTR_Level@@H@Z 1003acd0 f   TR_Trace:trace.obj
 0001:0003a140       ??0TR_Level@@QAE@ABV?$basic_string@_WU?$char_traits@_W@std@@V?$allocator@_W@2@@std@@0AAVTR_Module@@@Z 1003b140 f   TR_Trace:trace.obj
 0001:0003a2a0       ??0TR_Module@@QAE@ABV?$basic_string@_WU?$char_traits@_W@std@@V?$allocator@_W@2@@std@@0PAVTR_Stream@@@Z 1003b2a0 f   TR_Trace:trace.obj
 0001:0003a450       ??0TR_Stream@@QAE@PAV?$basic_ostream@_WU?$char_traits@_W@std@@@std@@_N11W4TR_Manipulator@@@Z 1003b450 f   TR_Trace:trace.obj
 0001:0003a4c0       ??0TR_StreamBase@@QAE@PAV?$basic_ostream@_WU?$char_traits@_W@std@@@std@@_N11W4TR_Manipulator@@@Z 1003b4c0 f   TR_Trace:trace.obj
 0001:0003a5d0       ??0TR_StreamSerializer@@QAE@AAVTR_Level@@H@Z 1003b5d0 f   TR_Trace:trace.obj
 0001:0003aa50       ??0UTIL_WinError@@QAE@K@Z  1003ba50 f i TR_Trace:trace.obj
 0001:0003aa60       ??1?$_List_alloc@$0A@U?$_List_base_types@HV?$allocator@H@std@@@std@@@std@@QAE@XZ 1003ba60 f i TR_Trace:trace.obj
 0001:0003aa70       ??1?$_List_alloc@$0A@U?$_List_base_types@PAVTR_Level@@V?$allocator@PAVTR_Level@@@std@@@std@@@std@@QAE@XZ 1003ba70 f i TR_Trace:trace.obj
 0001:0003aa80       ??1?$_List_alloc@$0A@U?$_List_base_types@PAVTR_Module@@V?$allocator@PAVTR_Module@@@std@@@std@@@std@@QAE@XZ 1003ba80 f i TR_Trace:trace.obj
 0001:0003aa90       ??1?$_List_buy@HV?$allocator@H@std@@@std@@QAE@XZ 1003ba90 f i TR_Trace:trace.obj
 0001:0003aae0       ??1?$_List_buy@PAVTR_Level@@V?$allocator@PAVTR_Level@@@std@@@std@@QAE@XZ 1003bae0 f i TR_Trace:trace.obj
 0001:0003ab30       ??1?$_List_buy@PAVTR_Module@@V?$allocator@PAVTR_Module@@@std@@@std@@QAE@XZ 1003bb30 f i TR_Trace:trace.obj
 0001:0003ab80       ??1?$_Tree@V?$_Tmap_traits@HHU?$less@H@std@@V?$allocator@U?$pair@$$CBHH@std@@@2@$0A@@std@@@std@@QAE@XZ 1003bb80 f i TR_Trace:trace.obj
 0001:0003abf0       ??1?$_Tree_alloc@$0A@U?$_Tree_base_types@U?$pair@$$CBHH@std@@V?$allocator@U?$pair@$$CBHH@std@@@2@@std@@@std@@QAE@XZ 1003bbf0 f i TR_Trace:trace.obj
 0001:0003ac00       ??1?$_Tree_buy@U?$pair@$$CBHH@std@@V?$allocator@U?$pair@$$CBHH@std@@@2@@std@@QAE@XZ 1003bc00 f i TR_Trace:trace.obj
 0001:0003ac50       ??1?$_Tree_comp@$0A@V?$_Tmap_traits@HHU?$less@H@std@@V?$allocator@U?$pair@$$CBHH@std@@@2@$0A@@std@@@std@@QAE@XZ 1003bc50 f i TR_Trace:trace.obj
 0001:0003aca0       ??1?$basic_filebuf@DU?$char_traits@D@std@@@std@@UAE@XZ 1003bca0 f i TR_Trace:trace.obj
 0001:0003ad30       ??1?$basic_filebuf@_WU?$char_traits@_W@std@@@std@@UAE@XZ 1003bd30 f i TR_Trace:trace.obj
 0001:0003adc0       ??1?$basic_ofstream@DU?$char_traits@D@std@@@std@@UAE@XZ 1003bdc0 f i TR_Trace:trace.obj
 0001:0003ae80       ??1?$basic_ofstream@_WU?$char_traits@_W@std@@@std@@UAE@XZ 1003be80 f i TR_Trace:trace.obj
 0001:0003af40       ??1?$list@HV?$allocator@H@std@@@std@@QAE@XZ 1003bf40 f i TR_Trace:trace.obj
 0001:0003afc0       ??1?$list@PAVTR_Level@@V?$allocator@PAVTR_Level@@@std@@@std@@QAE@XZ 1003bfc0 f i TR_Trace:trace.obj
 0001:0003b040       ??1?$list@PAVTR_Module@@V?$allocator@PAVTR_Module@@@std@@@std@@QAE@XZ 1003c040 f i TR_Trace:trace.obj
 0001:0003b0c0       ??1?$map@HHU?$less@H@std@@V?$allocator@U?$pair@$$CBHH@std@@@2@@std@@QAE@XZ 1003c0c0 f i TR_Trace:trace.obj
 0001:0003b130       ??1TR_AltFileStream@@QAE@XZ 1003c130 f   TR_Trace:trace.obj
 0001:0003b6c0       ??1TR_BinStream@@QAE@XZ    1003c6c0 f   TR_Trace:trace.obj
 0001:0003bbc0       ??1TR_BinStreamSerializer@@QAE@XZ 1003cbc0 f   TR_Trace:trace.obj
 0001:0003bbe0       ??1TR_GetFileTimeFailed@@UAE@XZ 1003cbe0 f i TR_Trace:trace.obj
 0001:0003bc60       ??1TR_IdentifiersOutOfRange@@UAE@XZ 1003cc60 f i TR_Trace:trace.obj
 0001:0003bcb0       ??1TR_Level@@QAE@XZ        1003ccb0 f   TR_Trace:trace.obj
 0001:0003c1e0       ??1TR_MissingIdentifier@@UAE@XZ 1003d1e0 f i TR_Trace:trace.obj
 0001:0003c260       ??1TR_Module@@QAE@XZ       1003d260 f   TR_Trace:trace.obj
 0001:0003c7d0       ??1TR_Stream@@QAE@XZ       1003d7d0 f   TR_Trace:trace.obj
 0001:0003cca0       ??1TR_StreamBase@@QAE@XZ   1003dca0 f   TR_Trace:trace.obj
 0001:0003cd40       ??1TR_StreamSerializer@@QAE@XZ 1003dd40 f   TR_Trace:trace.obj
 0001:0003cd60       ??1TR_UnableToMoveFile@@UAE@XZ 1003dd60 f i TR_Trace:trace.obj
 0001:0003ce00       ??1TR_UnableToOpenFile@@UAE@XZ 1003de00 f i TR_Trace:trace.obj
 0001:0003ce80       ??1TR_UnableToRemoveFile@@UAE@XZ 1003de80 f i TR_Trace:trace.obj
 0001:0003cf00       ??1locale@std@@QAE@XZ      1003df00 f i TR_Trace:trace.obj
 0001:0003cf20       ??6@YGAAVTR_StreamBase@@AAV0@ABV?$basic_string@_WU?$char_traits@_W@std@@V?$allocator@_W@2@@std@@@Z 1003df20 f   TR_Trace:trace.obj
 0001:0003cf50       ??6@YGAAVTR_StreamBase@@AAV0@D@Z 1003df50 f   TR_Trace:trace.obj
 0001:0003cf70       ??6@YGAAVTR_StreamBase@@AAV0@E@Z 1003df70 f   TR_Trace:trace.obj
 0001:0003cf90       ??6@YGAAVTR_StreamBase@@AAV0@F@Z 1003df90 f   TR_Trace:trace.obj
 0001:0003cfb0       ??6@YGAAVTR_StreamBase@@AAV0@G@Z 1003dfb0 f   TR_Trace:trace.obj
 0001:0003cfd0       ??6@YGAAVTR_StreamBase@@AAV0@H@Z 1003dfd0 f   TR_Trace:trace.obj
 0001:0003d000       ??6@YGAAVTR_StreamBase@@AAV0@I@Z 1003e000 f   TR_Trace:trace.obj
 0001:0003d020       ??6@YGAAVTR_StreamBase@@AAV0@J@Z 1003e020 f   TR_Trace:trace.obj
 0001:0003d040       ??6@YGAAVTR_StreamBase@@AAV0@K@Z 1003e040 f   TR_Trace:trace.obj
 0001:0003d060       ??6@YGAAVTR_StreamBase@@AAV0@M@Z 1003e060 f   TR_Trace:trace.obj
 0001:0003d090       ??6@YGAAVTR_StreamBase@@AAV0@PB_W@Z 1003e090 f   TR_Trace:trace.obj
 0001:0003d0b0       ??6@YGAAVTR_StreamBase@@AAV0@W4TR_Manipulator@@@Z 1003e0b0 f   TR_Trace:trace.obj
 0001:0003d260       ??6@YGAAVTR_StreamBase@@AAV0@_N@Z 1003e260 f   TR_Trace:trace.obj
 0001:0003d280       ??6@YGAAVTR_StreamBase@@AAV0@_W@Z 1003e280 f   TR_Trace:trace.obj
 0001:0003d2d0       ??8?$_List_const_iterator@V?$_List_val@U?$_List_simple_types@H@std@@@std@@@std@@QBE_NABV01@@Z 1003e2d0 f i TR_Trace:trace.obj
 0001:0003d2f0       ??8?$_List_const_iterator@V?$_List_val@U?$_List_simple_types@PAVTR_Level@@@std@@@std@@@std@@QBE_NABV01@@Z 1003e2f0 f i TR_Trace:trace.obj
 0001:0003d310       ??8?$_List_const_iterator@V?$_List_val@U?$_List_simple_types@PAVTR_Module@@@std@@@std@@@std@@QBE_NABV01@@Z 1003e310 f i TR_Trace:trace.obj
 0001:0003d330       ??8?$_String_const_iterator@V?$_String_val@U?$_Simple_types@_W@std@@@std@@@std@@QBE_NABV01@@Z 1003e330 f i TR_Trace:trace.obj
 0001:0003d350       ??8?$_Tree_const_iterator@V?$_Tree_val@U?$_Tree_simple_types@U?$pair@$$CBHH@std@@@std@@@std@@@std@@QBE_NABV01@@Z 1003e350 f i TR_Trace:trace.obj
 0001:0003d370       ??9?$_List_const_iterator@V?$_List_val@U?$_List_simple_types@H@std@@@std@@@std@@QBE_NABV01@@Z 1003e370 f i TR_Trace:trace.obj
 0001:0003d390       ??9?$_List_const_iterator@V?$_List_val@U?$_List_simple_types@PAVTR_Level@@@std@@@std@@@std@@QBE_NABV01@@Z 1003e390 f i TR_Trace:trace.obj
 0001:0003d3b0       ??9?$_List_const_iterator@V?$_List_val@U?$_List_simple_types@PAVTR_Module@@@std@@@std@@@std@@QBE_NABV01@@Z 1003e3b0 f i TR_Trace:trace.obj
 0001:0003d3d0       ??9?$_Tree_const_iterator@V?$_Tree_val@U?$_Tree_simple_types@U?$pair@$$CBHH@std@@@std@@@std@@@std@@QBE_NABV01@@Z 1003e3d0 f i TR_Trace:trace.obj
 0001:0003d3f0       ??A?$basic_string@_WU?$char_traits@_W@std@@V?$allocator@_W@2@@std@@QAEAA_WI@Z 1003e3f0 f i TR_Trace:trace.obj
 0001:0003d410       ??B?$fpos@H@std@@QBE_JXZ   1003e410 f i TR_Trace:trace.obj
 0001:0003d420       ??Bsentry@?$basic_ostream@_WU?$char_traits@_W@std@@@std@@QBEPQ?$_Bool_struct@V?$basic_ostream@_WU?$char_traits@_W@std@@@std@@@2@HXZ 1003e420 f i TR_Trace:trace.obj
 0001:0003d430       ??D?$_List_const_iterator@V?$_List_val@U?$_List_simple_types@H@std@@@std@@@std@@QBEABHXZ 1003e430 f i TR_Trace:trace.obj
 0001:0003d440       ??D?$_List_const_iterator@V?$_List_val@U?$_List_simple_types@PAVTR_Level@@@std@@@std@@@std@@QBEABQAVTR_Level@@XZ 1003e440 f i TR_Trace:trace.obj
 0001:0003d450       ??D?$_List_const_iterator@V?$_List_val@U?$_List_simple_types@PAVTR_Module@@@std@@@std@@@std@@QBEABQAVTR_Module@@XZ 1003e450 f i TR_Trace:trace.obj
 0001:0003d460       ??D?$_List_iterator@V?$_List_val@U?$_List_simple_types@H@std@@@std@@@std@@QBEAAHXZ 1003e460 f i TR_Trace:trace.obj
 0001:0003d470       ??D?$_List_iterator@V?$_List_val@U?$_List_simple_types@PAVTR_Level@@@std@@@std@@@std@@QBEAAPAVTR_Level@@XZ 1003e470 f i TR_Trace:trace.obj
 0001:0003d480       ??D?$_List_iterator@V?$_List_val@U?$_List_simple_types@PAVTR_Module@@@std@@@std@@@std@@QBEAAPAVTR_Module@@XZ 1003e480 f i TR_Trace:trace.obj
 0001:0003d490       ??D?$_String_const_iterator@V?$_String_val@U?$_Simple_types@D@std@@@std@@@std@@QBEABDXZ 1003e490 f i TR_Trace:trace.obj
 0001:0003d4a0       ??D?$_String_const_iterator@V?$_String_val@U?$_Simple_types@_W@std@@@std@@@std@@QBEAB_WXZ 1003e4a0 f i TR_Trace:trace.obj
 0001:0003d4b0       ??D?$_String_iterator@V?$_String_val@U?$_Simple_types@D@std@@@std@@@std@@QBEAADXZ 1003e4b0 f i TR_Trace:trace.obj
 0001:0003d4c0       ??D?$_String_iterator@V?$_String_val@U?$_Simple_types@_W@std@@@std@@@std@@QBEAA_WXZ 1003e4c0 f i TR_Trace:trace.obj
 0001:0003d4d0       ??D?$_Tree_const_iterator@V?$_Tree_val@U?$_Tree_simple_types@U?$pair@$$CBHH@std@@@std@@@std@@@std@@QBEABU?$pair@$$CBHH@1@XZ 1003e4d0 f i TR_Trace:trace.obj
 0001:0003d4e0       ??E?$_List_const_iterator@V?$_List_val@U?$_List_simple_types@H@std@@@std@@@std@@QAEAAV01@XZ 1003e4e0 f i TR_Trace:trace.obj
 0001:0003d4f0       ??E?$_List_const_iterator@V?$_List_val@U?$_List_simple_types@PAVTR_Level@@@std@@@std@@@std@@QAEAAV01@XZ 1003e4f0 f i TR_Trace:trace.obj
 0001:0003d500       ??E?$_List_const_iterator@V?$_List_val@U?$_List_simple_types@PAVTR_Module@@@std@@@std@@@std@@QAE?AV01@H@Z 1003e500 f i TR_Trace:trace.obj
 0001:0003d520       ??E?$_List_const_iterator@V?$_List_val@U?$_List_simple_types@PAVTR_Module@@@std@@@std@@@std@@QAEAAV01@XZ 1003e520 f i TR_Trace:trace.obj
 0001:0003d530       ??E?$_List_iterator@V?$_List_val@U?$_List_simple_types@H@std@@@std@@@std@@QAE?AV01@H@Z 1003e530 f i TR_Trace:trace.obj
 0001:0003d550       ??E?$_List_iterator@V?$_List_val@U?$_List_simple_types@H@std@@@std@@@std@@QAEAAV01@XZ 1003e550 f i TR_Trace:trace.obj
 0001:0003d560       ??E?$_List_iterator@V?$_List_val@U?$_List_simple_types@PAVTR_Level@@@std@@@std@@@std@@QAEAAV01@XZ 1003e560 f i TR_Trace:trace.obj
 0001:0003d570       ??E?$_List_iterator@V?$_List_val@U?$_List_simple_types@PAVTR_Module@@@std@@@std@@@std@@QAEAAV01@XZ 1003e570 f i TR_Trace:trace.obj
 0001:0003d580       ??E?$_Tree_const_iterator@V?$_Tree_val@U?$_Tree_simple_types@U?$pair@$$CBHH@std@@@std@@@std@@@std@@QAE?AV01@H@Z 1003e580 f i TR_Trace:trace.obj
 0001:0003d5a0       ??E?$_Tree_const_iterator@V?$_Tree_val@U?$_Tree_simple_types@U?$pair@$$CBHH@std@@@std@@@std@@@std@@QAEAAV01@XZ 1003e5a0 f i TR_Trace:trace.obj
 0001:0003d5b0       ??E?$_Tree_unchecked_const_iterator@V?$_Tree_val@U?$_Tree_simple_types@U?$pair@$$CBHH@std@@@std@@@std@@U_Iterator_base0@2@@std@@QAEAAV01@XZ 1003e5b0 f i TR_Trace:trace.obj
 0001:0003d600       ??F?$_List_const_iterator@V?$_List_val@U?$_List_simple_types@H@std@@@std@@@std@@QAEAAV01@XZ 1003e600 f i TR_Trace:trace.obj
 0001:0003d610       ??F?$_List_const_iterator@V?$_List_val@U?$_List_simple_types@PAVTR_Module@@@std@@@std@@@std@@QAEAAV01@XZ 1003e610 f i TR_Trace:trace.obj
 0001:0003d620       ??F?$_List_iterator@V?$_List_val@U?$_List_simple_types@H@std@@@std@@@std@@QAEAAV01@XZ 1003e620 f i TR_Trace:trace.obj
 0001:0003d630       ??F?$_List_unchecked_const_iterator@V?$_List_val@U?$_List_simple_types@H@std@@@std@@U_Iterator_base0@2@@std@@QAEAAV01@XZ 1003e630 f i TR_Trace:trace.obj
 0001:0003d640       ??F?$_Tree_const_iterator@V?$_Tree_val@U?$_Tree_simple_types@U?$pair@$$CBHH@std@@@std@@@std@@@std@@QAEAAV01@XZ 1003e640 f i TR_Trace:trace.obj
 0001:0003d650       ??F?$_Tree_iterator@V?$_Tree_val@U?$_Tree_simple_types@U?$pair@$$CBHH@std@@@std@@@std@@@std@@QAEAAV01@XZ 1003e650 f i TR_Trace:trace.obj
 0001:0003d660       ??F?$_Tree_unchecked_const_iterator@V?$_Tree_val@U?$_Tree_simple_types@U?$pair@$$CBHH@std@@@std@@@std@@U_Iterator_base0@2@@std@@QAEAAV01@XZ 1003e660 f i TR_Trace:trace.obj
 0001:0003d6c0       ??G?$_String_const_iterator@V?$_String_val@U?$_Simple_types@_W@std@@@std@@@std@@QBEHABV01@@Z 1003e6c0 f i TR_Trace:trace.obj
 0001:0003d6d0       ??G?$_String_iterator@V?$_String_val@U?$_Simple_types@_W@std@@@std@@@std@@QBEHABV?$_String_const_iterator@V?$_String_val@U?$_Simple_types@_W@std@@@std@@@1@@Z 1003e6d0 f i TR_Trace:trace.obj
 0001:0003d6e0       ??R?$less@H@std@@QBE_NABH0@Z 1003e6e0 f i TR_Trace:trace.obj
 0001:0003d700       ??_D?$basic_ofstream@DU?$char_traits@D@std@@@std@@QAEXXZ 1003e700 f i TR_Trace:trace.obj
 0001:0003d760       ??_D?$basic_ofstream@_WU?$char_traits@_W@std@@@std@@QAEXXZ 1003e760 f i TR_Trace:trace.obj
 0001:0003d7c0       ??_E?$basic_ofstream@DU?$char_traits@D@std@@@std@@$4PPPPPPPM@A@AEPAXI@Z 1003e7c0 f i TR_Trace:trace.obj
 0001:0003d7c8       ??_E?$basic_ofstream@_WU?$char_traits@_W@std@@@std@@$4PPPPPPPM@A@AEPAXI@Z 1003e7c8 f i TR_Trace:trace.obj
 0001:0003d7d0       ??_E?$basic_filebuf@DU?$char_traits@D@std@@@std@@UAEPAXI@Z 1003e7d0 f i TR_Trace:trace.obj
 0001:0003d7d0       ??_G?$basic_filebuf@DU?$char_traits@D@std@@@std@@UAEPAXI@Z 1003e7d0 f i TR_Trace:trace.obj
 0001:0003d870       ??_E?$basic_filebuf@_WU?$char_traits@_W@std@@@std@@UAEPAXI@Z 1003e870 f i TR_Trace:trace.obj
 0001:0003d870       ??_G?$basic_filebuf@_WU?$char_traits@_W@std@@@std@@UAEPAXI@Z 1003e870 f i TR_Trace:trace.obj
 0001:0003d910       ??_G?$basic_ofstream@DU?$char_traits@D@std@@@std@@UAEPAXI@Z 1003e910 f i TR_Trace:trace.obj
 0001:0003d910       ??_E?$basic_ofstream@DU?$char_traits@D@std@@@std@@UAEPAXI@Z 1003e910 f i TR_Trace:trace.obj
 0001:0003d990       ??_G?$basic_ofstream@_WU?$char_traits@_W@std@@@std@@UAEPAXI@Z 1003e990 f i TR_Trace:trace.obj
 0001:0003d990       ??_E?$basic_ofstream@_WU?$char_traits@_W@std@@@std@@UAEPAXI@Z 1003e990 f i TR_Trace:trace.obj
 0001:0003da10       ?AddElementToList@TR_Module@@ABEXHAAV?$list@HV?$allocator@H@std@@@std@@@Z 1003ea10 f   TR_Trace:trace.obj
 0001:0003da60       ?ApplyOperation@TR_Module@@QAE_N_WAAPB_W@Z 1003ea60 f   TR_Trace:trace.obj
 0001:0003dd50       ?ApplyOperationToAllLevels@TR_Module@@QAEX_W@Z 1003ed50 f   TR_Trace:trace.obj
 0001:0003de90       ?ApplySpecial@TR_Module@@QAE_N_WAAPB_W@Z 1003ee90 f   TR_Trace:trace.obj
 0001:0003e030       ?BinFlush@TR_BinStream@@QAEXXZ 1003f030 f i TR_Trace:trace.obj
 0001:0003e040       ?CopyModuleList@TR_StreamBase@@QAEXAAV1@@Z 1003f040 f   TR_Trace:trace.obj
 0001:0003e0d0       ?Cut_Trace@TR_AltFileStream@@UAEXXZ 1003f0d0 f   TR_Trace:trace.obj
 0001:0003e900       ?Cut_Trace@TR_StreamBase@@UAEXXZ 1003f900 f i TR_Trace:trace.obj
 0001:0003e910       ?Disable@TR_Level@@QAEXXZ  1003f910 f i TR_Trace:trace.obj
 0001:0003e940       ?DisableAllLevels@TR_Module@@AAEXXZ 1003f940 f   TR_Trace:trace.obj
 0001:0003e980       ?Enable@TR_Level@@QAEXXZ   1003f980 f i TR_Trace:trace.obj
 0001:0003e990       ?EnableIdentifiers@TR_Level@@QAEXV?$list@HV?$allocator@H@std@@@std@@@Z 1003f990 f   TR_Trace:trace.obj
 0001:0003ea80       ?EndBinTrace@TR_Level@@QAEXXZ 1003fa80 f   TR_Trace:trace.obj
 0001:0003eaa0       ?EndTrace@TR_Level@@QAEXXZ 1003faa0 f   TR_Trace:trace.obj
 0001:0003eae0       ?EnterCriticalSection@TR_StreamBase@@QAEXXZ 1003fae0 f   TR_Trace:trace.obj
 0001:0003ef40       ?ExitCriticalSection@TR_StreamBase@@QAE_NXZ 1003ff40 f   TR_Trace:trace.obj
 0001:0003ef60       ?FindLevel@TR_Module@@AAEPAVTR_Level@@ABV?$basic_string@_WU?$char_traits@_W@std@@V?$allocator@_W@2@@std@@@Z 1003ff60 f   TR_Trace:trace.obj
 0001:0003f040       ?FindModule@TR_StreamBase@@QAEPAVTR_Module@@ABV?$basic_string@_WU?$char_traits@_W@std@@V?$allocator@_W@2@@std@@@Z 10040040 f   TR_Trace:trace.obj
 0001:0003f120       ?Flush@TR_StreamBase@@QAEXXZ 10040120 f i TR_Trace:trace.obj
 0001:0003f130       ?GetDayOfMonth@DT_LocalDateTime@@QBEGXZ 10040130 f i TR_Trace:trace.obj
 0001:0003f170       ?GetFileNumberLimit@TR_AltFileStream@@QAEHXZ 10040170 f   TR_Trace:trace.obj
 0001:0003f620       ?GetFileSizeLimit@TR_AltFileStream@@QAEHXZ 10040620 f   TR_Trace:trace.obj
 0001:0003fad0       ?GetHours@DT_LocalDateTime@@QBEGXZ 10040ad0 f i TR_Trace:trace.obj
 0001:0003fb30       ?GetHours@DT_TimeOfDay@@QBEGXZ 10040b30 f i TR_Trace:trace.obj
 0001:0003fb60       ?GetIOStream@TR_StreamBase@@QAEPAV?$basic_ostream@_WU?$char_traits@_W@std@@@std@@XZ 10040b60 f i TR_Trace:trace.obj
 0001:0003fb70       ?GetIdentifier@TR_Module@@ABE_NAAPB_WAAH@Z 10040b70 f   TR_Trace:trace.obj
 0001:0003fbd0       ?GetIdentifierFormat@TR_StreamBase@@QBE?AW4TR_Manipulator@@XZ 10040bd0 f i TR_Trace:trace.obj
 0001:0003fbe0       ?GetLevelInfo@TR_Module@@ABE_NAAPB_WAAV?$basic_string@_WU?$char_traits@_W@std@@V?$allocator@_W@2@@std@@AAV?$list@HV?$allocator@H@std@@@3@AA_N@Z 10040be0 f   TR_Trace:trace.obj
 0001:000403e0       ?GetLevelList@TR_Module@@QAEAAV?$list@PAVTR_Level@@V?$allocator@PAVTR_Level@@@std@@@std@@XZ 100413e0 f i TR_Trace:trace.obj
 0001:000403f0       ?GetLevelList@TR_Module@@QBEABV?$list@PAVTR_Level@@V?$allocator@PAVTR_Level@@@std@@@std@@XZ 100413f0 f i TR_Trace:trace.obj
 0001:00040400       ?GetMilliseconds@DT_LocalDateTime@@QBEGXZ 10041400 f i TR_Trace:trace.obj
 0001:00040460       ?GetMilliseconds@DT_TimeOfDay@@QBEGXZ 10041460 f i TR_Trace:trace.obj
 0001:00040490       ?GetMinutes@DT_LocalDateTime@@QBEGXZ 10041490 f i TR_Trace:trace.obj
 0001:000404f0       ?GetMinutes@DT_TimeOfDay@@QBEGXZ 100414f0 f i TR_Trace:trace.obj
 0001:00040530       ?GetModule@TR_Level@@QAEAAVTR_Module@@XZ 10041530 f i TR_Trace:trace.obj
 0001:00040540       ?GetModuleList@TR_StreamBase@@QAEAAV?$list@PAVTR_Module@@V?$allocator@PAVTR_Module@@@std@@@std@@XZ 10041540 f i TR_Trace:trace.obj
 0001:00040550       ?GetModuleList@TR_StreamBase@@QBEABV?$list@PAVTR_Module@@V?$allocator@PAVTR_Module@@@std@@@std@@XZ 10041550 f i TR_Trace:trace.obj
 0001:00040560       ?GetMonth@DT_LocalDateTime@@QBE?AW4DT_Month@@XZ 10041560 f i TR_Trace:trace.obj
 0001:000405a0       ?GetName@TR_Level@@QBE?AV?$basic_string@_WU?$char_traits@_W@std@@V?$allocator@_W@2@@std@@XZ 100415a0 f i TR_Trace:trace.obj
 0001:00040620       ?GetName@TR_Module@@QAE?AV?$basic_string@_WU?$char_traits@_W@std@@V?$allocator@_W@2@@std@@XZ 10041620 f i TR_Trace:trace.obj
 0001:00040690       ?GetOldBinStreamPtr@TR_BinStream@@QAEPAV1@XZ 10041690 f   TR_Trace:trace.obj
 0001:000406a0       ?GetOperator@TR_StreamBase@@ABE_NAAPB_WPA_W@Z 100416a0 f   TR_Trace:trace.obj
 0001:000406c0       ?GetSeconds@DT_LocalDateTime@@QBEGXZ 100416c0 f i TR_Trace:trace.obj
 0001:00040730       ?GetSeconds@DT_TimeOfDay@@QBEGXZ 10041730 f i TR_Trace:trace.obj
 0001:00040770       ?GetStream@TR_Module@@QAEAAVTR_Stream@@XZ 10041770 f i TR_Trace:trace.obj
 0001:00040780       ?GetTraceSetting@TR_Level@@QBE?AV?$basic_string@_WU?$char_traits@_W@std@@V?$allocator@_W@2@@std@@XZ 10041780 f   TR_Trace:trace.obj
 0001:000408d0       ?GetTraceSetting@TR_Module@@QBE?AV?$basic_string@_WU?$char_traits@_W@std@@V?$allocator@_W@2@@std@@XZ 100418d0 f   TR_Trace:trace.obj
 0001:00040ac0       ?GetTraceSetting@TR_StreamBase@@QBE?AV?$basic_string@_WU?$char_traits@_W@std@@V?$allocator@_W@2@@std@@XZ 10041ac0 f   TR_Trace:trace.obj
 0001:00040c00       ?GetYear@DT_LocalDateTime@@QBEGXZ 10041c00 f i TR_Trace:trace.obj
 0001:00040c40       ?IsCharManipulatorFlagSet@TR_StreamBase@@QBE_NXZ 10041c40 f i TR_Trace:trace.obj
 0001:00040c50       ?IsEmpty@DT_LocalDateTime@@QBE_NXZ 10041c50 f i TR_Trace:trace.obj
 0001:00040c70       ?IsEmpty@DT_TimeOfDay@@QBE_NXZ 10041c70 f i TR_Trace:trace.obj
 0001:00040c80       ?IsEnabled@TR_Level@@QBE_NH@Z 10041c80 f   TR_Trace:trace.obj
 0001:00040cb0       ?IsEnabledPrintDayField@TR_StreamBase@@QBE_NXZ 10041cb0 f i TR_Trace:trace.obj
 0001:00040cc0       ?IsEnabledPrintThreadID@TR_StreamBase@@QBE_NXZ 10041cc0 f i TR_Trace:trace.obj
 0001:00040cd0       ?IsIdentifierInMap@TR_Level@@ABE_NH@Z 10041cd0 f i TR_Trace:trace.obj
 0001:00040d20       ?IsValidChar@TR_Level@@SA_N_W@Z 10041d20 f i TR_Trace:trace.obj
 0001:00040d50       ?IsValidChar@TR_Module@@SA_N_W@Z 10041d50 f i TR_Trace:trace.obj
 0001:00040d80       ?IsValidName@TR_Level@@SA_NPB_W@Z 10041d80 f i TR_Trace:trace.obj
 0001:00040dc0       ?IsValidName@TR_Module@@SA_NPB_W@Z 10041dc0 f i TR_Trace:trace.obj
 0001:00040e00       ?IsVariableDataFieldsEnabled@TR_StreamBase@@QBE_NXZ 10041e00 f i TR_Trace:trace.obj
 0001:00040e10       ?NewLine@TR_StreamBase@@QAEXXZ 10041e10 f i TR_Trace:trace.obj
 0001:00040e20       ?PrintDateAndTimeIfRollOver@TR_StreamBase@@QAEXXZ 10041e20 f   TR_Trace:trace.obj
 0001:00040fa0       ?PrintLocalDateAndTime@TR_StreamBase@@IAEXXZ 10041fa0 f   TR_Trace:trace.obj
 0001:000410a0       ?Reset@TR_StreamBase@@QAEXXZ 100420a0 f   TR_Trace:trace.obj
 0001:000410f0       ?Set@TR_StreamBase@@QAE_NPB_W@Z 100420f0 f   TR_Trace:trace.obj
 0001:00041180       ?SetAltStreamPtr@TR_StreamBase@@QAEXPAVTR_AltFileStream@@@Z 10042180 f i TR_Trace:trace.obj
 0001:00041190       ?SetAsGlobal@TR_BinStream@@QAEXXZ 10042190 f   TR_Trace:trace.obj
 0001:000411d0       ?SetAsGlobal@TR_Stream@@QAEXXZ 100421d0 f   TR_Trace:trace.obj
 0001:00041210       ?SetBinStreamPtr@TR_BinStream@@QAEXPAV1@@Z 10042210 f   TR_Trace:trace.obj
 0001:00041220       ?SetCharManipulatorFlag@TR_StreamBase@@QAEX_N@Z 10042220 f i TR_Trace:trace.obj
 0001:00041230       ?SetFileNumberLimit@TR_AltFileStream@@QAEXH@Z 10042230 f   TR_Trace:trace.obj
 0001:000416d0       ?SetFileSizeLimit@TR_AltFileStream@@QAEXH@Z 100426d0 f   TR_Trace:trace.obj
 0001:00041b70       ?SettrPrint@TR_Module@@QAEX_N@Z 10042b70 f i TR_Trace:trace.obj
 0001:00041b80       ?SimpleCommand@TR_StreamBase@@AAE_NAAPB_W@Z 10042b80 f   TR_Trace:trace.obj
 0001:00041f90       ?StartTrace@TR_Level@@QAEAAVTR_StreamBase@@H@Z 10042f90 f   TR_Trace:trace.obj
 0001:000423f0       ?SwallowWhiteSpace@TR_StreamBase@@SAXAAPB_W@Z 100433f0 f   TR_Trace:trace.obj
 0001:00042410       ?TR_GetStreamPtr@@YAPAVTR_Stream@@XZ 10043410 f   TR_Trace:trace.obj
 0001:00042420       ?TR_SetStreamPtr@@YAXPAVTR_Stream@@@Z 10043420 f   TR_Trace:trace.obj
 0001:00042440       ?TR_getBinStream@@YAAAVTR_BinStream@@XZ 10043440 f   TR_Trace:trace.obj
 0001:00042450       ?TR_getBinStreamPtr@@YAAAV?$basic_ofstream@DU?$char_traits@D@std@@@std@@XZ 10043450 f   TR_Trace:trace.obj
 0001:00042460       ?TR_getStream@@YAAAVTR_Stream@@XZ 10043460 f   TR_Trace:trace.obj
 0001:00042470       ?TR_setStream@@YAXPAVTR_Stream@@@Z 10043470 f   TR_Trace:trace.obj
 0001:00042480       ?ToggleIfNecessary@TR_AltFileStream@@UAEXXZ 10043480 f   TR_Trace:trace.obj
 0001:000424d0       ?ToggleIfNecessary@TR_StreamBase@@UAEXXZ 100434d0 f i TR_Trace:trace.obj
 0001:000424d1       ?_Add_vtordisp2@?$basic_ostream@DU?$char_traits@D@std@@@std@@$4PPPPPPPM@FI@AEXXZ 100434d1 f i TR_Trace:trace.obj
 0001:000424dd       ?_Add_vtordisp2@?$basic_ostream@_WU?$char_traits@_W@std@@@std@@$4PPPPPPPM@FI@AEXXZ 100434dd f i TR_Trace:trace.obj
 0001:000424f0       ?_Adopt@_Iterator_base0@std@@QAEXPBX@Z 100434f0 f i TR_Trace:trace.obj
 0001:00042500       ?_Buyheadnode@?$_List_alloc@$0A@U?$_List_base_types@HV?$allocator@H@std@@@std@@@std@@QAEPAU?$_List_node@HPAX@2@XZ 10043500 f i TR_Trace:trace.obj
 0001:00042510       ?_Buyheadnode@?$_List_alloc@$0A@U?$_List_base_types@PAVTR_Level@@V?$allocator@PAVTR_Level@@@std@@@std@@@std@@QAEPAU?$_List_node@PAVTR_Level@@PAX@2@XZ 10043510 f i TR_Trace:trace.obj
 0001:00042520       ?_Buyheadnode@?$_List_alloc@$0A@U?$_List_base_types@PAVTR_Module@@V?$allocator@PAVTR_Module@@@std@@@std@@@std@@QAEPAU?$_List_node@PAVTR_Module@@PAX@2@XZ 10043520 f i TR_Trace:trace.obj
 0001:00042530       ?_Buyheadnode@?$_Tree_alloc@$0A@U?$_Tree_base_types@U?$pair@$$CBHH@std@@V?$allocator@U?$pair@$$CBHH@std@@@2@@std@@@std@@QAEPAU?$_Tree_node@U?$pair@$$CBHH@std@@PAX@2@XZ 10043530 f i TR_Trace:trace.obj
 0001:000425f0       ?_Buynode0@?$_List_alloc@$0A@U?$_List_base_types@HV?$allocator@H@std@@@std@@@std@@QAEPAU?$_List_node@HPAX@2@PAU32@0@Z 100435f0 f i TR_Trace:trace.obj
 0001:000426a0       ?_Buynode0@?$_List_alloc@$0A@U?$_List_base_types@PAVTR_Level@@V?$allocator@PAVTR_Level@@@std@@@std@@@std@@QAEPAU?$_List_node@PAVTR_Level@@PAX@2@PAU32@0@Z 100436a0 f i TR_Trace:trace.obj
 0001:00042750       ?_Buynode0@?$_List_alloc@$0A@U?$_List_base_types@PAVTR_Module@@V?$allocator@PAVTR_Module@@@std@@@std@@@std@@QAEPAU?$_List_node@PAVTR_Module@@PAX@2@PAU32@0@Z 10043750 f i TR_Trace:trace.obj
 0001:00042800       ?_Buynode0@?$_Tree_buy@U?$pair@$$CBHH@std@@V?$allocator@U?$pair@$$CBHH@std@@@2@@std@@QAEPAU?$_Tree_node@U?$pair@$$CBHH@std@@PAX@2@XZ 10043800 f i TR_Trace:trace.obj
 0001:000428b0       ?_Change_alloc@?$_String_alloc@$0A@U?$_String_base_types@_WV?$allocator@_W@std@@@std@@@std@@QAEXABU?$_Wrap_alloc@V?$allocator@_W@std@@@2@@Z 100438b0 f i TR_Trace:trace.obj
 0001:000428c0       ?_Color@?$_Tree_val@U?$_Tree_simple_types@U?$pair@$$CBHH@std@@@std@@@std@@SAAADPAU?$_Tree_node@U?$pair@$$CBHH@std@@PAX@2@@Z 100438c0 f i TR_Trace:trace.obj
 0001:000428d0       ?_Compat@?$_String_const_iterator@V?$_String_val@U?$_Simple_types@_W@std@@@std@@@std@@QBEXABV12@@Z 100438d0 f i TR_Trace:trace.obj
 0001:000428e0       ?_Destroy_if_not_nil@?$_Tree@V?$_Tmap_traits@HHU?$less@H@std@@V?$allocator@U?$pair@$$CBHH@std@@@2@$0A@@std@@@std@@IAEXU_Nil@2@@Z 100438e0 f i TR_Trace:trace.obj
 0001:000428f0       ?_Endwrite@?$basic_filebuf@DU?$char_traits@D@std@@@std@@IAE_NXZ 100438f0 f i TR_Trace:trace.obj
 0001:00042a80       ?_Endwrite@?$basic_filebuf@_WU?$char_traits@_W@std@@@std@@IAE_NXZ 10043a80 f i TR_Trace:trace.obj
 0001:00042c20       ?_Erase@?$_Tree@V?$_Tmap_traits@HHU?$less@H@std@@V?$allocator@U?$pair@$$CBHH@std@@@2@$0A@@std@@@std@@IAEXPAU?$_Tree_node@U?$pair@$$CBHH@std@@PAX@2@@Z 10043c20 f i TR_Trace:trace.obj
 0001:00042c60       ?_Freeheadnode@?$_List_alloc@$0A@U?$_List_base_types@HV?$allocator@H@std@@@std@@@std@@QAEXPAU?$_List_node@HPAX@2@@Z 10043c60 f i TR_Trace:trace.obj
 0001:00042c80       ?_Freeheadnode@?$_List_alloc@$0A@U?$_List_base_types@PAVTR_Level@@V?$allocator@PAVTR_Level@@@std@@@std@@@std@@QAEXPAU?$_List_node@PAVTR_Level@@PAX@2@@Z 10043c80 f i TR_Trace:trace.obj
 0001:00042ca0       ?_Freeheadnode@?$_List_alloc@$0A@U?$_List_base_types@PAVTR_Module@@V?$allocator@PAVTR_Module@@@std@@@std@@@std@@QAEXPAU?$_List_node@PAVTR_Module@@PAX@2@@Z 10043ca0 f i TR_Trace:trace.obj
 0001:00042cc0       ?_Freeheadnode@?$_Tree_alloc@$0A@U?$_Tree_base_types@U?$pair@$$CBHH@std@@V?$allocator@U?$pair@$$CBHH@std@@@2@@std@@@std@@QAEXPAU?$_Tree_node@U?$pair@$$CBHH@std@@PAX@2@@Z 10043cc0 f i TR_Trace:trace.obj
 0001:00042ce0       ?_Freenode0@?$_Tree_buy@U?$pair@$$CBHH@std@@V?$allocator@U?$pair@$$CBHH@std@@@2@@std@@QAEXPAU?$_Tree_node@U?$pair@$$CBHH@std@@PAX@2@@Z 10043ce0 f i TR_Trace:trace.obj
 0001:00042d00       ?_Freenode@?$_List_buy@HV?$allocator@H@std@@@std@@QAEXPAU?$_List_node@HPAX@2@@Z 10043d00 f i TR_Trace:trace.obj
 0001:00042d20       ?_Freenode@?$_List_buy@PAVTR_Level@@V?$allocator@PAVTR_Level@@@std@@@std@@QAEXPAU?$_List_node@PAVTR_Level@@PAX@2@@Z 10043d20 f i TR_Trace:trace.obj
 0001:00042d40       ?_Freenode@?$_List_buy@PAVTR_Module@@V?$allocator@PAVTR_Module@@@std@@@std@@QAEXPAU?$_List_node@PAVTR_Module@@PAX@2@@Z 10043d40 f i TR_Trace:trace.obj
 0001:00042d60       ?_Getal@?$_List_alloc@$0A@U?$_List_base_types@HV?$allocator@H@std@@@std@@@std@@QBE?AU?$_Wrap_alloc@V?$allocator@U?$_List_node@HPAX@std@@@std@@@2@XZ 10043d60 f i TR_Trace:trace.obj
 0001:00042d70       ?_Getal@?$_List_alloc@$0A@U?$_List_base_types@PAVTR_Level@@V?$allocator@PAVTR_Level@@@std@@@std@@@std@@QBE?AU?$_Wrap_alloc@V?$allocator@U?$_List_node@PAVTR_Level@@PAX@std@@@std@@@2@XZ 10043d70 f i TR_Trace:trace.obj
 0001:00042d80       ?_Getal@?$_List_alloc@$0A@U?$_List_base_types@PAVTR_Module@@V?$allocator@PAVTR_Module@@@std@@@std@@@std@@QBE?AU?$_Wrap_alloc@V?$allocator@U?$_List_node@PAVTR_Module@@PAX@std@@@std@@@2@XZ 10043d80 f i TR_Trace:trace.obj
 0001:00042d90       ?_Getal@?$_Tree_alloc@$0A@U?$_Tree_base_types@U?$pair@$$CBHH@std@@V?$allocator@U?$pair@$$CBHH@std@@@2@@std@@@std@@QBE?AU?$_Wrap_alloc@V?$allocator@U?$_Tree_node@U?$pair@$$CBHH@std@@PAX@std@@@std@@@2@XZ 10043d90 f i TR_Trace:trace.obj
 0001:00042da0       ?_Getcomp@?$_Tree_comp@$0A@V?$_Tmap_traits@HHU?$less@H@std@@V?$allocator@U?$pair@$$CBHH@std@@@2@$0A@@std@@@std@@QBE?AU?$less@H@2@XZ 10043da0 f i TR_Trace:trace.obj
 0001:00042db0       ?_Getcont@_Iterator_base0@std@@QBEPBU_Container_base0@2@XZ 10043db0 f i TR_Trace:trace.obj
 0001:00042dc0       ?_Getfacet@locale@std@@QBEPBVfacet@12@I@Z 10043dc0 f i TR_Trace:trace.obj
 0001:00042e00       ?_Incsize@?$list@HV?$allocator@H@std@@@std@@QAEXI@Z 10043e00 f i TR_Trace:trace.obj
 0001:00042e30       ?_Incsize@?$list@PAVTR_Level@@V?$allocator@PAVTR_Level@@@std@@@std@@QAEXI@Z 10043e30 f i TR_Trace:trace.obj
 0001:00042e60       ?_Incsize@?$list@PAVTR_Module@@V?$allocator@PAVTR_Module@@@std@@@std@@QAEXI@Z 10043e60 f i TR_Trace:trace.obj
 0001:00042e90       ?_Init@?$basic_filebuf@DU?$char_traits@D@std@@@std@@IAEXPAU_iobuf@@W4_Initfl@12@@Z 10043e90 f i TR_Trace:trace.obj
 0001:00042ee0       ?_Init@?$basic_filebuf@_WU?$char_traits@_W@std@@@std@@IAEXPAU_iobuf@@W4_Initfl@12@@Z 10043ee0 f i TR_Trace:trace.obj
 0001:00042f20       ?_Initcvt@?$basic_filebuf@DU?$char_traits@D@std@@@std@@IAEXPBV?$codecvt@DDH@2@@Z 10043f20 f i TR_Trace:trace.obj
 0001:00042f60       ?_Initcvt@?$basic_filebuf@_WU?$char_traits@_W@std@@@std@@IAEXPBV?$codecvt@_WDH@2@@Z 10043f60 f i TR_Trace:trace.obj
 0001:00042fa0       ?_Isnil@?$_Tree_val@U?$_Tree_simple_types@U?$pair@$$CBHH@std@@@std@@@std@@SAAADPAU?$_Tree_node@U?$pair@$$CBHH@std@@PAX@2@@Z 10043fa0 f i TR_Trace:trace.obj
 0001:00042fb0       ?_Key@?$_Tree@V?$_Tmap_traits@HHU?$less@H@std@@V?$allocator@U?$pair@$$CBHH@std@@@2@$0A@@std@@@std@@IBEABHPAU?$_Tree_node@U?$pair@$$CBHH@std@@PAX@2@@Z 10043fb0 f i TR_Trace:trace.obj
 0001:00042fc0       ?_Kfn@?$_Tree@V?$_Tmap_traits@HHU?$less@H@std@@V?$allocator@U?$pair@$$CBHH@std@@@2@$0A@@std@@@std@@IBEABHABU?$pair@$$CBHH@2@@Z 10043fc0 f i TR_Trace:trace.obj
 0001:00042fd0       ?_Lbound@?$_Tree@V?$_Tmap_traits@HHU?$less@H@std@@V?$allocator@U?$pair@$$CBHH@std@@@2@$0A@@std@@@std@@IBEPAU?$_Tree_node@U?$pair@$$CBHH@std@@PAX@2@ABH@Z 10043fd0 f i TR_Trace:trace.obj
 0001:00043000       ?_Left@?$_Tree_val@U?$_Tree_simple_types@U?$pair@$$CBHH@std@@@std@@@std@@SAAAPAU?$_Tree_node@U?$pair@$$CBHH@std@@PAX@2@PAU32@@Z 10044000 f i TR_Trace:trace.obj
 0001:00043010       ?_Lmost@?$_Tree@V?$_Tmap_traits@HHU?$less@H@std@@V?$allocator@U?$pair@$$CBHH@std@@@2@$0A@@std@@@std@@IBEAAPAU?$_Tree_node@U?$pair@$$CBHH@std@@PAX@2@XZ 10044010 f i TR_Trace:trace.obj
 0001:00043020       ?_Lock@?$basic_filebuf@DU?$char_traits@D@std@@@std@@UAEXXZ 10044020 f i TR_Trace:trace.obj
 0001:00043030       ?_Lock@?$basic_filebuf@_WU?$char_traits@_W@std@@@std@@UAEXXZ 10044030 f i TR_Trace:trace.obj
 0001:00043040       ?_Lrotate@?$_Tree@V?$_Tmap_traits@HHU?$less@H@std@@V?$allocator@U?$pair@$$CBHH@std@@@2@$0A@@std@@@std@@IAEXPAU?$_Tree_node@U?$pair@$$CBHH@std@@PAX@2@@Z 10044040 f i TR_Trace:trace.obj
 0001:000430a0       ?_Make_iter@?$list@HV?$allocator@H@std@@@std@@QBE?AV?$_List_iterator@V?$_List_val@U?$_List_simple_types@H@std@@@std@@@2@V?$_List_const_iterator@V?$_List_val@U?$_List_simple_types@H@std@@@std@@@2@@Z 100440a0 f i TR_Trace:trace.obj
 0001:000430b0       ?_Make_iter@?$list@PAVTR_Module@@V?$allocator@PAVTR_Module@@@std@@@std@@QBE?AV?$_List_iterator@V?$_List_val@U?$_List_simple_types@PAVTR_Module@@@std@@@std@@@2@V?$_List_const_iterator@V?$_List_val@U?$_List_simple_types@PAVTR_Module@@@std@@@std@@@2@@Z 100440b0 f i TR_Trace:trace.obj
 0001:000430c0       ?_Max@?$_Tree_val@U?$_Tree_simple_types@U?$pair@$$CBHH@std@@@std@@@std@@SAPAU?$_Tree_node@U?$pair@$$CBHH@std@@PAX@2@PAU32@@Z 100440c0 f i TR_Trace:trace.obj
 0001:000430e0       ?_Min@?$_Tree_val@U?$_Tree_simple_types@U?$pair@$$CBHH@std@@@std@@@std@@SAPAU?$_Tree_node@U?$pair@$$CBHH@std@@PAX@2@PAU32@@Z 100440e0 f i TR_Trace:trace.obj
 0001:00043100       ?_Mynode@?$_List_unchecked_const_iterator@V?$_List_val@U?$_List_simple_types@H@std@@@std@@U_Iterator_base0@2@@std@@QBEPAU?$_List_node@HPAX@2@XZ 10044100 f i TR_Trace:trace.obj
 0001:00043110       ?_Mynode@?$_List_unchecked_const_iterator@V?$_List_val@U?$_List_simple_types@PAVTR_Level@@@std@@@std@@U_Iterator_base0@2@@std@@QBEPAU?$_List_node@PAVTR_Level@@PAX@2@XZ 10044110 f i TR_Trace:trace.obj
 0001:00043120       ?_Mynode@?$_List_unchecked_const_iterator@V?$_List_val@U?$_List_simple_types@PAVTR_Module@@@std@@@std@@U_Iterator_base0@2@@std@@QBEPAU?$_List_node@PAVTR_Module@@PAX@2@XZ 10044120 f i TR_Trace:trace.obj
 0001:00043130       ?_Mynode@?$_Tree_unchecked_const_iterator@V?$_Tree_val@U?$_Tree_simple_types@U?$pair@$$CBHH@std@@@std@@@std@@U_Iterator_base0@2@@std@@QBEPAU?$_Tree_node@U?$pair@$$CBHH@std@@PAX@2@XZ 10044130 f i TR_Trace:trace.obj
 0001:00043140       ?_Myval@?$_List_val@U?$_List_simple_types@H@std@@@std@@SAAAHPAU?$_List_node@HPAX@2@@Z 10044140 f i TR_Trace:trace.obj
 0001:00043150       ?_Myval@?$_List_val@U?$_List_simple_types@PAVTR_Level@@@std@@@std@@SAAAPAVTR_Level@@PAU?$_List_node@PAVTR_Level@@PAX@2@@Z 10044150 f i TR_Trace:trace.obj
 0001:00043160       ?_Myval@?$_List_val@U?$_List_simple_types@PAVTR_Module@@@std@@@std@@SAAAPAVTR_Module@@PAU?$_List_node@PAVTR_Module@@PAX@2@@Z 10044160 f i TR_Trace:trace.obj
 0001:00043170       ?_Myval@?$_Tree_val@U?$_Tree_simple_types@U?$pair@$$CBHH@std@@@std@@@std@@SAAAU?$pair@$$CBHH@2@PAU?$_Tree_node@U?$pair@$$CBHH@std@@PAX@2@@Z 10044170 f i TR_Trace:trace.obj
 0001:00043180       ?_Nextnode@?$_List_val@U?$_List_simple_types@H@std@@@std@@SAAAPAU?$_List_node@HPAX@2@PAU32@@Z 10044180 f i TR_Trace:trace.obj
 0001:00043190       ?_Nextnode@?$_List_val@U?$_List_simple_types@PAVTR_Level@@@std@@@std@@SAAAPAU?$_List_node@PAVTR_Level@@PAX@2@PAU32@@Z 10044190 f i TR_Trace:trace.obj
 0001:000431a0       ?_Nextnode@?$_List_val@U?$_List_simple_types@PAVTR_Module@@@std@@@std@@SAAAPAU?$_List_node@PAVTR_Module@@PAX@2@PAU32@@Z 100441a0 f i TR_Trace:trace.obj
 0001:000431b0       ?_Parent@?$_Tree_val@U?$_Tree_simple_types@U?$pair@$$CBHH@std@@@std@@@std@@SAAAPAU?$_Tree_node@U?$pair@$$CBHH@std@@PAX@2@PAU32@@Z 100441b0 f i TR_Trace:trace.obj
 0001:000431c0       ?_Pdif@?$basic_string@_WU?$char_traits@_W@std@@V?$allocator@_W@2@@std@@SAIV?$_String_const_iterator@V?$_String_val@U?$_Simple_types@_W@std@@@std@@@2@0@Z 100441c0 f i TR_Trace:trace.obj
 0001:000431e0       ?_Prevnode@?$_List_val@U?$_List_simple_types@H@std@@@std@@SAAAPAU?$_List_node@HPAX@2@PAU32@@Z 100441e0 f i TR_Trace:trace.obj
 0001:000431f0       ?_Prevnode@?$_List_val@U?$_List_simple_types@PAVTR_Level@@@std@@@std@@SAAAPAU?$_List_node@PAVTR_Level@@PAX@2@PAU32@@Z 100441f0 f i TR_Trace:trace.obj
 0001:00043200       ?_Prevnode@?$_List_val@U?$_List_simple_types@PAVTR_Module@@@std@@@std@@SAAAPAU?$_List_node@PAVTR_Module@@PAX@2@PAU32@@Z 10044200 f i TR_Trace:trace.obj
 0001:00043210       ?_Reset_back@?$basic_filebuf@DU?$char_traits@D@std@@@std@@AAEXXZ 10044210 f i TR_Trace:trace.obj
 0001:00043240       ?_Reset_back@?$basic_filebuf@_WU?$char_traits@_W@std@@@std@@AAEXXZ 10044240 f i TR_Trace:trace.obj
 0001:00043270       ?_Right@?$_Tree_val@U?$_Tree_simple_types@U?$pair@$$CBHH@std@@@std@@@std@@SAAAPAU?$_Tree_node@U?$pair@$$CBHH@std@@PAX@2@PAU32@@Z 10044270 f i TR_Trace:trace.obj
 0001:00043280       ?_Rmost@?$_Tree@V?$_Tmap_traits@HHU?$less@H@std@@V?$allocator@U?$pair@$$CBHH@std@@@2@$0A@@std@@@std@@IBEAAPAU?$_Tree_node@U?$pair@$$CBHH@std@@PAX@2@XZ 10044280 f i TR_Trace:trace.obj
 0001:00043290       ?_Root@?$_Tree@V?$_Tmap_traits@HHU?$less@H@std@@V?$allocator@U?$pair@$$CBHH@std@@@2@$0A@@std@@@std@@IBEAAPAU?$_Tree_node@U?$pair@$$CBHH@std@@PAX@2@XZ 10044290 f i TR_Trace:trace.obj
 0001:000432a0       ?_Rrotate@?$_Tree@V?$_Tmap_traits@HHU?$less@H@std@@V?$allocator@U?$pair@$$CBHH@std@@@2@$0A@@std@@@std@@IAEXPAU?$_Tree_node@U?$pair@$$CBHH@std@@PAX@2@@Z 100442a0 f i TR_Trace:trace.obj
 0001:00043300       ?_Set_back@?$basic_filebuf@DU?$char_traits@D@std@@@std@@AAEXXZ 10044300 f i TR_Trace:trace.obj
 0001:00043340       ?_Set_back@?$basic_filebuf@_WU?$char_traits@_W@std@@@std@@AAEXXZ 10044340 f i TR_Trace:trace.obj
 0001:00043380       ?_Splice@?$list@PAVTR_Module@@V?$allocator@PAVTR_Module@@@std@@@std@@QAEXV?$_List_const_iterator@V?$_List_val@U?$_List_simple_types@PAVTR_Module@@@std@@@std@@@2@AAV12@00I@Z 10044380 f i TR_Trace:trace.obj
 0001:000433a0       ?_Splice_same@?$list@PAVTR_Module@@V?$allocator@PAVTR_Module@@@std@@@std@@QAEXV?$_List_const_iterator@V?$_List_val@U?$_List_simple_types@PAVTR_Module@@@std@@@std@@@2@AAV12@00I@Z 100443a0 f i TR_Trace:trace.obj
 0001:00043420       ?_Swap_alloc@?$_List_alloc@$0A@U?$_List_base_types@PAVTR_Module@@V?$allocator@PAVTR_Module@@@std@@@std@@@std@@QAEXAAV12@@Z 10044420 f i TR_Trace:trace.obj
 0001:00043430       ?_Tidy@?$_Tree@V?$_Tmap_traits@HHU?$less@H@std@@V?$allocator@U?$pair@$$CBHH@std@@@2@$0A@@std@@@std@@IAEXXZ 10044430 f i TR_Trace:trace.obj
 0001:00043450       ?_Tidy@?$list@HV?$allocator@H@std@@@std@@QAEXXZ 10044450 f i TR_Trace:trace.obj
 0001:00043490       ?_Tidy@?$list@PAVTR_Level@@V?$allocator@PAVTR_Level@@@std@@@std@@QAEXXZ 10044490 f i TR_Trace:trace.obj
 0001:000434d0       ?_Tidy@?$list@PAVTR_Module@@V?$allocator@PAVTR_Module@@@std@@@std@@QAEXXZ 100444d0 f i TR_Trace:trace.obj
 0001:00043510       ?_Unchecked@?$_List_const_iterator@V?$_List_val@U?$_List_simple_types@H@std@@@std@@@std@@QBE?AV?$_List_unchecked_const_iterator@V?$_List_val@U?$_List_simple_types@H@std@@@std@@U_Iterator_base0@2@@2@XZ 10044510 f i TR_Trace:trace.obj
 0001:00043520       ?_Unchecked@?$_List_const_iterator@V?$_List_val@U?$_List_simple_types@PAVTR_Module@@@std@@@std@@@std@@QBE?AV?$_List_unchecked_const_iterator@V?$_List_val@U?$_List_simple_types@PAVTR_Module@@@std@@@std@@U_Iterator_base0@2@@2@XZ 10044520 f i TR_Trace:trace.obj
 0001:00043530       ?_Unchecked_end@?$list@HV?$allocator@H@std@@@std@@QAE?AV?$_List_unchecked_iterator@V?$_List_val@U?$_List_simple_types@H@std@@@std@@@2@XZ 10044530 f i TR_Trace:trace.obj
 0001:00043540       ?_Unchecked_end@?$list@PAVTR_Level@@V?$allocator@PAVTR_Level@@@std@@@std@@QAE?AV?$_List_unchecked_iterator@V?$_List_val@U?$_List_simple_types@PAVTR_Level@@@std@@@std@@@2@XZ 10044540 f i TR_Trace:trace.obj
 0001:00043550       ?_Unchecked_end@?$list@PAVTR_Module@@V?$allocator@PAVTR_Module@@@std@@@std@@QAE?AV?$_List_unchecked_iterator@V?$_List_val@U?$_List_simple_types@PAVTR_Module@@@std@@@std@@@2@XZ 10044550 f i TR_Trace:trace.obj
 0001:00043560       ?_Unchecked_erase@?$list@HV?$allocator@H@std@@@std@@QAEXV?$_List_unchecked_const_iterator@V?$_List_val@U?$_List_simple_types@H@std@@@std@@U_Iterator_base0@2@@2@@Z 10044560 f i TR_Trace:trace.obj
 0001:00043590       ?_Unlock@?$basic_filebuf@DU?$char_traits@D@std@@@std@@UAEXXZ 10044590 f i TR_Trace:trace.obj
 0001:000435a0       ?_Unlock@?$basic_filebuf@_WU?$char_traits@_W@std@@@std@@UAEXXZ 100445a0 f i TR_Trace:trace.obj
 0001:000435b0       ?allocate@?$_Wrap_alloc@V?$allocator@U?$_List_node@HPAX@std@@@std@@@std@@QAEPAU?$_List_node@HPAX@2@I@Z 100445b0 f i TR_Trace:trace.obj
 0001:000435f0       ?allocate@?$_Wrap_alloc@V?$allocator@U?$_List_node@PAVTR_Level@@PAX@std@@@std@@@std@@QAEPAU?$_List_node@PAVTR_Level@@PAX@2@I@Z 100445f0 f i TR_Trace:trace.obj
 0001:00043630       ?allocate@?$_Wrap_alloc@V?$allocator@U?$_List_node@PAVTR_Module@@PAX@std@@@std@@@std@@QAEPAU?$_List_node@PAVTR_Module@@PAX@2@I@Z 10044630 f i TR_Trace:trace.obj
 0001:00043670       ?allocate@?$_Wrap_alloc@V?$allocator@U?$_Tree_node@U?$pair@$$CBHH@std@@PAX@std@@@std@@@std@@QAEPAU?$_Tree_node@U?$pair@$$CBHH@std@@PAX@2@I@Z 10044670 f i TR_Trace:trace.obj
 0001:000436b0       ?allocate@?$allocator@U?$_List_node@HPAX@std@@@std@@QAEPAU?$_List_node@HPAX@2@I@Z 100446b0 f i TR_Trace:trace.obj
 0001:000436f0       ?allocate@?$allocator@U?$_List_node@PAVTR_Level@@PAX@std@@@std@@QAEPAU?$_List_node@PAVTR_Level@@PAX@2@I@Z 100446f0 f i TR_Trace:trace.obj
 0001:00043730       ?allocate@?$allocator@U?$_List_node@PAVTR_Module@@PAX@std@@@std@@QAEPAU?$_List_node@PAVTR_Module@@PAX@2@I@Z 10044730 f i TR_Trace:trace.obj
 0001:00043770       ?allocate@?$allocator@U?$_Tree_node@U?$pair@$$CBHH@std@@PAX@std@@@std@@QAEPAU?$_Tree_node@U?$pair@$$CBHH@std@@PAX@2@I@Z 10044770 f i TR_Trace:trace.obj
 0001:000437b0       ?assign@?$basic_string@DU?$char_traits@D@std@@V?$allocator@D@2@@std@@QAEAAV12@ID@Z 100447b0 f i TR_Trace:trace.obj
 0001:00043870       ?assign@?$basic_string@_WU?$char_traits@_W@std@@V?$allocator@_W@2@@std@@QAEAAV12@ABV12@@Z 10044870 f i TR_Trace:trace.obj
 0001:00043890       ?begin@?$_Tree@V?$_Tmap_traits@HHU?$less@H@std@@V?$allocator@U?$pair@$$CBHH@std@@@2@$0A@@std@@@std@@QAE?AV?$_Tree_iterator@V?$_Tree_val@U?$_Tree_simple_types@U?$pair@$$CBHH@std@@@std@@@std@@@2@XZ 10044890 f i TR_Trace:trace.obj
 0001:000438a0       ?begin@?$_Tree@V?$_Tmap_traits@HHU?$less@H@std@@V?$allocator@U?$pair@$$CBHH@std@@@2@$0A@@std@@@std@@QBE?AV?$_Tree_const_iterator@V?$_Tree_val@U?$_Tree_simple_types@U?$pair@$$CBHH@std@@@std@@@std@@@2@XZ 100448a0 f i TR_Trace:trace.obj
 0001:000438b0       ?begin@?$basic_string@DU?$char_traits@D@std@@V?$allocator@D@2@@std@@QAE?AV?$_String_iterator@V?$_String_val@U?$_Simple_types@D@std@@@std@@@2@XZ 100448b0 f i TR_Trace:trace.obj
 0001:000438d0       ?begin@?$basic_string@_WU?$char_traits@_W@std@@V?$allocator@_W@2@@std@@QAE?AV?$_String_iterator@V?$_String_val@U?$_Simple_types@_W@std@@@std@@@2@XZ 100448d0 f i TR_Trace:trace.obj
 0001:000438f0       ?begin@?$list@HV?$allocator@H@std@@@std@@QAE?AV?$_List_iterator@V?$_List_val@U?$_List_simple_types@H@std@@@std@@@2@XZ 100448f0 f i TR_Trace:trace.obj
 0001:00043900       ?begin@?$list@HV?$allocator@H@std@@@std@@QBE?AV?$_List_const_iterator@V?$_List_val@U?$_List_simple_types@H@std@@@std@@@2@XZ 10044900 f i TR_Trace:trace.obj
 0001:00043910       ?begin@?$list@PAVTR_Level@@V?$allocator@PAVTR_Level@@@std@@@std@@QAE?AV?$_List_iterator@V?$_List_val@U?$_List_simple_types@PAVTR_Level@@@std@@@std@@@2@XZ 10044910 f i TR_Trace:trace.obj
 0001:00043920       ?begin@?$list@PAVTR_Level@@V?$allocator@PAVTR_Level@@@std@@@std@@QBE?AV?$_List_const_iterator@V?$_List_val@U?$_List_simple_types@PAVTR_Level@@@std@@@std@@@2@XZ 10044920 f i TR_Trace:trace.obj
 0001:00043930       ?begin@?$list@PAVTR_Module@@V?$allocator@PAVTR_Module@@@std@@@std@@QAE?AV?$_List_iterator@V?$_List_val@U?$_List_simple_types@PAVTR_Module@@@std@@@std@@@2@XZ 10044930 f i TR_Trace:trace.obj
 0001:00043940       ?begin@?$list@PAVTR_Module@@V?$allocator@PAVTR_Module@@@std@@@std@@QBE?AV?$_List_const_iterator@V?$_List_val@U?$_List_simple_types@PAVTR_Module@@@std@@@std@@@2@XZ 10044940 f i TR_Trace:trace.obj
 0001:00043950       ?c_str@?$basic_string@DU?$char_traits@D@std@@V?$allocator@D@2@@std@@QBEPBDXZ 10044950 f i TR_Trace:trace.obj
 0001:00043960       ?clear@?$_Tree@V?$_Tmap_traits@HHU?$less@H@std@@V?$allocator@U?$pair@$$CBHH@std@@@2@$0A@@std@@@std@@QAEXXZ 10044960 f i TR_Trace:trace.obj
 0001:000439b0       ?clear@?$list@HV?$allocator@H@std@@@std@@QAEXXZ 100449b0 f i TR_Trace:trace.obj
 0001:000439f0       ?clear@?$list@PAVTR_Level@@V?$allocator@PAVTR_Level@@@std@@@std@@QAEXXZ 100449f0 f i TR_Trace:trace.obj
 0001:00043a30       ?clear@?$list@PAVTR_Module@@V?$allocator@PAVTR_Module@@@std@@@std@@QAEXXZ 10044a30 f i TR_Trace:trace.obj
 0001:00043a70       ?close@?$basic_filebuf@DU?$char_traits@D@std@@@std@@QAEPAV12@XZ 10044a70 f i TR_Trace:trace.obj
 0001:00043ad0       ?close@?$basic_filebuf@_WU?$char_traits@_W@std@@@std@@QAEPAV12@XZ 10044ad0 f i TR_Trace:trace.obj
 0001:00043b30       ?close@?$basic_ofstream@DU?$char_traits@D@std@@@std@@QAEXXZ 10044b30 f i TR_Trace:trace.obj
 0001:00043b60       ?close@?$basic_ofstream@_WU?$char_traits@_W@std@@@std@@QAEXXZ 10044b60 f i TR_Trace:trace.obj
 0001:00043b90       ?compare@?$char_traits@_W@std@@SAHPB_W0I@Z 10044b90 f i TR_Trace:trace.obj
 0001:00043bd0       ?compareName@@YA_NPAVTR_Module@@0@Z 10044bd0 f   TR_Trace:trace.obj
 0001:00043f70       ?deallocate@?$_Wrap_alloc@V?$allocator@U?$_List_node@HPAX@std@@@std@@@std@@QAEXPAU?$_List_node@HPAX@2@I@Z 10044f70 f i TR_Trace:trace.obj
 0001:00043f90       ?deallocate@?$_Wrap_alloc@V?$allocator@U?$_List_node@PAVTR_Level@@PAX@std@@@std@@@std@@QAEXPAU?$_List_node@PAVTR_Level@@PAX@2@I@Z 10044f90 f i TR_Trace:trace.obj
 0001:00043fb0       ?deallocate@?$_Wrap_alloc@V?$allocator@U?$_List_node@PAVTR_Module@@PAX@std@@@std@@@std@@QAEXPAU?$_List_node@PAVTR_Module@@PAX@2@I@Z 10044fb0 f i TR_Trace:trace.obj
 0001:00043fd0       ?deallocate@?$_Wrap_alloc@V?$allocator@U?$_Tree_node@U?$pair@$$CBHH@std@@PAX@std@@@std@@@std@@QAEXPAU?$_Tree_node@U?$pair@$$CBHH@std@@PAX@2@I@Z 10044fd0 f i TR_Trace:trace.obj
 0001:00043ff0       ?deallocate@?$allocator@U?$_List_node@HPAX@std@@@std@@QAEXPAU?$_List_node@HPAX@2@I@Z 10044ff0 f i TR_Trace:trace.obj
 0001:00044010       ?deallocate@?$allocator@U?$_List_node@PAVTR_Level@@PAX@std@@@std@@QAEXPAU?$_List_node@PAVTR_Level@@PAX@2@I@Z 10045010 f i TR_Trace:trace.obj
 0001:00044030       ?deallocate@?$allocator@U?$_List_node@PAVTR_Module@@PAX@std@@@std@@QAEXPAU?$_List_node@PAVTR_Module@@PAX@2@I@Z 10045030 f i TR_Trace:trace.obj
 0001:00044050       ?deallocate@?$allocator@U?$_Tree_node@U?$pair@$$CBHH@std@@PAX@std@@@std@@QAEXPAU?$_Tree_node@U?$pair@$$CBHH@std@@PAX@2@I@Z 10045050 f i TR_Trace:trace.obj
 0001:00044070       ?empty@?$basic_string@_WU?$char_traits@_W@std@@V?$allocator@_W@2@@std@@QBE_NXZ 10045070 f i TR_Trace:trace.obj
 0001:00044080       ?empty@?$list@HV?$allocator@H@std@@@std@@QBE_NXZ 10045080 f i TR_Trace:trace.obj
 0001:00044090       ?empty@?$list@PAVTR_Module@@V?$allocator@PAVTR_Module@@@std@@@std@@QBE_NXZ 10045090 f i TR_Trace:trace.obj
 0001:000440a0       ?end@?$_Tree@V?$_Tmap_traits@HHU?$less@H@std@@V?$allocator@U?$pair@$$CBHH@std@@@2@$0A@@std@@@std@@QAE?AV?$_Tree_iterator@V?$_Tree_val@U?$_Tree_simple_types@U?$pair@$$CBHH@std@@@std@@@std@@@2@XZ 100450a0 f i TR_Trace:trace.obj
 0001:000440b0       ?end@?$_Tree@V?$_Tmap_traits@HHU?$less@H@std@@V?$allocator@U?$pair@$$CBHH@std@@@2@$0A@@std@@@std@@QBE?AV?$_Tree_const_iterator@V?$_Tree_val@U?$_Tree_simple_types@U?$pair@$$CBHH@std@@@std@@@std@@@2@XZ 100450b0 f i TR_Trace:trace.obj
 0001:000440c0       ?end@?$basic_string@_WU?$char_traits@_W@std@@V?$allocator@_W@2@@std@@QAE?AV?$_String_iterator@V?$_String_val@U?$_Simple_types@_W@std@@@std@@@2@XZ 100450c0 f i TR_Trace:trace.obj
 0001:000440f0       ?end@?$list@HV?$allocator@H@std@@@std@@QAE?AV?$_List_iterator@V?$_List_val@U?$_List_simple_types@H@std@@@std@@@2@XZ 100450f0 f i TR_Trace:trace.obj
 0001:00044100       ?end@?$list@HV?$allocator@H@std@@@std@@QBE?AV?$_List_const_iterator@V?$_List_val@U?$_List_simple_types@H@std@@@std@@@2@XZ 10045100 f i TR_Trace:trace.obj
 0001:00044110       ?end@?$list@PAVTR_Level@@V?$allocator@PAVTR_Level@@@std@@@std@@QAE?AV?$_List_iterator@V?$_List_val@U?$_List_simple_types@PAVTR_Level@@@std@@@std@@@2@XZ 10045110 f i TR_Trace:trace.obj
 0001:00044120       ?end@?$list@PAVTR_Level@@V?$allocator@PAVTR_Level@@@std@@@std@@QBE?AV?$_List_const_iterator@V?$_List_val@U?$_List_simple_types@PAVTR_Level@@@std@@@std@@@2@XZ 10045120 f i TR_Trace:trace.obj
 0001:00044130       ?end@?$list@PAVTR_Module@@V?$allocator@PAVTR_Module@@@std@@@std@@QAE?AV?$_List_iterator@V?$_List_val@U?$_List_simple_types@PAVTR_Module@@@std@@@std@@@2@XZ 10045130 f i TR_Trace:trace.obj
 0001:00044140       ?end@?$list@PAVTR_Module@@V?$allocator@PAVTR_Module@@@std@@@std@@QBE?AV?$_List_const_iterator@V?$_List_val@U?$_List_simple_types@PAVTR_Module@@@std@@@std@@@2@XZ 10045140 f i TR_Trace:trace.obj
 0001:00044150       ?eof@?$char_traits@_W@std@@SAGXZ 10045150 f i TR_Trace:trace.obj
 0001:00044160       ?eq_int_type@?$char_traits@_W@std@@SA_NABG0@Z 10045160 f i TR_Trace:trace.obj
 0001:00044180       ?erase@?$_Tree@V?$_Tmap_traits@HHU?$less@H@std@@V?$allocator@U?$pair@$$CBHH@std@@@2@$0A@@std@@@std@@QAE?AV?$_Tree_iterator@V?$_Tree_val@U?$_Tree_simple_types@U?$pair@$$CBHH@std@@@std@@@std@@@2@V?$_Tree_const_iterator@V?$_Tree_val@U?$_Tree_simple_types@U?$pair@$$CBHH@std@@@std@@@std@@@2@0@Z 10045180 f i TR_Trace:trace.obj
 0001:00044220       ?erase@?$_Tree@V?$_Tmap_traits@HHU?$less@H@std@@V?$allocator@U?$pair@$$CBHH@std@@@2@$0A@@std@@@std@@QAE?AV?$_Tree_iterator@V?$_Tree_val@U?$_Tree_simple_types@U?$pair@$$CBHH@std@@@std@@@std@@@2@V?$_Tree_const_iterator@V?$_Tree_val@U?$_Tree_simple_types@U?$pair@$$CBHH@std@@@std@@@std@@@2@@Z 10045220 f i TR_Trace:trace.obj
 0001:00044480       ?erase@?$list@PAVTR_Module@@V?$allocator@PAVTR_Module@@@std@@@std@@QAE?AV?$_List_iterator@V?$_List_val@U?$_List_simple_types@PAVTR_Module@@@std@@@std@@@2@V?$_List_const_iterator@V?$_List_val@U?$_List_simple_types@PAVTR_Module@@@std@@@std@@@2@0@Z 10045480 f i TR_Trace:trace.obj
 0001:000444f0       ?erase@?$list@PAVTR_Module@@V?$allocator@PAVTR_Module@@@std@@@std@@QAE?AV?$_List_iterator@V?$_List_val@U?$_List_simple_types@PAVTR_Module@@@std@@@std@@@2@V?$_List_const_iterator@V?$_List_val@U?$_List_simple_types@PAVTR_Module@@@std@@@std@@@2@@Z 100454f0 f i TR_Trace:trace.obj
 0001:00044540       ?find@?$_Tree@V?$_Tmap_traits@HHU?$less@H@std@@V?$allocator@U?$pair@$$CBHH@std@@@2@$0A@@std@@@std@@QBE?AV?$_Tree_const_iterator@V?$_Tree_val@U?$_Tree_simple_types@U?$pair@$$CBHH@std@@@std@@@std@@@2@ABH@Z 10045540 f i TR_Trace:trace.obj
 0001:00044590       ?find@?$basic_string@_WU?$char_traits@_W@std@@V?$allocator@_W@2@@std@@QBEIPB_WII@Z 10045590 f i TR_Trace:trace.obj
 0001:00044680       ?find@?$basic_string@_WU?$char_traits@_W@std@@V?$allocator@_W@2@@std@@QBEI_WI@Z 10045680 f i TR_Trace:trace.obj
 0001:000446a0       ?find@?$char_traits@_W@std@@SAPB_WPB_WIAB_W@Z 100456a0 f i TR_Trace:trace.obj
 0001:000446d0       ?get_allocator@?$basic_string@_WU?$char_traits@_W@std@@V?$allocator@_W@2@@std@@QBE?AV?$allocator@_W@2@XZ 100456d0 f i TR_Trace:trace.obj
 0001:000446e0       ?imbue@?$basic_filebuf@DU?$char_traits@D@std@@@std@@MAEXABVlocale@2@@Z 100456e0 f i TR_Trace:trace.obj
 0001:00044720       ?imbue@?$basic_filebuf@_WU?$char_traits@_W@std@@@std@@MAEXABVlocale@2@@Z 10045720 f i TR_Trace:trace.obj
 0001:00044860       ?insert@?$_Tree@V?$_Tmap_traits@HHU?$less@H@std@@V?$allocator@U?$pair@$$CBHH@std@@@2@$0A@@std@@@std@@QAE?AU?$pair@V?$_Tree_iterator@V?$_Tree_val@U?$_Tree_simple_types@U?$pair@$$CBHH@std@@@std@@@std@@@std@@_N@2@$$QAU?$pair@$$CBHH@2@@Z 10045860 f i TR_Trace:trace.obj
 0001:000448a0       ?insert@?$basic_string@_WU?$char_traits@_W@std@@V?$allocator@_W@2@@std@@QAEAAV12@IABV12@@Z 100458a0 f i TR_Trace:trace.obj
 0001:000448c0       ?insert@?$basic_string@_WU?$char_traits@_W@std@@V?$allocator@_W@2@@std@@QAEAAV12@IABV12@II@Z 100458c0 f i TR_Trace:trace.obj
 0001:00044a40       ?insert@?$list@PAVTR_Module@@V?$allocator@PAVTR_Module@@@std@@@std@@QAE?AV?$_List_iterator@V?$_List_val@U?$_List_simple_types@PAVTR_Module@@@std@@@std@@@2@V?$_List_const_iterator@V?$_List_val@U?$_List_simple_types@PAVTR_Module@@@std@@@std@@@2@$$QAPAVTR_Module@@@Z 10045a40 f i TR_Trace:trace.obj
 0001:00044a90       ?is_open@?$basic_filebuf@DU?$char_traits@D@std@@@std@@QBE_NXZ 10045a90 f i TR_Trace:trace.obj
 0001:00044aa0       ?is_open@?$basic_ofstream@DU?$char_traits@D@std@@@std@@QBE_NXZ 10045aa0 f i TR_Trace:trace.obj
 0001:00044ab0       ?lower_bound@?$_Tree@V?$_Tmap_traits@HHU?$less@H@std@@V?$allocator@U?$pair@$$CBHH@std@@@2@$0A@@std@@@std@@QBE?AV?$_Tree_const_iterator@V?$_Tree_val@U?$_Tree_simple_types@U?$pair@$$CBHH@std@@@std@@@std@@@2@ABH@Z 10045ab0 f i TR_Trace:trace.obj
 0001:00044ae0       ?max_size@?$_Tree@V?$_Tmap_traits@HHU?$less@H@std@@V?$allocator@U?$pair@$$CBHH@std@@@2@$0A@@std@@@std@@QBEIXZ 10045ae0 f i TR_Trace:trace.obj
 0001:00044af0       ?max_size@?$_Wrap_alloc@V?$allocator@U?$_List_node@HPAX@std@@@std@@@std@@QBEIXZ 10045af0 f i TR_Trace:trace.obj
 0001:00044b00       ?max_size@?$_Wrap_alloc@V?$allocator@U?$_List_node@PAVTR_Level@@PAX@std@@@std@@@std@@QBEIXZ 10045b00 f i TR_Trace:trace.obj
 0001:00044b10       ?max_size@?$_Wrap_alloc@V?$allocator@U?$_List_node@PAVTR_Module@@PAX@std@@@std@@@std@@QBEIXZ 10045b10 f i TR_Trace:trace.obj
 0001:00044b20       ?max_size@?$_Wrap_alloc@V?$allocator@U?$_Tree_node@U?$pair@$$CBHH@std@@PAX@std@@@std@@@std@@QBEIXZ 10045b20 f i TR_Trace:trace.obj
 0001:00044b30       ?max_size@?$allocator@U?$_List_node@HPAX@std@@@std@@QBEIXZ 10045b30 f i TR_Trace:trace.obj
 0001:00044b40       ?max_size@?$allocator@U?$_List_node@PAVTR_Level@@PAX@std@@@std@@QBEIXZ 10045b40 f i TR_Trace:trace.obj
 0001:00044b50       ?max_size@?$allocator@U?$_List_node@PAVTR_Module@@PAX@std@@@std@@QBEIXZ 10045b50 f i TR_Trace:trace.obj
 0001:00044b60       ?max_size@?$allocator@U?$_Tree_node@U?$pair@$$CBHH@std@@PAX@std@@@std@@QBEIXZ 10045b60 f i TR_Trace:trace.obj
 0001:00044b70       ?max_size@?$allocator_traits@V?$allocator@U?$_List_node@HPAX@std@@@std@@@std@@SAIABV?$allocator@U?$_List_node@HPAX@std@@@2@@Z 10045b70 f i TR_Trace:trace.obj
 0001:00044b80       ?max_size@?$allocator_traits@V?$allocator@U?$_List_node@PAVTR_Level@@PAX@std@@@std@@@std@@SAIABV?$allocator@U?$_List_node@PAVTR_Level@@PAX@std@@@2@@Z 10045b80 f i TR_Trace:trace.obj
 0001:00044b90       ?max_size@?$allocator_traits@V?$allocator@U?$_List_node@PAVTR_Module@@PAX@std@@@std@@@std@@SAIABV?$allocator@U?$_List_node@PAVTR_Module@@PAX@std@@@2@@Z 10045b90 f i TR_Trace:trace.obj
 0001:00044ba0       ?max_size@?$allocator_traits@V?$allocator@U?$_Tree_node@U?$pair@$$CBHH@std@@PAX@std@@@std@@@std@@SAIABV?$allocator@U?$_Tree_node@U?$pair@$$CBHH@std@@PAX@std@@@2@@Z 10045ba0 f i TR_Trace:trace.obj
 0001:00044bb0       ?max_size@?$list@HV?$allocator@H@std@@@std@@QBEIXZ 10045bb0 f i TR_Trace:trace.obj
 0001:00044bc0       ?max_size@?$list@PAVTR_Level@@V?$allocator@PAVTR_Level@@@std@@@std@@QBEIXZ 10045bc0 f i TR_Trace:trace.obj
 0001:00044bd0       ?max_size@?$list@PAVTR_Module@@V?$allocator@PAVTR_Module@@@std@@@std@@QBEIXZ 10045bd0 f i TR_Trace:trace.obj
 0001:00044be0       ?not_eof@?$char_traits@D@std@@SAHABH@Z 10045be0 f i TR_Trace:trace.obj
 0001:00044c00       ?not_eof@?$char_traits@_W@std@@SAGABG@Z 10045c00 f i TR_Trace:trace.obj
 0001:00044c20       ?open@?$basic_filebuf@DU?$char_traits@D@std@@@std@@QAEPAV12@PBDHH@Z 10045c20 f i TR_Trace:trace.obj
 0001:00044d30       ?open@?$basic_filebuf@_WU?$char_traits@_W@std@@@std@@QAEPAV12@PBDHH@Z 10045d30 f i TR_Trace:trace.obj
 0001:00044e30       ?open@?$basic_ofstream@_WU?$char_traits@_W@std@@@std@@QAEXPBDHH@Z 10045e30 f i TR_Trace:trace.obj
 0001:00044e80       ?overflow@?$basic_filebuf@DU?$char_traits@D@std@@@std@@MAEHH@Z 10045e80 f i TR_Trace:trace.obj
 0001:000450a0       ?overflow@?$basic_filebuf@_WU?$char_traits@_W@std@@@std@@MAEGG@Z 100460a0 f i TR_Trace:trace.obj
 0001:00045310       ?pbackfail@?$basic_filebuf@DU?$char_traits@D@std@@@std@@MAEHH@Z 10046310 f i TR_Trace:trace.obj
 0001:000453a0       ?pbackfail@?$basic_filebuf@_WU?$char_traits@_W@std@@@std@@MAEGG@Z 100463a0 f i TR_Trace:trace.obj
 0001:00045440       ?pop_front@?$list@PAVTR_Module@@V?$allocator@PAVTR_Module@@@std@@@std@@QAEXXZ 10046440 f i TR_Trace:trace.obj
 0001:00045470       ?push_back@?$list@HV?$allocator@H@std@@@std@@QAEXABH@Z 10046470 f i TR_Trace:trace.obj
 0001:000454c0       ?push_back@?$list@PAVTR_Level@@V?$allocator@PAVTR_Level@@@std@@@std@@QAEXABQAVTR_Level@@@Z 100464c0 f i TR_Trace:trace.obj
 0001:00045510       ?push_back@?$list@PAVTR_Module@@V?$allocator@PAVTR_Module@@@std@@@std@@QAEXABQAVTR_Module@@@Z 10046510 f i TR_Trace:trace.obj
 0001:00045560       ?remove@?$list@PAVTR_Level@@V?$allocator@PAVTR_Level@@@std@@@std@@QAEXABQAVTR_Level@@@Z 10046560 f i TR_Trace:trace.obj
 0001:000455b0       ?remove@?$list@PAVTR_Module@@V?$allocator@PAVTR_Module@@@std@@@std@@QAEXABQAVTR_Module@@@Z 100465b0 f i TR_Trace:trace.obj
 0001:00045600       ?resize@?$basic_string@_WU?$char_traits@_W@std@@V?$allocator@_W@2@@std@@QAEXI@Z 10046600 f i TR_Trace:trace.obj
 0001:00045630       ?resize@?$basic_string@_WU?$char_traits@_W@std@@V?$allocator@_W@2@@std@@QAEXI_W@Z 10046630 f i TR_Trace:trace.obj
 0001:00045660       ?seekoff@?$basic_filebuf@DU?$char_traits@D@std@@@std@@MAE?AV?$fpos@H@2@_JHH@Z 10046660 f i TR_Trace:trace.obj
 0001:00045760       ?seekoff@?$basic_filebuf@_WU?$char_traits@_W@std@@@std@@MAE?AV?$fpos@H@2@_JHH@Z 10046760 f i TR_Trace:trace.obj
 0001:00045860       ?seekpos@?$basic_filebuf@DU?$char_traits@D@std@@@std@@MAE?AV?$fpos@H@2@V32@H@Z 10046860 f i TR_Trace:trace.obj
 0001:00045940       ?seekpos@?$basic_filebuf@_WU?$char_traits@_W@std@@@std@@MAE?AV?$fpos@H@2@V32@H@Z 10046940 f i TR_Trace:trace.obj
 0001:00045a20       ?seekpos@?$fpos@H@std@@QBE_JXZ 10046a20 f i TR_Trace:trace.obj
 0001:00045a30       ?select_on_container_copy_construction@?$_Wrap_alloc@V?$allocator@U?$_List_node@HPAX@std@@@std@@@std@@QBE?AU12@XZ 10046a30 f i TR_Trace:trace.obj
 0001:00045a40       ?select_on_container_copy_construction@?$allocator@U?$_List_node@HPAX@std@@@std@@QBE?AV12@XZ 10046a40 f i TR_Trace:trace.obj
 0001:00045a50       ?select_on_container_copy_construction@?$allocator_traits@V?$allocator@U?$_List_node@HPAX@std@@@std@@@std@@SA?AV?$allocator@U?$_List_node@HPAX@std@@@2@ABV32@@Z 10046a50 f i TR_Trace:trace.obj
 0001:00045a60       ?setbuf@?$basic_filebuf@DU?$char_traits@D@std@@@std@@MAEPAV?$basic_streambuf@DU?$char_traits@D@std@@@2@PAD_J@Z 10046a60 f i TR_Trace:trace.obj
 0001:00045af0       ?setbuf@?$basic_filebuf@_WU?$char_traits@_W@std@@@std@@MAEPAV?$basic_streambuf@_WU?$char_traits@_W@std@@@2@PA_W_J@Z 10046af0 f i TR_Trace:trace.obj
 0001:00045b60       ?splice@?$list@PAVTR_Module@@V?$allocator@PAVTR_Module@@@std@@@std@@QAEXV?$_List_const_iterator@V?$_List_val@U?$_List_simple_types@PAVTR_Module@@@std@@@std@@@2@AAV12@00@Z 10046b60 f i TR_Trace:trace.obj
 0001:00045bd0       ?splice@?$list@PAVTR_Module@@V?$allocator@PAVTR_Module@@@std@@@std@@QAEXV?$_List_const_iterator@V?$_List_val@U?$_List_simple_types@PAVTR_Module@@@std@@@std@@@2@AAV12@@Z 10046bd0 f i TR_Trace:trace.obj
 0001:00045c00       ?state@?$fpos@H@std@@QBEHXZ 10046c00 f i TR_Trace:trace.obj
 0001:00045c10       ?substr@?$basic_string@_WU?$char_traits@_W@std@@V?$allocator@_W@2@@std@@QBE?AV12@II@Z 10046c10 f i TR_Trace:trace.obj
 0001:00045c90       ?swap@?$list@PAVTR_Module@@V?$allocator@PAVTR_Module@@@std@@@std@@QAEXAAV12@@Z 10046c90 f i TR_Trace:trace.obj
 0001:00045cc0       ?sync@?$basic_filebuf@DU?$char_traits@D@std@@@std@@MAEHXZ 10046cc0 f i TR_Trace:trace.obj
 0001:00045cf0       ?sync@?$basic_filebuf@_WU?$char_traits@_W@std@@@std@@MAEHXZ 10046cf0 f i TR_Trace:trace.obj
 0001:00045d30       ?to_char_type@?$char_traits@D@std@@SADABH@Z 10046d30 f i TR_Trace:trace.obj
 0001:00045d40       ?to_char_type@?$char_traits@_W@std@@SA_WABG@Z 10046d40 f i TR_Trace:trace.obj
 0001:00045d50       ?to_int_type@?$char_traits@D@std@@SAHABD@Z 10046d50 f i TR_Trace:trace.obj
 0001:00045d60       ?to_int_type@?$char_traits@_W@std@@SAGAB_W@Z 10046d60 f i TR_Trace:trace.obj
 0001:00045d70       ?uflow@?$basic_filebuf@DU?$char_traits@D@std@@@std@@MAEHXZ 10046d70 f i TR_Trace:trace.obj
 0001:00045f80       ?uflow@?$basic_filebuf@_WU?$char_traits@_W@std@@@std@@MAEGXZ 10046f80 f i TR_Trace:trace.obj
 0001:000461c0       ?underflow@?$basic_filebuf@DU?$char_traits@D@std@@@std@@MAEHXZ 100471c0 f i TR_Trace:trace.obj
 0001:00046200       ?underflow@?$basic_filebuf@_WU?$char_traits@_W@std@@@std@@MAEGXZ 10047200 f i TR_Trace:trace.obj
 0001:00046240       _wmemchr                   10047240 f i TR_Trace:trace.obj
 0001:00046260       _wmemcmp                   10047260 f i TR_Trace:trace.obj
 0001:000462a0       ??0THR_Synchronizer@@QAE@PB_W@Z 100472a0 f   TR_Trace:ThreadSynchronizer.obj
 0001:000462c0       ??1THR_Synchronizer@@UAE@XZ 100472c0 f   TR_Trace:ThreadSynchronizer.obj
 0001:000462e0       ??_ETHR_Synchronizer@@UAEPAXI@Z 100472e0 f i TR_Trace:ThreadSynchronizer.obj
 0001:000462e0       ??_GTHR_Synchronizer@@UAEPAXI@Z 100472e0 f i TR_Trace:ThreadSynchronizer.obj
 0001:00046310       ?Acquire@THR_Synchronizer@@UAE_NK@Z 10047310 f   TR_Trace:ThreadSynchronizer.obj
 0001:00046350       ??0THR_Semaphore@@QAE@JJPB_WPAU_SECURITY_ATTRIBUTES@@@Z 10047350 f   TR_Trace:ThreadSemaphore.obj
 0001:00046830       ?Acquire@THR_Semaphore@@UAE_NK@Z 10047830 f   TR_Trace:ThreadSemaphore.obj
 0001:00046840       ?Release@THR_Semaphore@@QAE_NJPAJ@Z 10047840 f   TR_Trace:ThreadSemaphore.obj
 0001:00046880       ?Release@THR_Semaphore@@UAE_NXZ 10047880 f   TR_Trace:ThreadSemaphore.obj
 0001:00046890       ??BUTIL_WinError@@QBE?AV?$basic_string@_WU?$char_traits@_W@std@@V?$allocator@_W@2@@std@@XZ 10047890 f   TR_Trace:win32Error.obj
 0001:000469c0       ??0?$auto_ptr@_W@std@@QAE@PA_W@Z 100479c0 f i TR_Trace:bstrConversion.obj
 0001:000469d0       ??1?$auto_ptr@_W@std@@QAE@XZ 100479d0 f i TR_Trace:bstrConversion.obj
 0001:000469e0       ?UTIL_ReplaceNulls@@YA_NAAPA_W@Z 100479e0 f   TR_Trace:bstrConversion.obj
 0001:00046ab0       ?UTIL_StripNulls@@YAXAAPA_W@Z 10047ab0 f   TR_Trace:bstrConversion.obj
 0001:00046b90       ??0EM_NTEventLog@@QAE@PB_WAAKW4EventLogType@0@W4SourceType@0@0@Z 10047b90 f   TR_Trace:ntEventLog.obj
 0001:00046d30       ??0EM_NTEventLog@@QAE@PB_WAAK0W4EventLogType@0@K@Z 10047d30 f   TR_Trace:ntEventLog.obj
 0001:00046e90       ??1EM_NTEventLog@@QAE@XZ   10047e90 f   TR_Trace:ntEventLog.obj
 0001:00047530       ?Read@EM_NTEventLog@@QAEKPAXPAK1KKK@Z 10048530 f   TR_Trace:ntEventLog.obj
 0001:000475e0       ?ReportEventW@EM_NTEventLog@@QAEKKW4EventType@1@PAPB_WGGPAXK2@Z 100485e0 f   TR_Trace:ntEventLog.obj
 0001:00047640       ?RemoveSource@EM_NTEventLog@@QAEKXZ 10048640 f   TR_Trace:ntEventLog.obj
 0001:00047990       ?Backup@EM_NTEventLog@@QAEKPB_W@Z 10048990 f   TR_Trace:ntEventLog.obj
 0001:000479e0       ?ClearLog@EM_NTEventLog@@QAEKPB_W@Z 100489e0 f   TR_Trace:ntEventLog.obj
 0001:00047a30       ?GetNumberOfRecords@EM_NTEventLog@@QAEKAAK@Z 10048a30 f   TR_Trace:ntEventLog.obj
 0001:00047a80       ?NotifyChange@EM_NTEventLog@@QAEKPAX@Z 10048a80 f   TR_Trace:ntEventLog.obj
 0001:00047ad0       ?GetOldestRecordNumber@EM_NTEventLog@@QAEKAAK@Z 10048ad0 f   TR_Trace:ntEventLog.obj
 0001:00047b10       ?CreateLog@EM_NTEventLog@@IAEKPB_W0K@Z 10048b10 f   TR_Trace:ntEventLog.obj
 0001:00047d40       ?Open@EM_NTEventLog@@IAEKPB_W0@Z 10048d40 f   TR_Trace:ntEventLog.obj
 0001:00048050       ?Close@EM_NTEventLog@@IAEKXZ 10049050 f   TR_Trace:ntEventLog.obj
 0001:000480c0       ?OpenBackup@EM_NTEventLog@@IAEKPB_W0@Z 100490c0 f   TR_Trace:ntEventLog.obj
 0001:00048110       ?RegisterSource@EM_NTEventLog@@IAEKPB_W0@Z 10049110 f   TR_Trace:ntEventLog.obj
 0001:00048180       ?DeregisterSource@EM_NTEventLog@@IAEKXZ 10049180 f   TR_Trace:ntEventLog.obj
 0001:000481c0       ??$?H_WU?$char_traits@_W@std@@V?$allocator@_W@1@@std@@YA?AV?$basic_string@_WU?$char_traits@_W@std@@V?$allocator@_W@2@@0@$$QAV10@PB_W@Z 100491c0 f i TR_Trace:cmmStdPaths.obj
 0001:00048260       ?GetLocalBasePath@CMM_StdPaths@@YA?AV?$basic_string@_WU?$char_traits@_W@std@@V?$allocator@_W@2@@std@@XZ 10049260 f   TR_Trace:cmmStdPaths.obj
 0001:000483b0       ?GetLocalBinPath@CMM_StdPaths@@YA?AV?$basic_string@_WU?$char_traits@_W@std@@V?$allocator@_W@2@@std@@XZ 100493b0 f   TR_Trace:cmmStdPaths.obj
 0001:00048460       ?GetLocalEtcPath@CMM_StdPaths@@YA?AV?$basic_string@_WU?$char_traits@_W@std@@V?$allocator@_W@2@@std@@XZ 10049460 f   TR_Trace:cmmStdPaths.obj
 0001:00048510       ?GetLocalLibPath@CMM_StdPaths@@YA?AV?$basic_string@_WU?$char_traits@_W@std@@V?$allocator@_W@2@@std@@XZ 10049510 f   TR_Trace:cmmStdPaths.obj
 0001:000485c0       ?GetLocalTracePath@CMM_StdPaths@@YA?AV?$basic_string@_WU?$char_traits@_W@std@@V?$allocator@_W@2@@std@@XZ 100495c0 f   TR_Trace:cmmStdPaths.obj
 0001:00048670       ?Throw@TR_GetFileTimeFailed@@SAXAAUEM_NestedExceptionData@@PAVEM_NestedException@@@Z 10049670 f   TR_Trace:trEvents.obj
 0001:000486d0       ?Throw@TR_UnableToOpenFile@@SAXAAUEM_NestedExceptionData@@PAVEM_NestedException@@@Z 100496d0 f   TR_Trace:trEvents.obj
 0001:00048730       ?Throw@TR_UnableToCloseFile@@SAXAAUEM_NestedExceptionData@@PAVEM_NestedException@@@Z 10049730 f   TR_Trace:trEvents.obj
 0001:00048790       ?Throw@TR_UnableToMoveFile@@SAXAAUEM_NestedExceptionData@@PAVEM_NestedException@@@Z 10049790 f   TR_Trace:trEvents.obj
 0001:00048800       ?Throw@TR_UnableToRemoveFile@@SAXAAUEM_NestedExceptionData@@PAVEM_NestedException@@@Z 10049800 f   TR_Trace:trEvents.obj
 0001:00048860       ?Throw@TR_UnableToRenameFile@@SAXAAUEM_NestedExceptionData@@PAVEM_NestedException@@@Z 10049860 f   TR_Trace:trEvents.obj
 0001:000488d0       ?Throw@TR_MissingIdentifier@@SAXAAUEM_NestedExceptionData@@PAVEM_NestedException@@@Z 100498d0 f   TR_Trace:trEvents.obj
 0001:00048930       ?Throw@TR_IdentifiersOutOfRange@@SAXAAUEM_NestedExceptionData@@PAVEM_NestedException@@@Z 10049930 f   TR_Trace:trEvents.obj
 0001:00048990       ?Throw@TR_CannotOpenTailFile@@SAXAAUEM_NestedExceptionData@@PAVEM_NestedException@@@Z 10049990 f   TR_Trace:trEvents.obj
 0001:000489f0       ?Throw@TR_CannotCreateFileMap@@SAXAAUEM_NestedExceptionData@@PAVEM_NestedException@@@Z 100499f0 f   TR_Trace:trEvents.obj
 0001:00048a50       ?Throw@TR_CannotMapFile@@SAXAAUEM_NestedExceptionData@@PAVEM_NestedException@@@Z 10049a50 f   TR_Trace:trEvents.obj
 0001:00048ab0       ?Throw@TR_GetFileSizeFailed@@SAXAAUEM_NestedExceptionData@@PAVEM_NestedException@@@Z 10049ab0 f   TR_Trace:trEvents.obj
 0001:00048b10       ?Throw@TR_SetFilePointerFailed@@SAXAAUEM_NestedExceptionData@@PAVEM_NestedException@@@Z 10049b10 f   TR_Trace:trEvents.obj
 0001:00048b70       ?Throw@TR_ReadFileFailed@@SAXAAUEM_NestedExceptionData@@PAVEM_NestedException@@@Z 10049b70 f   TR_Trace:trEvents.obj
 0001:00048bd0       ?Throw@TR_CannotReopenTailFile@@SAXAAUEM_NestedExceptionData@@PAVEM_NestedException@@@Z 10049bd0 f   TR_Trace:trEvents.obj
 0001:00048c30       ?Throw@TR_CannotOpenDirectory@@SAXAAUEM_NestedExceptionData@@PAVEM_NestedException@@@Z 10049c30 f   TR_Trace:trEvents.obj
 0001:00048c90       ?Throw@TR_ReadDirectoryChangeFailed@@SAXAAUEM_NestedExceptionData@@PAVEM_NestedException@@@Z 10049c90 f   TR_Trace:trEvents.obj
 0001:00048cf0       ??0TR_CannotCreateFileMap@@QAE@ABV0@@Z 10049cf0 f   TR_Trace:trEvents.obj
 0001:00048d60       ??0TR_CannotCreateFileMap@@QAE@PBVEM_NestedException@@ABUEM_NestedExceptionData@@@Z 10049d60 f   TR_Trace:trEvents.obj
 0001:00048dd0       ??0TR_CannotCreateFileMap@@QAE@VUTIL_WinError@@PBVEM_NestedException@@@Z 10049dd0 f   TR_Trace:trEvents.obj
 0001:00048e30       ??0TR_CannotMapFile@@QAE@ABV0@@Z 10049e30 f   TR_Trace:trEvents.obj
 0001:00048ea0       ??0TR_CannotMapFile@@QAE@PBVEM_NestedException@@ABUEM_NestedExceptionData@@@Z 10049ea0 f   TR_Trace:trEvents.obj
 0001:00048f10       ??0TR_CannotMapFile@@QAE@VUTIL_WinError@@PBVEM_NestedException@@@Z 10049f10 f   TR_Trace:trEvents.obj
 0001:00048f70       ??0TR_CannotOpenDirectory@@QAE@ABV0@@Z 10049f70 f   TR_Trace:trEvents.obj
 0001:00049000       ??0TR_CannotOpenDirectory@@QAE@PBVEM_NestedException@@ABUEM_NestedExceptionData@@@Z 1004a000 f   TR_Trace:trEvents.obj
 0001:00049080       ??0TR_CannotOpenDirectory@@QAE@V?$basic_string@_WU?$char_traits@_W@std@@V?$allocator@_W@2@@std@@VUTIL_WinError@@PBVEM_NestedException@@@Z 1004a080 f   TR_Trace:trEvents.obj
 0001:00049130       ??0TR_CannotOpenTailFile@@QAE@ABV0@@Z 1004a130 f   TR_Trace:trEvents.obj
 0001:000491c0       ??0TR_CannotOpenTailFile@@QAE@PBVEM_NestedException@@ABUEM_NestedExceptionData@@@Z 1004a1c0 f   TR_Trace:trEvents.obj
 0001:00049240       ??0TR_CannotOpenTailFile@@QAE@V?$basic_string@_WU?$char_traits@_W@std@@V?$allocator@_W@2@@std@@VUTIL_WinError@@PBVEM_NestedException@@@Z 1004a240 f   TR_Trace:trEvents.obj
 0001:000492f0       ??0TR_CannotReopenTailFile@@QAE@ABV0@@Z 1004a2f0 f   TR_Trace:trEvents.obj
 0001:00049380       ??0TR_CannotReopenTailFile@@QAE@PBVEM_NestedException@@ABUEM_NestedExceptionData@@@Z 1004a380 f   TR_Trace:trEvents.obj
 0001:00049400       ??0TR_CannotReopenTailFile@@QAE@V?$basic_string@_WU?$char_traits@_W@std@@V?$allocator@_W@2@@std@@VUTIL_WinError@@PBVEM_NestedException@@@Z 1004a400 f   TR_Trace:trEvents.obj
 0001:000494b0       ??0TR_GetFileSizeFailed@@QAE@ABV0@@Z 1004a4b0 f   TR_Trace:trEvents.obj
 0001:00049520       ??0TR_GetFileSizeFailed@@QAE@PBVEM_NestedException@@ABUEM_NestedExceptionData@@@Z 1004a520 f   TR_Trace:trEvents.obj
 0001:00049590       ??0TR_GetFileSizeFailed@@QAE@VUTIL_WinError@@PBVEM_NestedException@@@Z 1004a590 f   TR_Trace:trEvents.obj
 0001:000495f0       ??0TR_GetFileTimeFailed@@QAE@ABV0@@Z 1004a5f0 f   TR_Trace:trEvents.obj
 0001:00049680       ??0TR_GetFileTimeFailed@@QAE@PBVEM_NestedException@@ABUEM_NestedExceptionData@@@Z 1004a680 f   TR_Trace:trEvents.obj
 0001:00049700       ??0TR_GetFileTimeFailed@@QAE@V?$basic_string@_WU?$char_traits@_W@std@@V?$allocator@_W@2@@std@@VUTIL_WinError@@PBVEM_NestedException@@@Z 1004a700 f   TR_Trace:trEvents.obj
 0001:000497b0       ??0TR_IdentifiersOutOfRange@@QAE@ABV0@@Z 1004a7b0 f   TR_Trace:trEvents.obj
 0001:00049820       ??0TR_IdentifiersOutOfRange@@QAE@HHPBVEM_NestedException@@@Z 1004a820 f   TR_Trace:trEvents.obj
 0001:00049890       ??0TR_IdentifiersOutOfRange@@QAE@PBVEM_NestedException@@ABUEM_NestedExceptionData@@@Z 1004a890 f   TR_Trace:trEvents.obj
 0001:00049900       ??0TR_MissingIdentifier@@QAE@ABV0@@Z 1004a900 f   TR_Trace:trEvents.obj
 0001:00049990       ??0TR_MissingIdentifier@@QAE@PBVEM_NestedException@@ABUEM_NestedExceptionData@@@Z 1004a990 f   TR_Trace:trEvents.obj
 0001:00049a10       ??0TR_MissingIdentifier@@QAE@_WV?$basic_string@_WU?$char_traits@_W@std@@V?$allocator@_W@2@@std@@PBVEM_NestedException@@@Z 1004aa10 f   TR_Trace:trEvents.obj
 0001:00049ac0       ??0TR_ReadDirectoryChangeFailed@@QAE@ABV0@@Z 1004aac0 f   TR_Trace:trEvents.obj
 0001:00049b50       ??0TR_ReadDirectoryChangeFailed@@QAE@PBVEM_NestedException@@ABUEM_NestedExceptionData@@@Z 1004ab50 f   TR_Trace:trEvents.obj
 0001:00049bd0       ??0TR_ReadDirectoryChangeFailed@@QAE@V?$basic_string@_WU?$char_traits@_W@std@@V?$allocator@_W@2@@std@@VUTIL_WinError@@PBVEM_NestedException@@@Z 1004abd0 f   TR_Trace:trEvents.obj
 0001:00049c80       ??0TR_ReadFileFailed@@QAE@ABV0@@Z 1004ac80 f   TR_Trace:trEvents.obj
 0001:00049d10       ??0TR_ReadFileFailed@@QAE@PBVEM_NestedException@@ABUEM_NestedExceptionData@@@Z 1004ad10 f   TR_Trace:trEvents.obj
 0001:00049d90       ??0TR_ReadFileFailed@@QAE@V?$basic_string@_WU?$char_traits@_W@std@@V?$allocator@_W@2@@std@@VUTIL_WinError@@PBVEM_NestedException@@@Z 1004ad90 f   TR_Trace:trEvents.obj
 0001:00049e40       ??0TR_SetFilePointerFailed@@QAE@ABV0@@Z 1004ae40 f   TR_Trace:trEvents.obj
 0001:00049ed0       ??0TR_SetFilePointerFailed@@QAE@PBVEM_NestedException@@ABUEM_NestedExceptionData@@@Z 1004aed0 f   TR_Trace:trEvents.obj
 0001:00049f50       ??0TR_SetFilePointerFailed@@QAE@V?$basic_string@_WU?$char_traits@_W@std@@V?$allocator@_W@2@@std@@VUTIL_WinError@@PBVEM_NestedException@@@Z 1004af50 f   TR_Trace:trEvents.obj
 0001:0004a000       ??0TR_UnableToCloseFile@@QAE@ABV0@@Z 1004b000 f   TR_Trace:trEvents.obj
 0001:0004a090       ??0TR_UnableToCloseFile@@QAE@PBVEM_NestedException@@ABUEM_NestedExceptionData@@@Z 1004b090 f   TR_Trace:trEvents.obj
 0001:0004a110       ??0TR_UnableToCloseFile@@QAE@V?$basic_string@_WU?$char_traits@_W@std@@V?$allocator@_W@2@@std@@KPBVEM_NestedException@@@Z 1004b110 f   TR_Trace:trEvents.obj
 0001:0004a1c0       ??0TR_UnableToMoveFile@@QAE@ABV0@@Z 1004b1c0 f   TR_Trace:trEvents.obj
 0001:0004a270       ??0TR_UnableToMoveFile@@QAE@PBVEM_NestedException@@ABUEM_NestedExceptionData@@@Z 1004b270 f   TR_Trace:trEvents.obj
 0001:0004a300       ??0TR_UnableToMoveFile@@QAE@V?$basic_string@_WU?$char_traits@_W@std@@V?$allocator@_W@2@@std@@0KPBVEM_NestedException@@@Z 1004b300 f   TR_Trace:trEvents.obj
 0001:0004a400       ??0TR_UnableToOpenFile@@QAE@ABV0@@Z 1004b400 f   TR_Trace:trEvents.obj
 0001:0004a490       ??0TR_UnableToOpenFile@@QAE@PBVEM_NestedException@@ABUEM_NestedExceptionData@@@Z 1004b490 f   TR_Trace:trEvents.obj
 0001:0004a510       ??0TR_UnableToOpenFile@@QAE@V?$basic_string@_WU?$char_traits@_W@std@@V?$allocator@_W@2@@std@@KPBVEM_NestedException@@@Z 1004b510 f   TR_Trace:trEvents.obj
 0001:0004a5c0       ??0TR_UnableToRemoveFile@@QAE@ABV0@@Z 1004b5c0 f   TR_Trace:trEvents.obj
 0001:0004a650       ??0TR_UnableToRemoveFile@@QAE@PBVEM_NestedException@@ABUEM_NestedExceptionData@@@Z 1004b650 f   TR_Trace:trEvents.obj
 0001:0004a6d0       ??0TR_UnableToRemoveFile@@QAE@V?$basic_string@_WU?$char_traits@_W@std@@V?$allocator@_W@2@@std@@VUTIL_WinError@@PBVEM_NestedException@@@Z 1004b6d0 f   TR_Trace:trEvents.obj
 0001:0004a780       ??0TR_UnableToRenameFile@@QAE@ABV0@@Z 1004b780 f   TR_Trace:trEvents.obj
 0001:0004a830       ??0TR_UnableToRenameFile@@QAE@PBVEM_NestedException@@ABUEM_NestedExceptionData@@@Z 1004b830 f   TR_Trace:trEvents.obj
 0001:0004a8c0       ??0TR_UnableToRenameFile@@QAE@V?$basic_string@_WU?$char_traits@_W@std@@V?$allocator@_W@2@@std@@0KPBVEM_NestedException@@@Z 1004b8c0 f   TR_Trace:trEvents.obj
 0001:0004a9c0       ??0UTIL_WinError@@QAE@XZ   1004b9c0 f i TR_Trace:trEvents.obj
 0001:0004a9d0       ??1Data_t@_bstr_t@@AAE@XZ  1004b9d0 f i TR_Trace:trEvents.obj
 0001:0004aa00       ??1TR_CannotCreateFileMap@@UAE@XZ 1004ba00 f i TR_Trace:trEvents.obj
 0001:0004aa50       ??1TR_CannotMapFile@@UAE@XZ 1004ba50 f i TR_Trace:trEvents.obj
 0001:0004aaa0       ??1TR_CannotOpenDirectory@@UAE@XZ 1004baa0 f i TR_Trace:trEvents.obj
 0001:0004ab20       ??1TR_CannotOpenTailFile@@UAE@XZ 1004bb20 f i TR_Trace:trEvents.obj
 0001:0004aba0       ??1TR_CannotReopenTailFile@@UAE@XZ 1004bba0 f i TR_Trace:trEvents.obj
 0001:0004ac20       ??1TR_GetFileSizeFailed@@UAE@XZ 1004bc20 f i TR_Trace:trEvents.obj
 0001:0004ac70       ??1TR_ReadDirectoryChangeFailed@@UAE@XZ 1004bc70 f i TR_Trace:trEvents.obj
 0001:0004acf0       ??1TR_ReadFileFailed@@UAE@XZ 1004bcf0 f i TR_Trace:trEvents.obj
 0001:0004ad70       ??1TR_SetFilePointerFailed@@UAE@XZ 1004bd70 f i TR_Trace:trEvents.obj
 0001:0004adf0       ??1TR_UnableToCloseFile@@UAE@XZ 1004bdf0 f i TR_Trace:trEvents.obj
 0001:0004ae70       ??1TR_UnableToRenameFile@@UAE@XZ 1004be70 f i TR_Trace:trEvents.obj
 0001:0004af10       ??_GData_t@_bstr_t@@AAEPAXI@Z 1004bf10 f i TR_Trace:trEvents.obj
 0001:0004af60       ??_GTR_CannotCreateFileMap@@UAEPAXI@Z 1004bf60 f i TR_Trace:trEvents.obj
 0001:0004af60       ??_ETR_CannotCreateFileMap@@UAEPAXI@Z 1004bf60 f i TR_Trace:trEvents.obj
 0001:0004afc0       ??_ETR_CannotMapFile@@UAEPAXI@Z 1004bfc0 f i TR_Trace:trEvents.obj
 0001:0004afc0       ??_GTR_CannotMapFile@@UAEPAXI@Z 1004bfc0 f i TR_Trace:trEvents.obj
 0001:0004b020       ??_GTR_CannotOpenDirectory@@UAEPAXI@Z 1004c020 f i TR_Trace:trEvents.obj
 0001:0004b020       ??_ETR_CannotOpenDirectory@@UAEPAXI@Z 1004c020 f i TR_Trace:trEvents.obj
 0001:0004b0b0       ??_GTR_CannotOpenTailFile@@UAEPAXI@Z 1004c0b0 f i TR_Trace:trEvents.obj
 0001:0004b0b0       ??_ETR_CannotOpenTailFile@@UAEPAXI@Z 1004c0b0 f i TR_Trace:trEvents.obj
 0001:0004b140       ??_ETR_CannotReopenTailFile@@UAEPAXI@Z 1004c140 f i TR_Trace:trEvents.obj
 0001:0004b140       ??_GTR_CannotReopenTailFile@@UAEPAXI@Z 1004c140 f i TR_Trace:trEvents.obj
 0001:0004b1d0       ??_GTR_GetFileSizeFailed@@UAEPAXI@Z 1004c1d0 f i TR_Trace:trEvents.obj
 0001:0004b1d0       ??_ETR_GetFileSizeFailed@@UAEPAXI@Z 1004c1d0 f i TR_Trace:trEvents.obj
 0001:0004b230       ??_ETR_GetFileTimeFailed@@UAEPAXI@Z 1004c230 f i TR_Trace:trEvents.obj
 0001:0004b230       ??_GTR_GetFileTimeFailed@@UAEPAXI@Z 1004c230 f i TR_Trace:trEvents.obj
 0001:0004b2c0       ??_ETR_IdentifiersOutOfRange@@UAEPAXI@Z 1004c2c0 f i TR_Trace:trEvents.obj
 0001:0004b2c0       ??_GTR_IdentifiersOutOfRange@@UAEPAXI@Z 1004c2c0 f i TR_Trace:trEvents.obj
 0001:0004b320       ??_GTR_MissingIdentifier@@UAEPAXI@Z 1004c320 f i TR_Trace:trEvents.obj
 0001:0004b320       ??_ETR_MissingIdentifier@@UAEPAXI@Z 1004c320 f i TR_Trace:trEvents.obj
 0001:0004b3b0       ??_ETR_ReadDirectoryChangeFailed@@UAEPAXI@Z 1004c3b0 f i TR_Trace:trEvents.obj
 0001:0004b3b0       ??_GTR_ReadDirectoryChangeFailed@@UAEPAXI@Z 1004c3b0 f i TR_Trace:trEvents.obj
 0001:0004b440       ??_ETR_ReadFileFailed@@UAEPAXI@Z 1004c440 f i TR_Trace:trEvents.obj
 0001:0004b440       ??_GTR_ReadFileFailed@@UAEPAXI@Z 1004c440 f i TR_Trace:trEvents.obj
 0001:0004b4d0       ??_GTR_SetFilePointerFailed@@UAEPAXI@Z 1004c4d0 f i TR_Trace:trEvents.obj
 0001:0004b4d0       ??_ETR_SetFilePointerFailed@@UAEPAXI@Z 1004c4d0 f i TR_Trace:trEvents.obj
 0001:0004b560       ??_GTR_UnableToCloseFile@@UAEPAXI@Z 1004c560 f i TR_Trace:trEvents.obj
 0001:0004b560       ??_ETR_UnableToCloseFile@@UAEPAXI@Z 1004c560 f i TR_Trace:trEvents.obj
 0001:0004b5f0       ??_ETR_UnableToMoveFile@@UAEPAXI@Z 1004c5f0 f i TR_Trace:trEvents.obj
 0001:0004b5f0       ??_GTR_UnableToMoveFile@@UAEPAXI@Z 1004c5f0 f i TR_Trace:trEvents.obj
 0001:0004b620       ??_GTR_UnableToOpenFile@@UAEPAXI@Z 1004c620 f i TR_Trace:trEvents.obj
 0001:0004b620       ??_ETR_UnableToOpenFile@@UAEPAXI@Z 1004c620 f i TR_Trace:trEvents.obj
 0001:0004b6b0       ??_ETR_UnableToRemoveFile@@UAEPAXI@Z 1004c6b0 f i TR_Trace:trEvents.obj
 0001:0004b6b0       ??_GTR_UnableToRemoveFile@@UAEPAXI@Z 1004c6b0 f i TR_Trace:trEvents.obj
 0001:0004b740       ??_GTR_UnableToRenameFile@@UAEPAXI@Z 1004c740 f i TR_Trace:trEvents.obj
 0001:0004b740       ??_ETR_UnableToRenameFile@@UAEPAXI@Z 1004c740 f i TR_Trace:trEvents.obj
 0001:0004b770       ?Clone@TR_CannotCreateFileMap@@UBEPAVEM_NestedException@@XZ 1004c770 f   TR_Trace:trEvents.obj
 0001:0004b7f0       ?Clone@TR_CannotMapFile@@UBEPAVEM_NestedException@@XZ 1004c7f0 f   TR_Trace:trEvents.obj
 0001:0004b870       ?Clone@TR_CannotOpenDirectory@@UBEPAVEM_NestedException@@XZ 1004c870 f   TR_Trace:trEvents.obj
 0001:0004b8f0       ?Clone@TR_CannotOpenTailFile@@UBEPAVEM_NestedException@@XZ 1004c8f0 f   TR_Trace:trEvents.obj
 0001:0004b970       ?Clone@TR_CannotReopenTailFile@@UBEPAVEM_NestedException@@XZ 1004c970 f   TR_Trace:trEvents.obj
 0001:0004b9f0       ?Clone@TR_GetFileSizeFailed@@UBEPAVEM_NestedException@@XZ 1004c9f0 f   TR_Trace:trEvents.obj
 0001:0004ba70       ?Clone@TR_GetFileTimeFailed@@UBEPAVEM_NestedException@@XZ 1004ca70 f   TR_Trace:trEvents.obj
 0001:0004baf0       ?Clone@TR_IdentifiersOutOfRange@@UBEPAVEM_NestedException@@XZ 1004caf0 f   TR_Trace:trEvents.obj
 0001:0004bb70       ?Clone@TR_MissingIdentifier@@UBEPAVEM_NestedException@@XZ 1004cb70 f   TR_Trace:trEvents.obj
 0001:0004bbf0       ?Clone@TR_ReadDirectoryChangeFailed@@UBEPAVEM_NestedException@@XZ 1004cbf0 f   TR_Trace:trEvents.obj
 0001:0004bc70       ?Clone@TR_ReadFileFailed@@UBEPAVEM_NestedException@@XZ 1004cc70 f   TR_Trace:trEvents.obj
 0001:0004bcf0       ?Clone@TR_SetFilePointerFailed@@UBEPAVEM_NestedException@@XZ 1004ccf0 f   TR_Trace:trEvents.obj
 0001:0004bd70       ?Clone@TR_UnableToCloseFile@@UBEPAVEM_NestedException@@XZ 1004cd70 f   TR_Trace:trEvents.obj
 0001:0004bdf0       ?Clone@TR_UnableToMoveFile@@UBEPAVEM_NestedException@@XZ 1004cdf0 f   TR_Trace:trEvents.obj
 0001:0004be70       ?Clone@TR_UnableToOpenFile@@UBEPAVEM_NestedException@@XZ 1004ce70 f   TR_Trace:trEvents.obj
 0001:0004bef0       ?Clone@TR_UnableToRemoveFile@@UBEPAVEM_NestedException@@XZ 1004cef0 f   TR_Trace:trEvents.obj
 0001:0004bf70       ?Clone@TR_UnableToRenameFile@@UBEPAVEM_NestedException@@XZ 1004cf70 f   TR_Trace:trEvents.obj
 0001:0004bff0       ?FormatExceptionData@TR_CannotCreateFileMap@@UBEXPAPAUEM_LogParams@@@Z 1004cff0 f   TR_Trace:trEvents.obj
 0001:0004c0c0       ?FormatExceptionData@TR_CannotMapFile@@UBEXPAPAUEM_LogParams@@@Z 1004d0c0 f   TR_Trace:trEvents.obj
 0001:0004c190       ?FormatExceptionData@TR_CannotOpenDirectory@@UBEXPAPAUEM_LogParams@@@Z 1004d190 f   TR_Trace:trEvents.obj
 0001:0004c2a0       ?FormatExceptionData@TR_CannotOpenTailFile@@UBEXPAPAUEM_LogParams@@@Z 1004d2a0 f   TR_Trace:trEvents.obj
 0001:0004c3b0       ?FormatExceptionData@TR_CannotReopenTailFile@@UBEXPAPAUEM_LogParams@@@Z 1004d3b0 f   TR_Trace:trEvents.obj
 0001:0004c4c0       ?FormatExceptionData@TR_GetFileSizeFailed@@UBEXPAPAUEM_LogParams@@@Z 1004d4c0 f   TR_Trace:trEvents.obj
 0001:0004c590       ?FormatExceptionData@TR_GetFileTimeFailed@@UBEXPAPAUEM_LogParams@@@Z 1004d590 f   TR_Trace:trEvents.obj
 0001:0004c6a0       ?FormatExceptionData@TR_IdentifiersOutOfRange@@UBEXPAPAUEM_LogParams@@@Z 1004d6a0 f   TR_Trace:trEvents.obj
 0001:0004c770       ?FormatExceptionData@TR_MissingIdentifier@@UBEXPAPAUEM_LogParams@@@Z 1004d770 f   TR_Trace:trEvents.obj
 0001:0004c870       ?FormatExceptionData@TR_ReadDirectoryChangeFailed@@UBEXPAPAUEM_LogParams@@@Z 1004d870 f   TR_Trace:trEvents.obj
 0001:0004c980       ?FormatExceptionData@TR_ReadFileFailed@@UBEXPAPAUEM_LogParams@@@Z 1004d980 f   TR_Trace:trEvents.obj
 0001:0004ca90       ?FormatExceptionData@TR_SetFilePointerFailed@@UBEXPAPAUEM_LogParams@@@Z 1004da90 f   TR_Trace:trEvents.obj
 0001:0004cba0       ?FormatExceptionData@TR_UnableToCloseFile@@UBEXPAPAUEM_LogParams@@@Z 1004dba0 f   TR_Trace:trEvents.obj
 0001:0004cca0       ?FormatExceptionData@TR_UnableToMoveFile@@UBEXPAPAUEM_LogParams@@@Z 1004dca0 f   TR_Trace:trEvents.obj
 0001:0004cde0       ?FormatExceptionData@TR_UnableToOpenFile@@UBEXPAPAUEM_LogParams@@@Z 1004dde0 f   TR_Trace:trEvents.obj
 0001:0004cee0       ?FormatExceptionData@TR_UnableToRemoveFile@@UBEXPAPAUEM_LogParams@@@Z 1004dee0 f   TR_Trace:trEvents.obj
 0001:0004cff0       ?FormatExceptionData@TR_UnableToRenameFile@@UBEXPAPAUEM_LogParams@@@Z 1004dff0 f   TR_Trace:trEvents.obj
 0001:0004d130       ?GetAttributes@TR_CannotCreateFileMap@@UBEABUEM_EventInfo@@XZ 1004e130 f   TR_Trace:trEvents.obj
 0001:0004d140       ?GetAttributes@TR_CannotMapFile@@UBEABUEM_EventInfo@@XZ 1004e140 f   TR_Trace:trEvents.obj
 0001:0004d150       ?GetAttributes@TR_CannotOpenDirectory@@UBEABUEM_EventInfo@@XZ 1004e150 f   TR_Trace:trEvents.obj
 0001:0004d160       ?GetAttributes@TR_CannotOpenTailFile@@UBEABUEM_EventInfo@@XZ 1004e160 f   TR_Trace:trEvents.obj
 0001:0004d170       ?GetAttributes@TR_CannotReopenTailFile@@UBEABUEM_EventInfo@@XZ 1004e170 f   TR_Trace:trEvents.obj
 0001:0004d180       ?GetAttributes@TR_GetFileSizeFailed@@UBEABUEM_EventInfo@@XZ 1004e180 f   TR_Trace:trEvents.obj
 0001:0004d190       ?GetAttributes@TR_GetFileTimeFailed@@UBEABUEM_EventInfo@@XZ 1004e190 f   TR_Trace:trEvents.obj
 0001:0004d1a0       ?GetAttributes@TR_IdentifiersOutOfRange@@UBEABUEM_EventInfo@@XZ 1004e1a0 f   TR_Trace:trEvents.obj
 0001:0004d1b0       ?GetAttributes@TR_MissingIdentifier@@UBEABUEM_EventInfo@@XZ 1004e1b0 f   TR_Trace:trEvents.obj
 0001:0004d1c0       ?GetAttributes@TR_ReadDirectoryChangeFailed@@UBEABUEM_EventInfo@@XZ 1004e1c0 f   TR_Trace:trEvents.obj
 0001:0004d1d0       ?GetAttributes@TR_ReadFileFailed@@UBEABUEM_EventInfo@@XZ 1004e1d0 f   TR_Trace:trEvents.obj
 0001:0004d1e0       ?GetAttributes@TR_SetFilePointerFailed@@UBEABUEM_EventInfo@@XZ 1004e1e0 f   TR_Trace:trEvents.obj
 0001:0004d1f0       ?GetAttributes@TR_UnableToCloseFile@@UBEABUEM_EventInfo@@XZ 1004e1f0 f   TR_Trace:trEvents.obj
 0001:0004d200       ?GetAttributes@TR_UnableToMoveFile@@UBEABUEM_EventInfo@@XZ 1004e200 f   TR_Trace:trEvents.obj
 0001:0004d210       ?GetAttributes@TR_UnableToOpenFile@@UBEABUEM_EventInfo@@XZ 1004e210 f   TR_Trace:trEvents.obj
 0001:0004d220       ?GetAttributes@TR_UnableToRemoveFile@@UBEABUEM_EventInfo@@XZ 1004e220 f   TR_Trace:trEvents.obj
 0001:0004d230       ?GetAttributes@TR_UnableToRenameFile@@UBEABUEM_EventInfo@@XZ 1004e230 f   TR_Trace:trEvents.obj
 0001:0004d240       ?GetId@TR_CannotCreateFileMap@@UBEJXZ 1004e240 f   TR_Trace:trEvents.obj
 0001:0004d250       ?GetId@TR_CannotMapFile@@UBEJXZ 1004e250 f   TR_Trace:trEvents.obj
 0001:0004d260       ?GetId@TR_CannotOpenDirectory@@UBEJXZ 1004e260 f   TR_Trace:trEvents.obj
 0001:0004d270       ?GetId@TR_CannotOpenTailFile@@UBEJXZ 1004e270 f   TR_Trace:trEvents.obj
 0001:0004d280       ?GetId@TR_CannotReopenTailFile@@UBEJXZ 1004e280 f   TR_Trace:trEvents.obj
 0001:0004d290       ?GetId@TR_GetFileSizeFailed@@UBEJXZ 1004e290 f   TR_Trace:trEvents.obj
 0001:0004d2a0       ?GetId@TR_GetFileTimeFailed@@UBEJXZ 1004e2a0 f   TR_Trace:trEvents.obj
 0001:0004d2b0       ?GetId@TR_IdentifiersOutOfRange@@UBEJXZ 1004e2b0 f   TR_Trace:trEvents.obj
 0001:0004d2c0       ?GetId@TR_MissingIdentifier@@UBEJXZ 1004e2c0 f   TR_Trace:trEvents.obj
 0001:0004d2d0       ?GetId@TR_ReadDirectoryChangeFailed@@UBEJXZ 1004e2d0 f   TR_Trace:trEvents.obj
 0001:0004d2e0       ?GetId@TR_ReadFileFailed@@UBEJXZ 1004e2e0 f   TR_Trace:trEvents.obj
 0001:0004d2f0       ?GetId@TR_SetFilePointerFailed@@UBEJXZ 1004e2f0 f   TR_Trace:trEvents.obj
 0001:0004d300       ?GetId@TR_UnableToCloseFile@@UBEJXZ 1004e300 f   TR_Trace:trEvents.obj
 0001:0004d310       ?GetId@TR_UnableToMoveFile@@UBEJXZ 1004e310 f   TR_Trace:trEvents.obj
 0001:0004d320       ?GetId@TR_UnableToOpenFile@@UBEJXZ 1004e320 f   TR_Trace:trEvents.obj
 0001:0004d330       ?GetId@TR_UnableToRemoveFile@@UBEJXZ 1004e330 f   TR_Trace:trEvents.obj
 0001:0004d340       ?GetId@TR_UnableToRenameFile@@UBEJXZ 1004e340 f   TR_Trace:trEvents.obj
 0001:0004d350       ?_Free@_bstr_t@@AAEXXZ     1004e350 f i TR_Trace:trEvents.obj
 0001:0004d3b0       ??0DT_DateTime@@QAE@ABU_FILETIME@@W4DT_TimeZone@@@Z 1004e3b0 f   TR_Trace:DateTime.obj
 0001:0004d430       ??0DT_DateTime@@QAE@ABVDT_LocalDateTime@@W4DT_TimeZone@@@Z 1004e430 f   TR_Trace:DateTime.obj
 0001:0004d4e0       ??0DT_DateTime@@QAE@NW4DT_TimeZone@@@Z 1004e4e0 f   TR_Trace:DateTime.obj
 0001:0004d5b0       ??0DT_DateTime@@QAE@XZ     1004e5b0 f i TR_Trace:DateTime.obj
 0001:0004d5c0       ??0DT_DateTime@@QAE@_J@Z   1004e5c0 f i TR_Trace:DateTime.obj
 0001:0004d5e0       ??0DT_LocalDateTime@@QAE@XZ 1004e5e0 f i TR_Trace:DateTime.obj
 0001:0004d610       ??0DT_TimeOfDay@@QAE@XZ    1004e610 f i TR_Trace:DateTime.obj
 0001:0004d620       ??1DT_TimeZoneNotFound@@UAE@XZ 1004e620 f i TR_Trace:DateTime.obj
 0001:0004d6a0       ??8DT_DateTime@@QBE_NABV0@@Z 1004e6a0 f   TR_Trace:DateTime.obj
 0001:0004d6c0       ??9DT_DateTime@@QBE_NABV0@@Z 1004e6c0 f   TR_Trace:DateTime.obj
 0001:0004d6e0       ??GDT_DateTime@@QBE?AV0@ABVDT_TimeSpan@@@Z 1004e6e0 f   TR_Trace:DateTime.obj
 0001:0004d730       ??GDT_DateTime@@QBE?AVDT_TimeSpan@@ABV0@@Z 1004e730 f   TR_Trace:DateTime.obj
 0001:0004d7b0       ??HDT_DateTime@@QBE?AV0@ABVDT_TimeSpan@@@Z 1004e7b0 f   TR_Trace:DateTime.obj
 0001:0004d800       ??MDT_DateTime@@QBE_NABV0@@Z 1004e800 f   TR_Trace:DateTime.obj
 0001:0004d830       ??NDT_DateTime@@QBE_NABV0@@Z 1004e830 f   TR_Trace:DateTime.obj
 0001:0004d860       ??ODT_DateTime@@QBE_NABV0@@Z 1004e860 f   TR_Trace:DateTime.obj
 0001:0004d890       ??PDT_DateTime@@QBE_NABV0@@Z 1004e890 f   TR_Trace:DateTime.obj
 0001:0004d8c0       ??YDT_DateTime@@QAEABV0@ABVDT_TimeSpan@@@Z 1004e8c0 f   TR_Trace:DateTime.obj
 0001:0004d910       ??ZDT_DateTime@@QAEABV0@ABVDT_TimeSpan@@@Z 1004e910 f   TR_Trace:DateTime.obj
 0001:0004d960       ?AsFILETIME@DT_DateTime@@QBE?AU_FILETIME@@XZ 1004e960 f   TR_Trace:DateTime.obj
 0001:0004d9b0       ?AsString@DT_DateTime@@QBE?AV?$basic_string@_WU?$char_traits@_W@std@@V?$allocator@_W@2@@std@@XZ 1004e9b0 f   TR_Trace:DateTime.obj
 0001:0004da90       ?AsStringUTC@DT_DateTime@@QBE?AV?$basic_string@_WU?$char_traits@_W@std@@V?$allocator@_W@2@@std@@XZ 1004ea90 f   TR_Trace:DateTime.obj
 0001:0004dba0       ?AsVariantDateTime@DT_DateTime@@QBENW4DT_TimeZone@@@Z 1004eba0 f   TR_Trace:DateTime.obj
 0001:0004dc50       ?CurrentDateTime@DT_DateTime@@SA?AV1@XZ 1004ec50 f   TR_Trace:DateTime.obj
 0001:0004dcb0       ?DT_getTZIfromTimeZoneEnum@@YA?AU_TIME_ZONE_INFORMATION@@AAW4DT_TimeZone@@@Z 1004ecb0 f   TR_Trace:DateTime.obj
 0001:0004dd30       ?DT_localTimeToUtc@@YAXAAU_SYSTEMTIME@@AAU_FILETIME@@W4DT_TimeZone@@@Z 1004ed30 f   TR_Trace:DateTime.obj
 0001:0004dd90       ?DT_localTimeToUtc@@YAXABU_FILETIME@@AAU1@W4DT_TimeZone@@@Z 1004ed90 f   TR_Trace:DateTime.obj
 0001:0004de10       ?DT_tzSpecificLocalTimeToSystemTime@@YAXAAU_SYSTEMTIME@@0W4DT_TimeZone@@@Z 1004ee10 f   TR_Trace:DateTime.obj
 0001:0004df50       ?DT_utcToLocalTime@@YAXAAU_SYSTEMTIME@@0W4DT_TimeZone@@@Z 1004ef50 f   TR_Trace:DateTime.obj
 0001:0004e000       ?DT_utcToLocalTime@@YAXABU_FILETIME@@AAU1@W4DT_TimeZone@@@Z 1004f000 f   TR_Trace:DateTime.obj
 0001:0004e080       ?DT_utcToLocalTime@@YAXABU_FILETIME@@AAU_SYSTEMTIME@@W4DT_TimeZone@@@Z 1004f080 f   TR_Trace:DateTime.obj
 0001:0004e0e0       ?Display@DT_DateTime@@QBEXAAV?$basic_ostream@_WU?$char_traits@_W@std@@@std@@@Z 1004f0e0 f   TR_Trace:DateTime.obj
 0001:0004e180       ?DisplayUTC@DT_DateTime@@QBEXAAV?$basic_ostream@_WU?$char_traits@_W@std@@@std@@@Z 1004f180 f   TR_Trace:DateTime.obj
 0001:0004e260       ?GetLocalDateTime@DT_DateTime@@QBE?AVDT_LocalDateTime@@W4DT_TimeZone@@@Z 1004f260 f   TR_Trace:DateTime.obj
 0001:0004e320       ?GetTimeZoneEnumFromDescription@DT_DateTime@@SA?AW4DT_TimeZone@@ABV?$basic_string@_WU?$char_traits@_W@std@@V?$allocator@_W@2@@std@@@Z 1004f320 f   TR_Trace:DateTime.obj
 0001:0004e800       ?GetTotalMilliseconds@DT_TimeSpan@@QBE_JXZ 1004f800 f i TR_Trace:DateTime.obj
 0001:0004e810       ?IsEmpty@DT_DateTime@@QBE_NXZ 1004f810 f i TR_Trace:DateTime.obj
 0001:0004e820       ?Set@DT_DateTime@@AAEXABU_FILETIME@@@Z 1004f820 f i TR_Trace:DateTime.obj
 0001:0004e840       ?Set@DT_DateTime@@AAEX_J@Z 1004f840 f i TR_Trace:DateTime.obj
 0001:0004e860       ?SetDateTimeSimulation@DT_DateTime@@SAXABVDT_LocalDateTime@@W4DT_TimeZone@@@Z 1004f860 f   TR_Trace:DateTime.obj
 0001:0004e890       ??0THR_CriticalSection@@QAE@XZ 1004f890 f   TR_Trace:ThreadCriticalSection.obj
 0001:0004ed20       ??1THR_CSReleaseFromWrongThread@@UAE@XZ 1004fd20 f i TR_Trace:ThreadCriticalSection.obj
 0001:0004ed70       ??1THR_CriticalSection@@UAE@XZ 1004fd70 f   TR_Trace:ThreadCriticalSection.obj
 0001:0004ee00       ??_ETHR_CriticalSection@@UAEPAXI@Z 1004fe00 f i TR_Trace:ThreadCriticalSection.obj
 0001:0004ee00       ??_GTHR_CriticalSection@@UAEPAXI@Z 1004fe00 f i TR_Trace:ThreadCriticalSection.obj
 0001:0004ee30       ?Acquire@THR_CriticalSection@@EAE_NK@Z 1004fe30 f   TR_Trace:ThreadCriticalSection.obj
 0001:0004f270       ?Enter@THR_CriticalSection@@QAEXXZ 10050270 f   TR_Trace:ThreadCriticalSection.obj
 0001:0004f6e0       ?Release@THR_CriticalSection@@UAE_NXZ 100506e0 f   TR_Trace:ThreadCriticalSection.obj
 0001:0004fbc0       ??$?8_WU?$char_traits@_W@std@@V?$allocator@_W@1@@std@@YA_NABV?$basic_string@_WU?$char_traits@_W@std@@V?$allocator@_W@2@@0@PB_W@Z 10050bc0 f i TR_Trace:LocalDateTime.obj
 0001:0004fc00       ??$?9_WU?$char_traits@_W@std@@V?$allocator@_W@1@@std@@YA_NABV?$basic_string@_WU?$char_traits@_W@std@@V?$allocator@_W@2@@0@PB_W@Z 10050c00 f i TR_Trace:LocalDateTime.obj
 0001:0004fc40       ??0DT_LocalDateTime@@QAE@ABU_SYSTEMTIME@@@Z 10050c40 f   TR_Trace:LocalDateTime.obj
 0001:0004fda0       ??0DT_LocalDateTime@@QAE@ABUtm@@G@Z 10050da0 f   TR_Trace:LocalDateTime.obj
 0001:0004ff30       ??0DT_LocalDateTime@@QAE@GW4DT_Month@@GABVDT_TimeOfDay@@@Z 10050f30 f   TR_Trace:LocalDateTime.obj
 0001:00050000       ??0DT_LocalDateTime@@QAE@V?$basic_string@_WU?$char_traits@_W@std@@V?$allocator@_W@2@@std@@@Z 10051000 f   TR_Trace:LocalDateTime.obj
 0001:00050ad0       ??1DT_InconsistentDayOfMonth@@UAE@XZ 10051ad0 f i TR_Trace:LocalDateTime.obj
 0001:00050b20       ??1DT_InconsistentMonth@@UAE@XZ 10051b20 f i TR_Trace:LocalDateTime.obj
 0001:00050b70       ??1DT_InconsistentYear@@UAE@XZ 10051b70 f i TR_Trace:LocalDateTime.obj
 0001:00050bc0       ?AsSYSTEMTIME@DT_LocalDateTime@@QBE?AU_SYSTEMTIME@@XZ 10051bc0 f   TR_Trace:LocalDateTime.obj
 0001:00050cf0       ?AsString@DT_LocalDateTime@@QBE?AV?$basic_string@_WU?$char_traits@_W@std@@V?$allocator@_W@2@@std@@XZ 10051cf0 f   TR_Trace:LocalDateTime.obj
 0001:00050ea0       ?CurrentDateTime@DT_LocalDateTime@@SA?AV1@W4DT_TimeZone@@@Z 10051ea0 f   TR_Trace:LocalDateTime.obj
 0001:00050f00       ?Display@DT_LocalDateTime@@QBEXAAV?$basic_ostream@_WU?$char_traits@_W@std@@@std@@@Z 10051f00 f   TR_Trace:LocalDateTime.obj
 0001:000511f0       ?GetDayOfWeek@DT_LocalDateTime@@QBE?AW4DT_DayOfWeek@@XZ 100521f0 f i TR_Trace:LocalDateTime.obj
 0001:00051260       ?GetDayOfYear@DT_LocalDateTime@@QBEGXZ 10052260 f i TR_Trace:LocalDateTime.obj
 0001:00051290       ?GetDayOfYear@DT_LocalDateTime@@SAGGHG@Z 10052290 f   TR_Trace:LocalDateTime.obj
 0001:00051520       ?IsDayOfYearEmpty@DT_LocalDateTime@@QBE_NXZ 10052520 f i TR_Trace:LocalDateTime.obj
 0001:00051530       ?ResetToEmpty@DT_LocalDateTime@@QAEXXZ 10052530 f   TR_Trace:LocalDateTime.obj
 0001:00051550       ?ResetToEmpty@DT_TimeOfDay@@QAEXXZ 10052550 f i TR_Trace:LocalDateTime.obj
 0001:00051560       ?SetDayOfMonth@DT_LocalDateTime@@QAEXG@Z 10052560 f   TR_Trace:LocalDateTime.obj
 0001:00051650       ?SetDayOfWeek@DT_LocalDateTime@@QAEXW4DT_DayOfWeek@@@Z 10052650 f   TR_Trace:LocalDateTime.obj
 0001:00051670       ?SetDayOfYear@DT_LocalDateTime@@QAEXG@Z 10052670 f   TR_Trace:LocalDateTime.obj
 0001:000516b0       ?SetHours@DT_LocalDateTime@@QAEXG@Z 100526b0 f   TR_Trace:LocalDateTime.obj
 0001:000516c0       ?SetMilliseconds@DT_LocalDateTime@@QAEXG@Z 100526c0 f   TR_Trace:LocalDateTime.obj
 0001:000516d0       ?SetMinutes@DT_LocalDateTime@@QAEXG@Z 100526d0 f   TR_Trace:LocalDateTime.obj
 0001:000516e0       ?SetMonth@DT_LocalDateTime@@QAEXH@Z 100526e0 f   TR_Trace:LocalDateTime.obj
 0001:000517c0       ?SetSeconds@DT_LocalDateTime@@QAEXG@Z 100527c0 f   TR_Trace:LocalDateTime.obj
 0001:000517d0       ?SetTimeOfDay@DT_LocalDateTime@@QAEXABVDT_TimeOfDay@@@Z 100527d0 f   TR_Trace:LocalDateTime.obj
 0001:00051800       ?SetYear@DT_LocalDateTime@@QAEXG@Z 10052800 f   TR_Trace:LocalDateTime.obj
 0001:000518e0       ?compare@?$basic_string@_WU?$char_traits@_W@std@@V?$allocator@_W@2@@std@@QBEHIIPB_WI@Z 100528e0 f i TR_Trace:LocalDateTime.obj
 0001:00051970       ?compare@?$basic_string@_WU?$char_traits@_W@std@@V?$allocator@_W@2@@std@@QBEHPB_W@Z 10052970 f i TR_Trace:LocalDateTime.obj
 0001:000519c0       ??$?8DD@std@@YA_NABV?$allocator@D@0@0@Z 100529c0 f i TR_Trace:fileSystem.obj
 0001:000519d0       ??$?8V?$allocator@D@std@@V01@@std@@YA_NABU?$_Wrap_alloc@V?$allocator@D@std@@@0@0@Z 100529d0 f i TR_Trace:fileSystem.obj
 0001:000519e0       ??$?9V?$allocator@D@std@@V01@@std@@YA_NABU?$_Wrap_alloc@V?$allocator@D@std@@@0@0@Z 100529e0 f i TR_Trace:fileSystem.obj
 0001:000519f0       ??$assign@V?$_String_iterator@V?$_String_val@U?$_Simple_types@D@std@@@std@@@std@@@?$basic_string@DU?$char_traits@D@std@@V?$allocator@D@2@@std@@QAEAAV01@V?$_String_iterator@V?$_String_val@U?$_Simple_types@D@std@@@std@@@1@0@Z 100529f0 f i TR_Trace:fileSystem.obj
 0001:00051a30       ??0?$allocator@D@std@@QAE@ABV01@@Z 10052a30 f i TR_Trace:fileSystem.obj
 0001:00051a40       ??4?$basic_string@DU?$char_traits@D@std@@V?$allocator@D@2@@std@@QAEAAV01@$$QAV01@@Z 10052a40 f i TR_Trace:fileSystem.obj
 0001:00051a80       ??4?$basic_string@DU?$char_traits@D@std@@V?$allocator@D@2@@std@@QAEAAV01@PBD@Z 10052a80 f i TR_Trace:fileSystem.obj
 0001:00051ac0       ??8?$_String_const_iterator@V?$_String_val@U?$_Simple_types@D@std@@@std@@@std@@QBE_NABV01@@Z 10052ac0 f i TR_Trace:fileSystem.obj
 0001:00051ae0       ??G?$_String_const_iterator@V?$_String_val@U?$_Simple_types@D@std@@@std@@@std@@QBEHABV01@@Z 10052ae0 f i TR_Trace:fileSystem.obj
 0001:00051af0       ??G?$_String_iterator@V?$_String_val@U?$_Simple_types@D@std@@@std@@@std@@QBEHABV?$_String_const_iterator@V?$_String_val@U?$_Simple_types@D@std@@@std@@@1@@Z 10052af0 f i TR_Trace:fileSystem.obj
 0001:00051b00       ??T@YAAAV?$basic_string@DU?$char_traits@D@std@@V?$allocator@D@2@@std@@AAV01@ABV01@@Z 10052b00 f   TR_Trace:fileSystem.obj
 0001:00051d30       ??T@YAAAV?$basic_string@_WU?$char_traits@_W@std@@V?$allocator@_W@2@@std@@AAV01@ABV01@@Z 10052d30 f   TR_Trace:fileSystem.obj
 0001:00051df0       ??Y?$basic_string@DU?$char_traits@D@std@@V?$allocator@D@2@@std@@QAEAAV01@PBD@Z 10052df0 f i TR_Trace:fileSystem.obj
 0001:00051e30       ?UTIL_copyFile@@YAJPBD0_N@Z 10052e30 f   TR_Trace:fileSystem.obj
 0001:00051e60       ?UTIL_copyFile@@YAJPB_W0_N@Z 10052e60 f   TR_Trace:fileSystem.obj
 0001:00051e90       ?UTIL_createNestedDirectories@@YA_NPBD@Z 10052e90 f   TR_Trace:fileSystem.obj
 0001:00051fb0       ?UTIL_createNestedDirectories@@YA_NPB_W@Z 10052fb0 f   TR_Trace:fileSystem.obj
 0001:00052190       ?UTIL_getDirectoryFromPath@@YA?AV?$basic_string@DU?$char_traits@D@std@@V?$allocator@D@2@@std@@PBD@Z 10053190 f   TR_Trace:fileSystem.obj
 0001:000522b0       ?UTIL_getDirectoryFromPath@@YA?AV?$basic_string@_WU?$char_traits@_W@std@@V?$allocator@_W@2@@std@@PB_W@Z 100532b0 f   TR_Trace:fileSystem.obj
 0001:000523d0       ?UTIL_getFileNameFromPath@@YA?AV?$basic_string@DU?$char_traits@D@std@@V?$allocator@D@2@@std@@PBD@Z 100533d0 f   TR_Trace:fileSystem.obj
 0001:000524c0       ?UTIL_getFileNameFromPath@@YA?AV?$basic_string@_WU?$char_traits@_W@std@@V?$allocator@_W@2@@std@@PB_W@Z 100534c0 f   TR_Trace:fileSystem.obj
 0001:000525b0       ?UTIL_moveFile@@YAJPBD0_N@Z 100535b0 f   TR_Trace:fileSystem.obj
 0001:000525e0       ?UTIL_moveFile@@YAJPB_W0_N@Z 100535e0 f   TR_Trace:fileSystem.obj
 0001:00052610       ?UTIL_removeDirectory@@YA_NPBD@Z 10053610 f   TR_Trace:fileSystem.obj
 0001:00052730       ?UTIL_removeDirectory@@YA_NPB_W@Z 10053730 f   TR_Trace:fileSystem.obj
 0001:00052a40       ?UTIL_setWorkingDirectory@@YA_NPBDPAV?$basic_string@DU?$char_traits@D@std@@V?$allocator@D@2@@std@@@Z 10053a40 f   TR_Trace:fileSystem.obj
 0001:00052ad0       ?UTIL_setWorkingDirectory@@YA_NPB_WPAV?$basic_string@_WU?$char_traits@_W@std@@V?$allocator@_W@2@@std@@@Z 10053ad0 f   TR_Trace:fileSystem.obj
 0001:00052b60       ?_Change_alloc@?$_String_alloc@$0A@U?$_String_base_types@DV?$allocator@D@std@@@std@@@std@@QAEXABU?$_Wrap_alloc@V?$allocator@D@std@@@2@@Z 10053b60 f i TR_Trace:fileSystem.obj
 0001:00052b70       ?_Compat@?$_String_const_iterator@V?$_String_val@U?$_Simple_types@D@std@@@std@@@std@@QBEXABV12@@Z 10053b70 f i TR_Trace:fileSystem.obj
 0001:00052b80       ?_Pdif@?$basic_string@DU?$char_traits@D@std@@V?$allocator@D@2@@std@@SAIV?$_String_const_iterator@V?$_String_val@U?$_Simple_types@D@std@@@std@@@2@0@Z 10053b80 f i TR_Trace:fileSystem.obj
 0001:00052ba0       ?append@?$basic_string@DU?$char_traits@D@std@@V?$allocator@D@2@@std@@QAEAAV12@ABV12@II@Z 10053ba0 f i TR_Trace:fileSystem.obj
 0001:00052c90       ?append@?$basic_string@DU?$char_traits@D@std@@V?$allocator@D@2@@std@@QAEAAV12@PBD@Z 10053c90 f i TR_Trace:fileSystem.obj
 0001:00052cd0       ?append@?$basic_string@DU?$char_traits@D@std@@V?$allocator@D@2@@std@@QAEAAV12@PBDI@Z 10053cd0 f i TR_Trace:fileSystem.obj
 0001:00052df0       ?end@?$basic_string@DU?$char_traits@D@std@@V?$allocator@D@2@@std@@QAE?AV?$_String_iterator@V?$_String_val@U?$_Simple_types@D@std@@@std@@@2@XZ 10053df0 f i TR_Trace:fileSystem.obj
 0001:00052e20       ?replace@?$basic_string@DU?$char_traits@D@std@@V?$allocator@D@2@@std@@QAEAAV12@IIABV12@II@Z 10053e20 f i TR_Trace:fileSystem.obj
 0001:000531b0       ?replace@?$basic_string@DU?$char_traits@D@std@@V?$allocator@D@2@@std@@QAEAAV12@IIPBDI@Z 100541b0 f i TR_Trace:fileSystem.obj
 0001:00053380       ?replace@?$basic_string@DU?$char_traits@D@std@@V?$allocator@D@2@@std@@QAEAAV12@V?$_String_const_iterator@V?$_String_val@U?$_Simple_types@D@std@@@std@@@2@0V?$_String_iterator@V?$_String_val@U?$_Simple_types@D@std@@@std@@@2@1@Z 10054380 f i TR_Trace:fileSystem.obj
 0001:00053410       ?Throw@DT_InconsistentYear@@SAXAAUEM_NestedExceptionData@@PAVEM_NestedException@@@Z 10054410 f   TR_Trace:dtEvents.obj
 0001:00053470       ?Throw@DT_InconsistentMonth@@SAXAAUEM_NestedExceptionData@@PAVEM_NestedException@@@Z 10054470 f   TR_Trace:dtEvents.obj
 0001:000534d0       ?Throw@DT_InconsistentDayOfMonth@@SAXAAUEM_NestedExceptionData@@PAVEM_NestedException@@@Z 100544d0 f   TR_Trace:dtEvents.obj
 0001:00053530       ?Throw@DT_TimeZoneNotFound@@SAXAAUEM_NestedExceptionData@@PAVEM_NestedException@@@Z 10054530 f   TR_Trace:dtEvents.obj
 0001:00053590       ?Throw@DT_TimeSpanOutOfRange@@SAXAAUEM_NestedExceptionData@@PAVEM_NestedException@@@Z 10054590 f   TR_Trace:dtEvents.obj
 0001:000535f0       ??0DT_InconsistentDayOfMonth@@QAE@ABV0@@Z 100545f0 f   TR_Trace:dtEvents.obj
 0001:00053660       ??0DT_InconsistentDayOfMonth@@QAE@FPBVEM_NestedException@@@Z 10054660 f   TR_Trace:dtEvents.obj
 0001:000536d0       ??0DT_InconsistentDayOfMonth@@QAE@PBVEM_NestedException@@ABUEM_NestedExceptionData@@@Z 100546d0 f   TR_Trace:dtEvents.obj
 0001:00053740       ??0DT_InconsistentMonth@@QAE@ABV0@@Z 10054740 f   TR_Trace:dtEvents.obj
 0001:000537b0       ??0DT_InconsistentMonth@@QAE@FPBVEM_NestedException@@@Z 100547b0 f   TR_Trace:dtEvents.obj
 0001:00053820       ??0DT_InconsistentMonth@@QAE@PBVEM_NestedException@@ABUEM_NestedExceptionData@@@Z 10054820 f   TR_Trace:dtEvents.obj
 0001:00053890       ??0DT_InconsistentYear@@QAE@ABV0@@Z 10054890 f   TR_Trace:dtEvents.obj
 0001:00053900       ??0DT_InconsistentYear@@QAE@FPBVEM_NestedException@@@Z 10054900 f   TR_Trace:dtEvents.obj
 0001:00053970       ??0DT_InconsistentYear@@QAE@PBVEM_NestedException@@ABUEM_NestedExceptionData@@@Z 10054970 f   TR_Trace:dtEvents.obj
 0001:000539e0       ??0DT_TimeSpanOutOfRange@@QAE@ABV0@@Z 100549e0 f   TR_Trace:dtEvents.obj
 0001:00053a60       ??0DT_TimeSpanOutOfRange@@QAE@PBVEM_NestedException@@ABUEM_NestedExceptionData@@@Z 10054a60 f   TR_Trace:dtEvents.obj
 0001:00053ad0       ??0DT_TimeSpanOutOfRange@@QAE@_J0PBVEM_NestedException@@@Z 10054ad0 f   TR_Trace:dtEvents.obj
 0001:00053b50       ??0DT_TimeZoneNotFound@@QAE@ABV0@@Z 10054b50 f   TR_Trace:dtEvents.obj
 0001:00053bd0       ??0DT_TimeZoneNotFound@@QAE@PBVEM_NestedException@@ABUEM_NestedExceptionData@@@Z 10054bd0 f   TR_Trace:dtEvents.obj
 0001:00053c50       ??0DT_TimeZoneNotFound@@QAE@V?$basic_string@_WU?$char_traits@_W@std@@V?$allocator@_W@2@@std@@PBVEM_NestedException@@@Z 10054c50 f   TR_Trace:dtEvents.obj
 0001:00053d00       ??1DT_TimeSpanOutOfRange@@UAE@XZ 10054d00 f i TR_Trace:dtEvents.obj
 0001:00053d50       ??_EDT_InconsistentDayOfMonth@@UAEPAXI@Z 10054d50 f i TR_Trace:dtEvents.obj
 0001:00053d50       ??_GDT_InconsistentDayOfMonth@@UAEPAXI@Z 10054d50 f i TR_Trace:dtEvents.obj
 0001:00053db0       ??_GDT_InconsistentMonth@@UAEPAXI@Z 10054db0 f i TR_Trace:dtEvents.obj
 0001:00053db0       ??_EDT_InconsistentMonth@@UAEPAXI@Z 10054db0 f i TR_Trace:dtEvents.obj
 0001:00053e10       ??_GDT_InconsistentYear@@UAEPAXI@Z 10054e10 f i TR_Trace:dtEvents.obj
 0001:00053e10       ??_EDT_InconsistentYear@@UAEPAXI@Z 10054e10 f i TR_Trace:dtEvents.obj
 0001:00053e70       ??_GDT_TimeSpanOutOfRange@@UAEPAXI@Z 10054e70 f i TR_Trace:dtEvents.obj
 0001:00053e70       ??_EDT_TimeSpanOutOfRange@@UAEPAXI@Z 10054e70 f i TR_Trace:dtEvents.obj
 0001:00053ed0       ??_GDT_TimeZoneNotFound@@UAEPAXI@Z 10054ed0 f i TR_Trace:dtEvents.obj
 0001:00053ed0       ??_EDT_TimeZoneNotFound@@UAEPAXI@Z 10054ed0 f i TR_Trace:dtEvents.obj
 0001:00053f60       ?Clone@DT_InconsistentDayOfMonth@@UBEPAVEM_NestedException@@XZ 10054f60 f   TR_Trace:dtEvents.obj
 0001:00053fe0       ?Clone@DT_InconsistentMonth@@UBEPAVEM_NestedException@@XZ 10054fe0 f   TR_Trace:dtEvents.obj
 0001:00054060       ?Clone@DT_InconsistentYear@@UBEPAVEM_NestedException@@XZ 10055060 f   TR_Trace:dtEvents.obj
 0001:000540e0       ?Clone@DT_TimeSpanOutOfRange@@UBEPAVEM_NestedException@@XZ 100550e0 f   TR_Trace:dtEvents.obj
 0001:00054160       ?Clone@DT_TimeZoneNotFound@@UBEPAVEM_NestedException@@XZ 10055160 f   TR_Trace:dtEvents.obj
 0001:000541e0       ?FormatExceptionData@DT_InconsistentDayOfMonth@@UBEXPAPAUEM_LogParams@@@Z 100551e0 f   TR_Trace:dtEvents.obj
 0001:000542a0       ?FormatExceptionData@DT_InconsistentMonth@@UBEXPAPAUEM_LogParams@@@Z 100552a0 f   TR_Trace:dtEvents.obj
 0001:00054360       ?FormatExceptionData@DT_InconsistentYear@@UBEXPAPAUEM_LogParams@@@Z 10055360 f   TR_Trace:dtEvents.obj
 0001:00054420       ?FormatExceptionData@DT_TimeSpanOutOfRange@@UBEXPAPAUEM_LogParams@@@Z 10055420 f   TR_Trace:dtEvents.obj
 0001:000544f0       ?FormatExceptionData@DT_TimeZoneNotFound@@UBEXPAPAUEM_LogParams@@@Z 100554f0 f   TR_Trace:dtEvents.obj
 0001:000545d0       ?GetAttributes@DT_InconsistentDayOfMonth@@UBEABUEM_EventInfo@@XZ 100555d0 f   TR_Trace:dtEvents.obj
 0001:000545e0       ?GetAttributes@DT_InconsistentMonth@@UBEABUEM_EventInfo@@XZ 100555e0 f   TR_Trace:dtEvents.obj
 0001:000545f0       ?GetAttributes@DT_InconsistentYear@@UBEABUEM_EventInfo@@XZ 100555f0 f   TR_Trace:dtEvents.obj
 0001:00054600       ?GetAttributes@DT_TimeSpanOutOfRange@@UBEABUEM_EventInfo@@XZ 10055600 f   TR_Trace:dtEvents.obj
 0001:00054610       ?GetAttributes@DT_TimeZoneNotFound@@UBEABUEM_EventInfo@@XZ 10055610 f   TR_Trace:dtEvents.obj
 0001:00054620       ?GetId@DT_InconsistentDayOfMonth@@UBEJXZ 10055620 f   TR_Trace:dtEvents.obj
 0001:00054630       ?GetId@DT_InconsistentMonth@@UBEJXZ 10055630 f   TR_Trace:dtEvents.obj
 0001:00054640       ?GetId@DT_InconsistentYear@@UBEJXZ 10055640 f   TR_Trace:dtEvents.obj
 0001:00054650       ?GetId@DT_TimeSpanOutOfRange@@UBEJXZ 10055650 f   TR_Trace:dtEvents.obj
 0001:00054660       ?GetId@DT_TimeZoneNotFound@@UBEJXZ 10055660 f   TR_Trace:dtEvents.obj
 0001:00054670       ??0DT_TimeSpan@@QAE@FFFFF@Z 10055670 f   TR_Trace:TimeSpan.obj
 0001:00054790       ??0DT_TimeSpan@@QAE@_J@Z   10055790 f   TR_Trace:TimeSpan.obj
 0001:00054c30       ??GDT_TimeSpan@@QBE?AV0@ABV0@@Z 10055c30 f   TR_Trace:TimeSpan.obj
 0001:00054ca0       ??HDT_TimeSpan@@QBE?AV0@ABV0@@Z 10055ca0 f   TR_Trace:TimeSpan.obj
 0001:00054d10       ??YDT_TimeSpan@@QAEABV0@ABV0@@Z 10055d10 f   TR_Trace:TimeSpan.obj
 0001:00054d80       ??ZDT_TimeSpan@@QAEABV0@ABV0@@Z 10055d80 f   TR_Trace:TimeSpan.obj
 0001:00054df0       ?AsString@DT_TimeSpan@@QBE?AV?$basic_string@_WU?$char_traits@_W@std@@V?$allocator@_W@2@@std@@XZ 10055df0 f   TR_Trace:TimeSpan.obj
 0001:00054f50       ?Display@DT_TimeSpan@@QBEXAAV?$basic_ostream@_WU?$char_traits@_W@std@@@std@@@Z 10055f50 f   TR_Trace:TimeSpan.obj
 0001:000552c0       ?GetDays@DT_TimeSpan@@QBEFXZ 100562c0 f i TR_Trace:TimeSpan.obj
 0001:000552e0       ?GetHours@DT_TimeSpan@@QBEFXZ 100562e0 f i TR_Trace:TimeSpan.obj
 0001:00055300       ?GetMilliseconds@DT_TimeSpan@@QBEFXZ 10056300 f i TR_Trace:TimeSpan.obj
 0001:00055320       ?GetMinutes@DT_TimeSpan@@QBEFXZ 10056320 f i TR_Trace:TimeSpan.obj
 0001:00055340       ?GetSeconds@DT_TimeSpan@@QBEFXZ 10056340 f i TR_Trace:TimeSpan.obj
 0001:00055360       ?GetTotalHours@DT_TimeSpan@@QBEJXZ 10056360 f i TR_Trace:TimeSpan.obj
 0001:00055380       ?GetTotalMinutes@DT_TimeSpan@@QBEJXZ 10056380 f i TR_Trace:TimeSpan.obj
 0001:000553a0       ?GetTotalSeconds@DT_TimeSpan@@QBEJXZ 100563a0 f i TR_Trace:TimeSpan.obj
 0001:000553c0       ?Invariant@DT_TimeSpan@@QAE_NXZ 100563c0 f i TR_Trace:TimeSpan.obj
 0001:000553f0       ?ResetToZero@DT_TimeSpan@@QAEXXZ 100563f0 f   TR_Trace:TimeSpan.obj
 0001:00055400       ?Set@DT_TimeSpan@@AAEXFFFFF@Z 10056400 f i TR_Trace:TimeSpan.obj
 0001:000554b0       ?Set@DT_TimeSpan@@AAEX_J@Z 100564b0 f i TR_Trace:TimeSpan.obj
 0001:000554d0       ?SetDays@DT_TimeSpan@@QAEXF@Z 100564d0 f   TR_Trace:TimeSpan.obj
 0001:000555b0       ?SetHours@DT_TimeSpan@@QAEXF@Z 100565b0 f   TR_Trace:TimeSpan.obj
 0001:00055680       ?SetMilliseconds@DT_TimeSpan@@QAEXF@Z 10056680 f   TR_Trace:TimeSpan.obj
 0001:00055770       ?SetMinutes@DT_TimeSpan@@QAEXF@Z 10056770 f   TR_Trace:TimeSpan.obj
 0001:00055840       ?SetSeconds@DT_TimeSpan@@QAEXF@Z 10056840 f   TR_Trace:TimeSpan.obj
 0001:00055920       ?SetTotalHours@DT_TimeSpan@@QAEXJ@Z 10056920 f   TR_Trace:TimeSpan.obj
 0001:00055a50       ?SetTotalMilliseconds@DT_TimeSpan@@QAEX_J@Z 10056a50 f   TR_Trace:TimeSpan.obj
 0001:00055ae0       ?SetTotalMinutes@DT_TimeSpan@@QAEXJ@Z 10056ae0 f   TR_Trace:TimeSpan.obj
 0001:00055bd0       ?SetTotalSeconds@DT_TimeSpan@@QAEXJ@Z 10056bd0 f   TR_Trace:TimeSpan.obj
 0001:00055c80       ?Throw@THR_FailedToCreateTimerQTimer@@SAXAAUEM_NestedExceptionData@@PAVEM_NestedException@@@Z 10056c80 f   TR_Trace:thrEvents.obj
 0001:00055ce0       ?Throw@THR_FailedToDeleteTimerQTimer@@SAXAAUEM_NestedExceptionData@@PAVEM_NestedException@@@Z 10056ce0 f   TR_Trace:thrEvents.obj
 0001:00055d40       ?Throw@THR_FailedToCreateThread@@SAXAAUEM_NestedExceptionData@@PAVEM_NestedException@@@Z 10056d40 f   TR_Trace:thrEvents.obj
 0001:00055da0       ?Throw@THR_FailedToSetPriority@@SAXAAUEM_NestedExceptionData@@PAVEM_NestedException@@@Z 10056da0 f   TR_Trace:thrEvents.obj
 0001:00055e00       ?Throw@THR_FailedToSuspendThread@@SAXAAUEM_NestedExceptionData@@PAVEM_NestedException@@@Z 10056e00 f   TR_Trace:thrEvents.obj
 0001:00055e60       ?Throw@THR_FailedToResumeThread@@SAXAAUEM_NestedExceptionData@@PAVEM_NestedException@@@Z 10056e60 f   TR_Trace:thrEvents.obj
 0001:00055ec0       ?Throw@THR_FailedToGetPriority@@SAXAAUEM_NestedExceptionData@@PAVEM_NestedException@@@Z 10056ec0 f   TR_Trace:thrEvents.obj
 0001:00055f20       ?Throw@THR_FailedToChangeTimerQTimer@@SAXAAUEM_NestedExceptionData@@PAVEM_NestedException@@@Z 10056f20 f   TR_Trace:thrEvents.obj
 0001:00055f80       ?Throw@THR_FailedToReleaseMutex@@SAXAAUEM_NestedExceptionData@@PAVEM_NestedException@@@Z 10056f80 f   TR_Trace:thrEvents.obj
 0001:00055fe0       ?Throw@THR_FailedToAcquireMutex@@SAXAAUEM_NestedExceptionData@@PAVEM_NestedException@@@Z 10056fe0 f   TR_Trace:thrEvents.obj
 0001:00056040       ?Throw@THR_CSReleaseFromWrongThread@@SAXAAUEM_NestedExceptionData@@PAVEM_NestedException@@@Z 10057040 f   TR_Trace:thrEvents.obj
 0001:000560a0       ??0THR_CSReleaseFromWrongThread@@QAE@ABV0@@Z 100570a0 f   TR_Trace:thrEvents.obj
 0001:00056110       ??0THR_CSReleaseFromWrongThread@@QAE@KKPBVEM_NestedException@@@Z 10057110 f   TR_Trace:thrEvents.obj
 0001:00056180       ??0THR_CSReleaseFromWrongThread@@QAE@PBVEM_NestedException@@ABUEM_NestedExceptionData@@@Z 10057180 f   TR_Trace:thrEvents.obj
 0001:000561f0       ??0THR_FailedToAcquireMutex@@QAE@ABV0@@Z 100571f0 f   TR_Trace:thrEvents.obj
 0001:00056260       ??0THR_FailedToAcquireMutex@@QAE@KPBVEM_NestedException@@@Z 10057260 f   TR_Trace:thrEvents.obj
 0001:000562c0       ??0THR_FailedToAcquireMutex@@QAE@PBVEM_NestedException@@ABUEM_NestedExceptionData@@@Z 100572c0 f   TR_Trace:thrEvents.obj
 0001:00056330       ??0THR_FailedToChangeTimerQTimer@@QAE@ABV0@@Z 10057330 f   TR_Trace:thrEvents.obj
 0001:000563b0       ??0THR_FailedToChangeTimerQTimer@@QAE@PBVEM_NestedException@@ABUEM_NestedExceptionData@@@Z 100573b0 f   TR_Trace:thrEvents.obj
 0001:00056430       ??0THR_FailedToChangeTimerQTimer@@QAE@V?$basic_string@_WU?$char_traits@_W@std@@V?$allocator@_W@2@@std@@PBVEM_NestedException@@@Z 10057430 f   TR_Trace:thrEvents.obj
 0001:000564e0       ??0THR_FailedToCreateThread@@QAE@ABV0@@Z 100574e0 f   TR_Trace:thrEvents.obj
 0001:00056560       ??0THR_FailedToCreateThread@@QAE@PBVEM_NestedException@@ABUEM_NestedExceptionData@@@Z 10057560 f   TR_Trace:thrEvents.obj
 0001:000565e0       ??0THR_FailedToCreateThread@@QAE@V?$basic_string@_WU?$char_traits@_W@std@@V?$allocator@_W@2@@std@@PBVEM_NestedException@@@Z 100575e0 f   TR_Trace:thrEvents.obj
 0001:00056690       ??0THR_FailedToCreateTimerQTimer@@QAE@ABV0@@Z 10057690 f   TR_Trace:thrEvents.obj
 0001:00056710       ??0THR_FailedToCreateTimerQTimer@@QAE@PBVEM_NestedException@@ABUEM_NestedExceptionData@@@Z 10057710 f   TR_Trace:thrEvents.obj
 0001:00056790       ??0THR_FailedToCreateTimerQTimer@@QAE@V?$basic_string@_WU?$char_traits@_W@std@@V?$allocator@_W@2@@std@@PBVEM_NestedException@@@Z 10057790 f   TR_Trace:thrEvents.obj
 0001:00056840       ??0THR_FailedToDeleteTimerQTimer@@QAE@ABV0@@Z 10057840 f   TR_Trace:thrEvents.obj
 0001:000568c0       ??0THR_FailedToDeleteTimerQTimer@@QAE@PBVEM_NestedException@@ABUEM_NestedExceptionData@@@Z 100578c0 f   TR_Trace:thrEvents.obj
 0001:00056940       ??0THR_FailedToDeleteTimerQTimer@@QAE@V?$basic_string@_WU?$char_traits@_W@std@@V?$allocator@_W@2@@std@@PBVEM_NestedException@@@Z 10057940 f   TR_Trace:thrEvents.obj
 0001:000569f0       ??0THR_FailedToGetPriority@@QAE@ABV0@@Z 100579f0 f   TR_Trace:thrEvents.obj
 0001:00056a70       ??0THR_FailedToGetPriority@@QAE@PBVEM_NestedException@@ABUEM_NestedExceptionData@@@Z 10057a70 f   TR_Trace:thrEvents.obj
 0001:00056af0       ??0THR_FailedToGetPriority@@QAE@V?$basic_string@_WU?$char_traits@_W@std@@V?$allocator@_W@2@@std@@PBVEM_NestedException@@@Z 10057af0 f   TR_Trace:thrEvents.obj
 0001:00056ba0       ??0THR_FailedToReleaseMutex@@QAE@ABV0@@Z 10057ba0 f   TR_Trace:thrEvents.obj
 0001:00056c10       ??0THR_FailedToReleaseMutex@@QAE@KPBVEM_NestedException@@@Z 10057c10 f   TR_Trace:thrEvents.obj
 0001:00056c70       ??0THR_FailedToReleaseMutex@@QAE@PBVEM_NestedException@@ABUEM_NestedExceptionData@@@Z 10057c70 f   TR_Trace:thrEvents.obj
 0001:00056ce0       ??0THR_FailedToResumeThread@@QAE@ABV0@@Z 10057ce0 f   TR_Trace:thrEvents.obj
 0001:00056d60       ??0THR_FailedToResumeThread@@QAE@PBVEM_NestedException@@ABUEM_NestedExceptionData@@@Z 10057d60 f   TR_Trace:thrEvents.obj
 0001:00056de0       ??0THR_FailedToResumeThread@@QAE@V?$basic_string@_WU?$char_traits@_W@std@@V?$allocator@_W@2@@std@@PBVEM_NestedException@@@Z 10057de0 f   TR_Trace:thrEvents.obj
 0001:00056e90       ??0THR_FailedToSetPriority@@QAE@ABV0@@Z 10057e90 f   TR_Trace:thrEvents.obj
 0001:00056f10       ??0THR_FailedToSetPriority@@QAE@PBVEM_NestedException@@ABUEM_NestedExceptionData@@@Z 10057f10 f   TR_Trace:thrEvents.obj
 0001:00056f90       ??0THR_FailedToSetPriority@@QAE@V?$basic_string@_WU?$char_traits@_W@std@@V?$allocator@_W@2@@std@@PBVEM_NestedException@@@Z 10057f90 f   TR_Trace:thrEvents.obj
 0001:00057040       ??0THR_FailedToSuspendThread@@QAE@ABV0@@Z 10058040 f   TR_Trace:thrEvents.obj
 0001:000570c0       ??0THR_FailedToSuspendThread@@QAE@PBVEM_NestedException@@ABUEM_NestedExceptionData@@@Z 100580c0 f   TR_Trace:thrEvents.obj
 0001:00057140       ??0THR_FailedToSuspendThread@@QAE@V?$basic_string@_WU?$char_traits@_W@std@@V?$allocator@_W@2@@std@@PBVEM_NestedException@@@Z 10058140 f   TR_Trace:thrEvents.obj
 0001:000571f0       ??1THR_FailedToAcquireMutex@@UAE@XZ 100581f0 f i TR_Trace:thrEvents.obj
 0001:00057240       ??1THR_FailedToChangeTimerQTimer@@UAE@XZ 10058240 f i TR_Trace:thrEvents.obj
 0001:000572c0       ??1THR_FailedToCreateThread@@UAE@XZ 100582c0 f i TR_Trace:thrEvents.obj
 0001:00057340       ??1THR_FailedToCreateTimerQTimer@@UAE@XZ 10058340 f i TR_Trace:thrEvents.obj
 0001:000573c0       ??1THR_FailedToDeleteTimerQTimer@@UAE@XZ 100583c0 f i TR_Trace:thrEvents.obj
 0001:00057440       ??1THR_FailedToGetPriority@@UAE@XZ 10058440 f i TR_Trace:thrEvents.obj
 0001:000574c0       ??1THR_FailedToReleaseMutex@@UAE@XZ 100584c0 f i TR_Trace:thrEvents.obj
 0001:00057510       ??1THR_FailedToResumeThread@@UAE@XZ 10058510 f i TR_Trace:thrEvents.obj
 0001:00057590       ??1THR_FailedToSetPriority@@UAE@XZ 10058590 f i TR_Trace:thrEvents.obj
 0001:00057610       ??1THR_FailedToSuspendThread@@UAE@XZ 10058610 f i TR_Trace:thrEvents.obj
 0001:00057690       ??_GTHR_CSReleaseFromWrongThread@@UAEPAXI@Z 10058690 f i TR_Trace:thrEvents.obj
 0001:00057690       ??_ETHR_CSReleaseFromWrongThread@@UAEPAXI@Z 10058690 f i TR_Trace:thrEvents.obj
 0001:000576f0       ??_ETHR_FailedToAcquireMutex@@UAEPAXI@Z 100586f0 f i TR_Trace:thrEvents.obj
 0001:000576f0       ??_GTHR_FailedToAcquireMutex@@UAEPAXI@Z 100586f0 f i TR_Trace:thrEvents.obj
 0001:00057750       ??_ETHR_FailedToChangeTimerQTimer@@UAEPAXI@Z 10058750 f i TR_Trace:thrEvents.obj
 0001:00057750       ??_GTHR_FailedToChangeTimerQTimer@@UAEPAXI@Z 10058750 f i TR_Trace:thrEvents.obj
 0001:000577e0       ??_ETHR_FailedToCreateThread@@UAEPAXI@Z 100587e0 f i TR_Trace:thrEvents.obj
 0001:000577e0       ??_GTHR_FailedToCreateThread@@UAEPAXI@Z 100587e0 f i TR_Trace:thrEvents.obj
 0001:00057870       ??_ETHR_FailedToCreateTimerQTimer@@UAEPAXI@Z 10058870 f i TR_Trace:thrEvents.obj
 0001:00057870       ??_GTHR_FailedToCreateTimerQTimer@@UAEPAXI@Z 10058870 f i TR_Trace:thrEvents.obj
 0001:00057900       ??_GTHR_FailedToDeleteTimerQTimer@@UAEPAXI@Z 10058900 f i TR_Trace:thrEvents.obj
 0001:00057900       ??_ETHR_FailedToDeleteTimerQTimer@@UAEPAXI@Z 10058900 f i TR_Trace:thrEvents.obj
 0001:00057990       ??_ETHR_FailedToGetPriority@@UAEPAXI@Z 10058990 f i TR_Trace:thrEvents.obj
 0001:00057990       ??_GTHR_FailedToGetPriority@@UAEPAXI@Z 10058990 f i TR_Trace:thrEvents.obj
 0001:00057a20       ??_GTHR_FailedToReleaseMutex@@UAEPAXI@Z 10058a20 f i TR_Trace:thrEvents.obj
 0001:00057a20       ??_ETHR_FailedToReleaseMutex@@UAEPAXI@Z 10058a20 f i TR_Trace:thrEvents.obj
 0001:00057a80       ??_GTHR_FailedToResumeThread@@UAEPAXI@Z 10058a80 f i TR_Trace:thrEvents.obj
 0001:00057a80       ??_ETHR_FailedToResumeThread@@UAEPAXI@Z 10058a80 f i TR_Trace:thrEvents.obj
 0001:00057b10       ??_ETHR_FailedToSetPriority@@UAEPAXI@Z 10058b10 f i TR_Trace:thrEvents.obj
 0001:00057b10       ??_GTHR_FailedToSetPriority@@UAEPAXI@Z 10058b10 f i TR_Trace:thrEvents.obj
 0001:00057ba0       ??_ETHR_FailedToSuspendThread@@UAEPAXI@Z 10058ba0 f i TR_Trace:thrEvents.obj
 0001:00057ba0       ??_GTHR_FailedToSuspendThread@@UAEPAXI@Z 10058ba0 f i TR_Trace:thrEvents.obj
 0001:00057c30       ?Clone@THR_CSReleaseFromWrongThread@@UBEPAVEM_NestedException@@XZ 10058c30 f   TR_Trace:thrEvents.obj
 0001:00057cb0       ?Clone@THR_FailedToAcquireMutex@@UBEPAVEM_NestedException@@XZ 10058cb0 f   TR_Trace:thrEvents.obj
 0001:00057d30       ?Clone@THR_FailedToChangeTimerQTimer@@UBEPAVEM_NestedException@@XZ 10058d30 f   TR_Trace:thrEvents.obj
 0001:00057db0       ?Clone@THR_FailedToCreateThread@@UBEPAVEM_NestedException@@XZ 10058db0 f   TR_Trace:thrEvents.obj
 0001:00057e30       ?Clone@THR_FailedToCreateTimerQTimer@@UBEPAVEM_NestedException@@XZ 10058e30 f   TR_Trace:thrEvents.obj
 0001:00057eb0       ?Clone@THR_FailedToDeleteTimerQTimer@@UBEPAVEM_NestedException@@XZ 10058eb0 f   TR_Trace:thrEvents.obj
 0001:00057f30       ?Clone@THR_FailedToGetPriority@@UBEPAVEM_NestedException@@XZ 10058f30 f   TR_Trace:thrEvents.obj
 0001:00057fb0       ?Clone@THR_FailedToReleaseMutex@@UBEPAVEM_NestedException@@XZ 10058fb0 f   TR_Trace:thrEvents.obj
 0001:00058030       ?Clone@THR_FailedToResumeThread@@UBEPAVEM_NestedException@@XZ 10059030 f   TR_Trace:thrEvents.obj
 0001:000580b0       ?Clone@THR_FailedToSetPriority@@UBEPAVEM_NestedException@@XZ 100590b0 f   TR_Trace:thrEvents.obj
 0001:00058130       ?Clone@THR_FailedToSuspendThread@@UBEPAVEM_NestedException@@XZ 10059130 f   TR_Trace:thrEvents.obj
 0001:000581b0       ?FormatExceptionData@THR_CSReleaseFromWrongThread@@UBEXPAPAUEM_LogParams@@@Z 100591b0 f   TR_Trace:thrEvents.obj
 0001:00058280       ?FormatExceptionData@THR_FailedToAcquireMutex@@UBEXPAPAUEM_LogParams@@@Z 10059280 f   TR_Trace:thrEvents.obj
 0001:00058330       ?FormatExceptionData@THR_FailedToChangeTimerQTimer@@UBEXPAPAUEM_LogParams@@@Z 10059330 f   TR_Trace:thrEvents.obj
 0001:00058410       ?FormatExceptionData@THR_FailedToCreateThread@@UBEXPAPAUEM_LogParams@@@Z 10059410 f   TR_Trace:thrEvents.obj
 0001:000584f0       ?FormatExceptionData@THR_FailedToCreateTimerQTimer@@UBEXPAPAUEM_LogParams@@@Z 100594f0 f   TR_Trace:thrEvents.obj
 0001:000585d0       ?FormatExceptionData@THR_FailedToDeleteTimerQTimer@@UBEXPAPAUEM_LogParams@@@Z 100595d0 f   TR_Trace:thrEvents.obj
 0001:000586b0       ?FormatExceptionData@THR_FailedToGetPriority@@UBEXPAPAUEM_LogParams@@@Z 100596b0 f   TR_Trace:thrEvents.obj
 0001:00058790       ?FormatExceptionData@THR_FailedToReleaseMutex@@UBEXPAPAUEM_LogParams@@@Z 10059790 f   TR_Trace:thrEvents.obj
 0001:00058840       ?FormatExceptionData@THR_FailedToResumeThread@@UBEXPAPAUEM_LogParams@@@Z 10059840 f   TR_Trace:thrEvents.obj
 0001:00058920       ?FormatExceptionData@THR_FailedToSetPriority@@UBEXPAPAUEM_LogParams@@@Z 10059920 f   TR_Trace:thrEvents.obj
 0001:00058a00       ?FormatExceptionData@THR_FailedToSuspendThread@@UBEXPAPAUEM_LogParams@@@Z 10059a00 f   TR_Trace:thrEvents.obj
 0001:00058ae0       ?GetAttributes@THR_CSReleaseFromWrongThread@@UBEABUEM_EventInfo@@XZ 10059ae0 f   TR_Trace:thrEvents.obj
 0001:00058af0       ?GetAttributes@THR_FailedToAcquireMutex@@UBEABUEM_EventInfo@@XZ 10059af0 f   TR_Trace:thrEvents.obj
 0001:00058b00       ?GetAttributes@THR_FailedToChangeTimerQTimer@@UBEABUEM_EventInfo@@XZ 10059b00 f   TR_Trace:thrEvents.obj
 0001:00058b10       ?GetAttributes@THR_FailedToCreateThread@@UBEABUEM_EventInfo@@XZ 10059b10 f   TR_Trace:thrEvents.obj
 0001:00058b20       ?GetAttributes@THR_FailedToCreateTimerQTimer@@UBEABUEM_EventInfo@@XZ 10059b20 f   TR_Trace:thrEvents.obj
 0001:00058b30       ?GetAttributes@THR_FailedToDeleteTimerQTimer@@UBEABUEM_EventInfo@@XZ 10059b30 f   TR_Trace:thrEvents.obj
 0001:00058b40       ?GetAttributes@THR_FailedToGetPriority@@UBEABUEM_EventInfo@@XZ 10059b40 f   TR_Trace:thrEvents.obj
 0001:00058b50       ?GetAttributes@THR_FailedToReleaseMutex@@UBEABUEM_EventInfo@@XZ 10059b50 f   TR_Trace:thrEvents.obj
 0001:00058b60       ?GetAttributes@THR_FailedToResumeThread@@UBEABUEM_EventInfo@@XZ 10059b60 f   TR_Trace:thrEvents.obj
 0001:00058b70       ?GetAttributes@THR_FailedToSetPriority@@UBEABUEM_EventInfo@@XZ 10059b70 f   TR_Trace:thrEvents.obj
 0001:00058b80       ?GetAttributes@THR_FailedToSuspendThread@@UBEABUEM_EventInfo@@XZ 10059b80 f   TR_Trace:thrEvents.obj
 0001:00058b90       ?GetId@THR_CSReleaseFromWrongThread@@UBEJXZ 10059b90 f   TR_Trace:thrEvents.obj
 0001:00058ba0       ?GetId@THR_FailedToAcquireMutex@@UBEJXZ 10059ba0 f   TR_Trace:thrEvents.obj
 0001:00058bb0       ?GetId@THR_FailedToChangeTimerQTimer@@UBEJXZ 10059bb0 f   TR_Trace:thrEvents.obj
 0001:00058bc0       ?GetId@THR_FailedToCreateThread@@UBEJXZ 10059bc0 f   TR_Trace:thrEvents.obj
 0001:00058bd0       ?GetId@THR_FailedToCreateTimerQTimer@@UBEJXZ 10059bd0 f   TR_Trace:thrEvents.obj
 0001:00058be0       ?GetId@THR_FailedToDeleteTimerQTimer@@UBEJXZ 10059be0 f   TR_Trace:thrEvents.obj
 0001:00058bf0       ?GetId@THR_FailedToGetPriority@@UBEJXZ 10059bf0 f   TR_Trace:thrEvents.obj
 0001:00058c00       ?GetId@THR_FailedToReleaseMutex@@UBEJXZ 10059c00 f   TR_Trace:thrEvents.obj
 0001:00058c10       ?GetId@THR_FailedToResumeThread@@UBEJXZ 10059c10 f   TR_Trace:thrEvents.obj
 0001:00058c20       ?GetId@THR_FailedToSetPriority@@UBEJXZ 10059c20 f   TR_Trace:thrEvents.obj
 0001:00058c30       ?GetId@THR_FailedToSuspendThread@@UBEJXZ 10059c30 f   TR_Trace:thrEvents.obj
 0001:00058c40       ??0DT_TimeOfDay@@QAE@GGGG@Z 10059c40 f   TR_Trace:TimeOfDay.obj
 0001:00058d20       ??0DT_TimeOfDay@@QAE@J@Z   10059d20 f   TR_Trace:TimeOfDay.obj
 0001:00058d90       ?AsString@DT_TimeOfDay@@QBE?AV?$basic_string@_WU?$char_traits@_W@std@@V?$allocator@_W@2@@std@@XZ 10059d90 f   TR_Trace:TimeOfDay.obj
 0001:00058ee0       ?Display@DT_TimeOfDay@@QBEXAAV?$basic_ostream@_WU?$char_traits@_W@std@@@std@@@Z 10059ee0 f   TR_Trace:TimeOfDay.obj
 0001:000590e0       ?GetTotalSeconds@DT_TimeOfDay@@QBEJXZ 1005a0e0 f i TR_Trace:TimeOfDay.obj
 0001:00059100       ?Invariant@DT_TimeOfDay@@QAE_NXZ 1005a100 f i TR_Trace:TimeOfDay.obj
 0001:00059120       ?Set@DT_TimeOfDay@@AAEXGGGG@Z 1005a120 f i TR_Trace:TimeOfDay.obj
 0001:00059160       ?SetHours@DT_TimeOfDay@@QAEXG@Z 1005a160 f   TR_Trace:TimeOfDay.obj
 0001:00059260       ?SetMilliseconds@DT_TimeOfDay@@QAEXG@Z 1005a260 f   TR_Trace:TimeOfDay.obj
 0001:00059360       ?SetMinutes@DT_TimeOfDay@@QAEXG@Z 1005a360 f   TR_Trace:TimeOfDay.obj
 0001:00059460       ?SetSeconds@DT_TimeOfDay@@QAEXG@Z 1005a460 f   TR_Trace:TimeOfDay.obj
 0001:00059560       ??1CEventLog@@QAE@XZ       1005a560 f i BufferMgr:BufferMgr.obj
 0001:00059570       ?AddBADtoBuffer@@YAXIHH@Z  1005a570 f   BufferMgr:BufferMgr.obj
 0001:000595e0       ?AttemptToCombine@@YAPAUBuffInfo@@PAU1@H@Z 1005a5e0 f   BufferMgr:BufferMgr.obj
 0001:00059940       ?AttemptToCombineLarge@@YAPAUBuffInfo@@PAU1@H@Z 1005a940 f   BufferMgr:BufferMgr.obj
 0001:00059ce0       ?BM_SetNAPLog@@YAXPAVNLogBase@@@Z 1005ace0 f   BufferMgr:BufferMgr.obj
 0001:00059cf0       ?BuffWalker@@YAHK_J_NPAUMemoryMap@@@Z 1005acf0 f   BufferMgr:BufferMgr.obj
 0001:00059f60       ?CarveOutBuffer@@YAXPAUBuffInfo@@HH@Z 1005af60 f   BufferMgr:BufferMgr.obj
 0001:0005a1c0       ?CheckBADPattern@@YAXIHG@Z 1005b1c0 f   BufferMgr:BufferMgr.obj
 0001:0005a310       ?CheckIndex@@YAXH@Z        1005b310 f   BufferMgr:BufferMgr.obj
 0001:0005a330       ?CombineBuffer@@YAXPAUBuffInfo@@0H@Z 1005b330 f   BufferMgr:BufferMgr.obj
 0001:0005a4e0       ?CommitMem@@YAPAXPAXH@Z    1005b4e0 f   BufferMgr:BufferMgr.obj
 0001:0005a760       ?DeCommitMem@@YAXPAXH@Z    1005b760 f   BufferMgr:BufferMgr.obj
 0001:0005a9c0       ?DeleteRef@@YAXXZ          1005b9c0 f   BufferMgr:BufferMgr.obj
 0001:0005a9d0       ?GetBuffer@@YAHHPAI@Z      1005b9d0 f   BufferMgr:BufferMgr.obj
 0001:0005be40       ?GetBufferBase@@YAHPAPAE@Z 1005ce40 f   BufferMgr:BufferMgr.obj
 0001:0005bfc0       ?GetMutex@@YA_NPAX@Z       1005cfc0 f   BufferMgr:BufferMgr.obj
 0001:0005c2d0       ?InitBuffMgr@@YA_NXZ       1005d2d0 f   BufferMgr:BufferMgr.obj
 0001:0005d590       ?LockBuffer@@YAHXZ         1005e590 f   BufferMgr:BufferMgr.obj
 0001:0005d5b0       ?MapViewOfBuff@@YAPADPB_W@Z 1005e5b0 f   BufferMgr:BufferMgr.obj
 0001:0005d910       ?RealizePointer@@YAHIPAPAE@Z 1005e910 f   BufferMgr:BufferMgr.obj
 0001:0005da80       ?ReleaseAndUnmap@@YAXPAD0PAX@Z 1005ea80 f   BufferMgr:BufferMgr.obj
 0001:0005dbf0       ?RemoveBufferFromList@@YAXPAUBuffInfo@@H@Z 1005ebf0 f   BufferMgr:BufferMgr.obj
 0001:0005ddc0       ?ReturnBuffer@@YAHI@Z      1005edc0 f   BufferMgr:BufferMgr.obj
 0001:0005e4e0       ?ReturnBufferSlot@@YAXPAUBuffInfo@@H@Z 1005f4e0 f   BufferMgr:BufferMgr.obj
 0001:0005e9f0       ?ReuseBufferFromIndex@@YAXHH@Z 1005f9f0 f   BufferMgr:BufferMgr.obj
 0001:0005ebc0       ?SetAlarmOffPercent@@YAHH@Z 1005fbc0 f   BufferMgr:BufferMgr.obj
 0001:0005ee00       ?SetAlarmOnPercent@@YAHH@Z 1005fe00 f   BufferMgr:BufferMgr.obj
 0001:0005f040       ?SetBMTrace@@YAXH@Z        10060040 f   BufferMgr:BufferMgr.obj
 0001:0005f090       ?SetBufferPoolSize@@YAHH@Z 10060090 f   BufferMgr:BufferMgr.obj
 0001:0005f2d0       ?SetMaxAvailBuffers@@YAHH@Z 100602d0 f   BufferMgr:BufferMgr.obj
 0001:0005f510       ?SetMinAvailBuffers@@YAHH@Z 10060510 f   BufferMgr:BufferMgr.obj
 0001:0005f750       ?SizeToIndex@@YAHH@Z       10060750 f   BufferMgr:BufferMgr.obj
 0001:0005f980       ?TraceBuffUsage@@YAXXZ     10060980 f   BufferMgr:BufferMgr.obj
 0001:000601e0       ?UnLockBuffer@@YAXXZ       100611e0 f   BufferMgr:BufferMgr.obj
 0001:00060310       ?UnrealizePointer@@YAHPAEPAI@Z 10061310 f   BufferMgr:BufferMgr.obj
 0001:000604a0       ?WalkItBy@@YAXPAUMemoryMap@@HH@Z 100614a0 f   BufferMgr:BufferMgr.obj
 0001:00060af0       ??0CEventLog@@QAE@PB_W0@Z  10061af0 f   Naplog:EvtLog.obj
 0001:00060cf0       ?Deregister@CEventLog@@AAEXXZ 10061cf0 f i Naplog:EvtLog.obj
 0001:00060d00       ?LogEvent@CEventLog@@QAEHKGGPAX@Z 10061d00 f   Naplog:EvtLog.obj
 0001:00060d50       ?LogEvent@CEventLog@@QAEHKKPAXGG0@Z 10061d50 f   Naplog:EvtLog.obj
 0001:00060db0       ?LogEvent@CEventLog@@QAEHKPAPB_WGGGPAX@Z 10061db0 f   Naplog:EvtLog.obj
 0001:00060e10       ?LogEvent@CEventLog@@QAEHKPAPB_WGPAXKGG1@Z 10061e10 f   Naplog:EvtLog.obj
 0001:00060e80       ?LogEvent@CEventLog@@QAEHKPAPB_WPAXKGG1@Z 10061e80 f   Naplog:EvtLog.obj
 0001:00060ee0       ?LogEvent@CEventLog@@QAEHKPB_WGGPAX@Z 10061ee0 f   Naplog:EvtLog.obj
 0001:00060f40       ?LogWin32Error@CEventLog@@QAEHKPB_WK@Z 10061f40 f   Naplog:EvtLog.obj
 0001:00061050       ?Register@CEventLog@@AAEXXZ 10062050 f i Naplog:EvtLog.obj
 0001:00061070       ?RegisterLog@CEventLog@@QAEHPA_W@Z 10062070 f   Naplog:EvtLog.obj
 0001:000611ec       _CloseHandle@4             100621ec f   kernel32:KERNEL32.dll
 0001:000611f2       _GetLastError@0            100621f2 f   kernel32:KERNEL32.dll
 0001:000611f8       _InitializeCriticalSectionEx@12 100621f8 f   kernel32:KERNEL32.dll
 0001:000611fe       _ReleaseMutex@4            100621fe f   kernel32:KERNEL32.dll
 0001:00061204       _WaitForSingleObject@8     10062204 f   kernel32:KERNEL32.dll
 0001:0006120a       _CreateMutexW@12           1006220a f   kernel32:KERNEL32.dll
 0001:00061210       _OpenMutexW@12             10062210 f   kernel32:KERNEL32.dll
 0001:00061216       _GetCurrentProcess@0       10062216 f   kernel32:KERNEL32.dll
 0001:0006121c       _OpenFileMappingW@12       1006221c f   kernel32:KERNEL32.dll
 0001:00061222       _MapViewOfFile@20          10062222 f   kernel32:KERNEL32.dll
 0001:00061228       _UnmapViewOfFile@4         10062228 f   kernel32:KERNEL32.dll
 0001:0006122e       _CreateSemaphoreW@16       1006222e f   kernel32:KERNEL32.dll
 0001:00061234       _ReleaseSemaphore@12       10062234 f   kernel32:KERNEL32.dll
 0001:0006123a       _OpenSemaphoreW@12         1006223a f   kernel32:KERNEL32.dll
 0001:00061240       _GetCurrentProcessId@0     10062240 f   kernel32:KERNEL32.dll
 0001:00061246       _CreateFileMappingW@24     10062246 f   kernel32:KERNEL32.dll
 0001:0006124c       _InterlockedDecrement@4    1006224c f   kernel32:KERNEL32.dll
 0001:00061252       _InterlockedIncrement@4    10062252 f   kernel32:KERNEL32.dll
 0001:00061258       _Sleep@4                   10062258 f   kernel32:KERNEL32.dll
 0001:0006125e       _GetModuleFileNameW@12     1006225e f   kernel32:KERNEL32.dll
 0001:00061264       _LocalFree@4               10062264 f   kernel32:KERNEL32.dll
 0001:0006126a       _FormatMessageW@28         1006226a f   kernel32:KERNEL32.dll
 0001:00061270       _MultiByteToWideChar@24    10062270 f   kernel32:KERNEL32.dll
 0001:00061276       _WideCharToMultiByte@32    10062276 f   kernel32:KERNEL32.dll
 0001:0006127c       _DuplicateHandle@28        1006227c f   kernel32:KERNEL32.dll
 0001:00061282       _EnterCriticalSection@4    10062282 f   kernel32:KERNEL32.dll
 0001:00061288       _LeaveCriticalSection@4    10062288 f   kernel32:KERNEL32.dll
 0001:0006128e       _InitializeCriticalSectionAndSpinCount@8 1006228e f   kernel32:KERNEL32.dll
 0001:00061294       _IsBadReadPtr@8            10062294 f   kernel32:KERNEL32.dll
 0001:0006129a       _CompareFileTime@8         1006229a f   kernel32:KERNEL32.dll
 0001:000612a0       _CreateFileW@28            100622a0 f   kernel32:KERNEL32.dll
 0001:000612a6       _DeleteFileW@4             100622a6 f   kernel32:KERNEL32.dll
 0001:000612ac       _GetFileTime@16            100622ac f   kernel32:KERNEL32.dll
 0001:000612b2       _GetTempPathW@8            100622b2 f   kernel32:KERNEL32.dll
 0001:000612b8       _GetCurrentThreadId@0      100622b8 f   kernel32:KERNEL32.dll
 0001:000612be       _CopyFileW@12              100622be f   kernel32:KERNEL32.dll
 0001:000612c4       _MoveFileW@8               100622c4 f   kernel32:KERNEL32.dll
 0001:000612ca       _lstrlenW@4                100622ca f   kernel32:KERNEL32.dll
 0001:000612d0       _GetSystemTimeAsFileTime@4 100622d0 f   kernel32:KERNEL32.dll
 0001:000612d6       _SystemTimeToTzSpecificLocalTime@12 100622d6 f   kernel32:KERNEL32.dll
 0001:000612dc       _FileTimeToSystemTime@8    100622dc f   kernel32:KERNEL32.dll
 0001:000612e2       _SystemTimeToFileTime@8    100622e2 f   kernel32:KERNEL32.dll
 0001:000612e8       _GetTimeZoneInformation@4  100622e8 f   kernel32:KERNEL32.dll
 0001:000612ee       _InitializeCriticalSection@4 100622ee f   kernel32:KERNEL32.dll
 0001:000612f4       _DeleteCriticalSection@4   100622f4 f   kernel32:KERNEL32.dll
 0001:000612fa       _GetThreadId@4             100622fa f   kernel32:KERNEL32.dll
 0001:00061300       _CopyFileA@12              10062300 f   kernel32:KERNEL32.dll
 0001:00061306       _MoveFileExA@12            10062306 f   kernel32:KERNEL32.dll
 0001:0006130c       _MoveFileExW@12            1006230c f   kernel32:KERNEL32.dll
 0001:00061312       _VirtualAlloc@16           10062312 f   kernel32:KERNEL32.dll
 0001:00061318       _VirtualFree@12            10062318 f   kernel32:KERNEL32.dll
 0001:0006131e       _lstrcpyW@8                1006231e f   kernel32:KERNEL32.dll
 0001:00061324       _lstrcatW@8                10062324 f   kernel32:KERNEL32.dll
 0001:0006132a       _GetUserDefaultLangID@0    1006232a f   kernel32:KERNEL32.dll
 0001:00061330       _wsprintfW                 10062330 f   user32:USER32.dll
 0001:00061336       _MessageBoxW@16            10062336 f   user32:USER32.dll
 0001:0006133c       _InitializeSecurityDescriptor@8 1006233c f   advapi32:ADVAPI32.dll
 0001:00061342       _SetSecurityDescriptorDacl@16 10062342 f   advapi32:ADVAPI32.dll
 0001:00061348       _OpenProcessToken@12       10062348 f   advapi32:ADVAPI32.dll
 0001:0006134e       _AdjustTokenPrivileges@24  1006234e f   advapi32:ADVAPI32.dll
 0001:00061354       _ClearEventLogW@8          10062354 f   advapi32:ADVAPI32.dll
 0001:0006135a       _BackupEventLogW@8         1006235a f   advapi32:ADVAPI32.dll
 0001:00061360       _CloseEventLog@4           10062360 f   advapi32:ADVAPI32.dll
 0001:00061366       _DeregisterEventSource@4   10062366 f   advapi32:ADVAPI32.dll
 0001:0006136c       _NotifyChangeEventLog@8    1006236c f   advapi32:ADVAPI32.dll
 0001:00061372       _GetNumberOfEventLogRecords@8 10062372 f   advapi32:ADVAPI32.dll
 0001:00061378       _GetOldestEventLogRecord@8 10062378 f   advapi32:ADVAPI32.dll
 0001:0006137e       _OpenEventLogW@8           1006237e f   advapi32:ADVAPI32.dll
 0001:00061384       _RegisterEventSourceW@8    10062384 f   advapi32:ADVAPI32.dll
 0001:0006138a       _OpenBackupEventLogW@8     1006238a f   advapi32:ADVAPI32.dll
 0001:00061390       _ReadEventLogW@28          10062390 f   advapi32:ADVAPI32.dll
 0001:00061396       _ReportEventW@36           10062396 f   advapi32:ADVAPI32.dll
 0001:0006139c       _LookupPrivilegeValueW@12  1006239c f   advapi32:ADVAPI32.dll
 0001:000613a2       _RegCloseKey@4             100623a2 f   advapi32:ADVAPI32.dll
 0001:000613a8       _RegConnectRegistryW@12    100623a8 f   advapi32:ADVAPI32.dll
 0001:000613ae       _RegCreateKeyExW@36        100623ae f   advapi32:ADVAPI32.dll
 0001:000613b4       _RegDeleteKeyW@8           100623b4 f   advapi32:ADVAPI32.dll
 0001:000613ba       _RegEnumKeyW@16            100623ba f   advapi32:ADVAPI32.dll
 0001:000613c0       _RegOpenKeyExW@20          100623c0 f   advapi32:ADVAPI32.dll
 0001:000613c6       _RegSetValueExW@24         100623c6 f   advapi32:ADVAPI32.dll
 0001:000613cc       _RegCreateKeyW@12          100623cc f   advapi32:ADVAPI32.dll
 0001:000613d2       _RegOpenKeyW@12            100623d2 f   advapi32:ADVAPI32.dll
 0001:000613d8       _SysFreeString@4           100623d8 f   oleaut32:OLEAUT32.dll
 0001:000613de       _SysAllocString@4          100623de f   oleaut32:OLEAUT32.dll
 0001:000613e4       _SysAllocStringLen@8       100623e4 f   oleaut32:OLEAUT32.dll
 0001:000613ea       _SysStringLen@4            100623ea f   oleaut32:OLEAUT32.dll
 0001:000613f0       _SysStringByteLen@4        100623f0 f   oleaut32:OLEAUT32.dll
 0001:000613f6       _SysAllocStringByteLen@8   100623f6 f   oleaut32:OLEAUT32.dll
 0001:000613fc       _VariantInit@4             100623fc f   oleaut32:OLEAUT32.dll
 0001:00061402       _VariantClear@4            10062402 f   oleaut32:OLEAUT32.dll
 0001:00061408       _VariantChangeType@16      10062408 f   oleaut32:OLEAUT32.dll
 0001:0006140e       _SystemTimeToVariantTime@8 1006240e f   oleaut32:OLEAUT32.dll
 0001:00061414       _VariantTimeToSystemTime@12 10062414 f   oleaut32:OLEAUT32.dll
 0001:00061420       ?Throw@GL_AddGlobalObjectFailure@@SAXAAUEM_NestedExceptionData@@PAVEM_NestedException@@@Z 10062420 f   GLOB:GLEvents.obj
 0001:00061480       ?Throw@GL_ReadGlobalObjectFailure@@SAXAAUEM_NestedExceptionData@@PAVEM_NestedException@@@Z 10062480 f   GLOB:GLEvents.obj
 0001:000614e0       ?Throw@GL_FailedToCreateLDAPSession@@SAXAAUEM_NestedExceptionData@@PAVEM_NestedException@@@Z 100624e0 f   GLOB:GLEvents.obj
 0001:00061540       ?Throw@GL_GetComputerNameExFailure@@SAXAAUEM_NestedExceptionData@@PAVEM_NestedException@@@Z 10062540 f   GLOB:GLEvents.obj
 0001:000615a0       ?Throw@GL_LDAPBindFailure@@SAXAAUEM_NestedExceptionData@@PAVEM_NestedException@@@Z 100625a0 f   GLOB:GLEvents.obj
 0001:00061600       ?Throw@GL_NULLEspAlgPointer@@SAXAAUEM_NestedExceptionData@@PAVEM_NestedException@@@Z 10062600 f   GLOB:GLEvents.obj
 0001:00061660       ?Throw@GL_InvalidBoardType@@SAXAAUEM_NestedExceptionData@@PAVEM_NestedException@@@Z 10062660 f   GLOB:GLEvents.obj
 0001:000616c0       ?Throw@GL_UpdateGlobalsObjectFailure@@SAXAAUEM_NestedExceptionData@@PAVEM_NestedException@@@Z 100626c0 f   GLOB:GLEvents.obj
 0001:00061720       ?Throw@GL_ReadGlobalsObjectFailure@@SAXAAUEM_NestedExceptionData@@PAVEM_NestedException@@@Z 10062720 f   GLOB:GLEvents.obj
 0001:00061780       ?Throw@GL_InvalidOctetString@@SAXAAUEM_NestedExceptionData@@PAVEM_NestedException@@@Z 10062780 f   GLOB:GLEvents.obj
 0001:000617e0       ?Throw@GL_GlobalObjectLockFailure@@SAXAAUEM_NestedExceptionData@@PAVEM_NestedException@@@Z 100627e0 f   GLOB:GLEvents.obj
 0001:00061840       ?Throw@GL_ModifyGlobalsFailure@@SAXAAUEM_NestedExceptionData@@PAVEM_NestedException@@@Z 10062840 f   GLOB:GLEvents.obj
 0001:000618a0       ?Throw@GL_SecurityDescriptorFailure@@SAXAAUEM_NestedExceptionData@@PAVEM_NestedException@@@Z 100628a0 f   GLOB:GLEvents.obj
 0001:00061900       ?Throw@GL_CreateMMFFailure@@SAXAAUEM_NestedExceptionData@@PAVEM_NestedException@@@Z 10062900 f   GLOB:GLEvents.obj
 0001:00061960       ?Throw@GL_LockMMFFailure@@SAXAAUEM_NestedExceptionData@@PAVEM_NestedException@@@Z 10062960 f   GLOB:GLEvents.obj
 0001:000619c0       ?Throw@GL_FailedToAccessParamFile@@SAXAAUEM_NestedExceptionData@@PAVEM_NestedException@@@Z 100629c0 f   GLOB:GLEvents.obj
 0001:00061a20       ?Throw@GL_MMFAccessViolationFailure@@SAXAAUEM_NestedExceptionData@@PAVEM_NestedException@@@Z 10062a20 f   GLOB:GLEvents.obj
 0001:00061a80       ?Throw@GL_InvalidInput@@SAXAAUEM_NestedExceptionData@@PAVEM_NestedException@@@Z 10062a80 f   GLOB:GLEvents.obj
 0001:00061ae0       ?Throw@GL_CreateGlobalsObjectFailure@@SAXAAUEM_NestedExceptionData@@PAVEM_NestedException@@@Z 10062ae0 f   GLOB:GLEvents.obj
 0001:00061b40       ??0GL_AddGlobalObjectFailure@@QAE@ABV0@@Z 10062b40 f   GLOB:GLEvents.obj
 0001:00061ba0       ??0GL_AddGlobalObjectFailure@@QAE@PBVEM_NestedException@@@Z 10062ba0 f   GLOB:GLEvents.obj
 0001:00061c00       ??0GL_AddGlobalObjectFailure@@QAE@PBVEM_NestedException@@ABUEM_NestedExceptionData@@@Z 10062c00 f   GLOB:GLEvents.obj
 0001:00061c70       ??0GL_CreateGlobalsObjectFailure@@QAE@ABV0@@Z 10062c70 f   GLOB:GLEvents.obj
 0001:00061d00       ??0GL_CreateGlobalsObjectFailure@@QAE@HV?$basic_string@_WU?$char_traits@_W@std@@V?$allocator@_W@2@@std@@PBVEM_NestedException@@@Z 10062d00 f   GLOB:GLEvents.obj
 0001:00061db0       ??0GL_CreateGlobalsObjectFailure@@QAE@PBVEM_NestedException@@ABUEM_NestedExceptionData@@@Z 10062db0 f   GLOB:GLEvents.obj
 0001:00061e30       ??0GL_CreateMMFFailure@@QAE@ABV0@@Z 10062e30 f   GLOB:GLEvents.obj
 0001:00061ea0       ??0GL_CreateMMFFailure@@QAE@HPBVEM_NestedException@@@Z 10062ea0 f   GLOB:GLEvents.obj
 0001:00061f00       ??0GL_CreateMMFFailure@@QAE@PBVEM_NestedException@@ABUEM_NestedExceptionData@@@Z 10062f00 f   GLOB:GLEvents.obj
 0001:00061f70       ??0GL_FailedToAccessParamFile@@QAE@ABV0@@Z 10062f70 f   GLOB:GLEvents.obj
 0001:00061fe0       ??0GL_FailedToAccessParamFile@@QAE@HPBVEM_NestedException@@@Z 10062fe0 f   GLOB:GLEvents.obj
 0001:00062040       ??0GL_FailedToAccessParamFile@@QAE@PBVEM_NestedException@@ABUEM_NestedExceptionData@@@Z 10063040 f   GLOB:GLEvents.obj
 0001:000620b0       ??0GL_FailedToCreateLDAPSession@@QAE@ABV0@@Z 100630b0 f   GLOB:GLEvents.obj
 0001:00062110       ??0GL_FailedToCreateLDAPSession@@QAE@PBVEM_NestedException@@@Z 10063110 f   GLOB:GLEvents.obj
 0001:00062170       ??0GL_FailedToCreateLDAPSession@@QAE@PBVEM_NestedException@@ABUEM_NestedExceptionData@@@Z 10063170 f   GLOB:GLEvents.obj
 0001:000621e0       ??0GL_GetComputerNameExFailure@@QAE@ABV0@@Z 100631e0 f   GLOB:GLEvents.obj
 0001:00062240       ??0GL_GetComputerNameExFailure@@QAE@PBVEM_NestedException@@@Z 10063240 f   GLOB:GLEvents.obj
 0001:000622a0       ??0GL_GetComputerNameExFailure@@QAE@PBVEM_NestedException@@ABUEM_NestedExceptionData@@@Z 100632a0 f   GLOB:GLEvents.obj
 0001:00062310       ??0GL_GlobalObjectLockFailure@@QAE@ABV0@@Z 10063310 f   GLOB:GLEvents.obj
 0001:00062370       ??0GL_GlobalObjectLockFailure@@QAE@PBVEM_NestedException@@@Z 10063370 f   GLOB:GLEvents.obj
 0001:000623d0       ??0GL_GlobalObjectLockFailure@@QAE@PBVEM_NestedException@@ABUEM_NestedExceptionData@@@Z 100633d0 f   GLOB:GLEvents.obj
 0001:00062440       ??0GL_InvalidBoardType@@QAE@ABV0@@Z 10063440 f   GLOB:GLEvents.obj
 0001:000624b0       ??0GL_InvalidBoardType@@QAE@JPBVEM_NestedException@@@Z 100634b0 f   GLOB:GLEvents.obj
 0001:00062510       ??0GL_InvalidBoardType@@QAE@PBVEM_NestedException@@ABUEM_NestedExceptionData@@@Z 10063510 f   GLOB:GLEvents.obj
 0001:00062580       ??0GL_InvalidInput@@QAE@ABV0@@Z 10063580 f   GLOB:GLEvents.obj
 0001:000625e0       ??0GL_InvalidInput@@QAE@PBVEM_NestedException@@@Z 100635e0 f   GLOB:GLEvents.obj
 0001:00062640       ??0GL_InvalidInput@@QAE@PBVEM_NestedException@@ABUEM_NestedExceptionData@@@Z 10063640 f   GLOB:GLEvents.obj
 0001:000626b0       ??0GL_InvalidOctetString@@QAE@ABV0@@Z 100636b0 f   GLOB:GLEvents.obj
 0001:00062710       ??0GL_InvalidOctetString@@QAE@PBVEM_NestedException@@@Z 10063710 f   GLOB:GLEvents.obj
 0001:00062770       ??0GL_InvalidOctetString@@QAE@PBVEM_NestedException@@ABUEM_NestedExceptionData@@@Z 10063770 f   GLOB:GLEvents.obj
 0001:000627e0       ??0GL_LDAPBindFailure@@QAE@ABV0@@Z 100637e0 f   GLOB:GLEvents.obj
 0001:00062840       ??0GL_LDAPBindFailure@@QAE@PBVEM_NestedException@@@Z 10063840 f   GLOB:GLEvents.obj
 0001:000628a0       ??0GL_LDAPBindFailure@@QAE@PBVEM_NestedException@@ABUEM_NestedExceptionData@@@Z 100638a0 f   GLOB:GLEvents.obj
 0001:00062910       ??0GL_LockMMFFailure@@QAE@ABV0@@Z 10063910 f   GLOB:GLEvents.obj
 0001:00062980       ??0GL_LockMMFFailure@@QAE@HPBVEM_NestedException@@@Z 10063980 f   GLOB:GLEvents.obj
 0001:000629e0       ??0GL_LockMMFFailure@@QAE@PBVEM_NestedException@@ABUEM_NestedExceptionData@@@Z 100639e0 f   GLOB:GLEvents.obj
 0001:00062a50       ??0GL_MMFAccessViolationFailure@@QAE@ABV0@@Z 10063a50 f   GLOB:GLEvents.obj
 0001:00062ab0       ??0GL_MMFAccessViolationFailure@@QAE@PBVEM_NestedException@@@Z 10063ab0 f   GLOB:GLEvents.obj
 0001:00062b10       ??0GL_MMFAccessViolationFailure@@QAE@PBVEM_NestedException@@ABUEM_NestedExceptionData@@@Z 10063b10 f   GLOB:GLEvents.obj
 0001:00062b80       ??0GL_ModifyGlobalsFailure@@QAE@ABV0@@Z 10063b80 f   GLOB:GLEvents.obj
 0001:00062be0       ??0GL_ModifyGlobalsFailure@@QAE@PBVEM_NestedException@@@Z 10063be0 f   GLOB:GLEvents.obj
 0001:00062c40       ??0GL_ModifyGlobalsFailure@@QAE@PBVEM_NestedException@@ABUEM_NestedExceptionData@@@Z 10063c40 f   GLOB:GLEvents.obj
 0001:00062cb0       ??0GL_NULLEspAlgPointer@@QAE@ABV0@@Z 10063cb0 f   GLOB:GLEvents.obj
 0001:00062d10       ??0GL_NULLEspAlgPointer@@QAE@PBVEM_NestedException@@@Z 10063d10 f   GLOB:GLEvents.obj
 0001:00062d70       ??0GL_NULLEspAlgPointer@@QAE@PBVEM_NestedException@@ABUEM_NestedExceptionData@@@Z 10063d70 f   GLOB:GLEvents.obj
 0001:00062de0       ??0GL_ReadGlobalObjectFailure@@QAE@ABV0@@Z 10063de0 f   GLOB:GLEvents.obj
 0001:00062e40       ??0GL_ReadGlobalObjectFailure@@QAE@PBVEM_NestedException@@@Z 10063e40 f   GLOB:GLEvents.obj
 0001:00062ea0       ??0GL_ReadGlobalObjectFailure@@QAE@PBVEM_NestedException@@ABUEM_NestedExceptionData@@@Z 10063ea0 f   GLOB:GLEvents.obj
 0001:00062f10       ??0GL_ReadGlobalsObjectFailure@@QAE@ABV0@@Z 10063f10 f   GLOB:GLEvents.obj
 0001:00062fa0       ??0GL_ReadGlobalsObjectFailure@@QAE@HV?$basic_string@_WU?$char_traits@_W@std@@V?$allocator@_W@2@@std@@PBVEM_NestedException@@@Z 10063fa0 f   GLOB:GLEvents.obj
 0001:00063050       ??0GL_ReadGlobalsObjectFailure@@QAE@PBVEM_NestedException@@ABUEM_NestedExceptionData@@@Z 10064050 f   GLOB:GLEvents.obj
 0001:000630d0       ??0GL_SecurityDescriptorFailure@@QAE@ABV0@@Z 100640d0 f   GLOB:GLEvents.obj
 0001:00063140       ??0GL_SecurityDescriptorFailure@@QAE@HPBVEM_NestedException@@@Z 10064140 f   GLOB:GLEvents.obj
 0001:000631a0       ??0GL_SecurityDescriptorFailure@@QAE@PBVEM_NestedException@@ABUEM_NestedExceptionData@@@Z 100641a0 f   GLOB:GLEvents.obj
 0001:00063210       ??0GL_UpdateGlobalsObjectFailure@@QAE@ABV0@@Z 10064210 f   GLOB:GLEvents.obj
 0001:000632a0       ??0GL_UpdateGlobalsObjectFailure@@QAE@HV?$basic_string@_WU?$char_traits@_W@std@@V?$allocator@_W@2@@std@@PBVEM_NestedException@@@Z 100642a0 f   GLOB:GLEvents.obj
 0001:00063350       ??0GL_UpdateGlobalsObjectFailure@@QAE@PBVEM_NestedException@@ABUEM_NestedExceptionData@@@Z 10064350 f   GLOB:GLEvents.obj
 0001:000633d0       ??1GL_AddGlobalObjectFailure@@UAE@XZ 100643d0 f i GLOB:GLEvents.obj
 0001:00063420       ??1GL_CreateGlobalsObjectFailure@@UAE@XZ 10064420 f i GLOB:GLEvents.obj
 0001:000634a0       ??1GL_CreateMMFFailure@@UAE@XZ 100644a0 f i GLOB:GLEvents.obj
 0001:000634f0       ??1GL_FailedToAccessParamFile@@UAE@XZ 100644f0 f i GLOB:GLEvents.obj
 0001:00063540       ??1GL_FailedToCreateLDAPSession@@UAE@XZ 10064540 f i GLOB:GLEvents.obj
 0001:00063590       ??1GL_GetComputerNameExFailure@@UAE@XZ 10064590 f i GLOB:GLEvents.obj
 0001:000635e0       ??1GL_GlobalObjectLockFailure@@UAE@XZ 100645e0 f i GLOB:GLEvents.obj
 0001:00063630       ??1GL_InvalidBoardType@@UAE@XZ 10064630 f i GLOB:GLEvents.obj
 0001:00063680       ??1GL_InvalidInput@@UAE@XZ 10064680 f i GLOB:GLEvents.obj
 0001:000636d0       ??1GL_InvalidOctetString@@UAE@XZ 100646d0 f i GLOB:GLEvents.obj
 0001:00063720       ??1GL_LDAPBindFailure@@UAE@XZ 10064720 f i GLOB:GLEvents.obj
 0001:00063770       ??1GL_LockMMFFailure@@UAE@XZ 10064770 f i GLOB:GLEvents.obj
 0001:000637c0       ??1GL_MMFAccessViolationFailure@@UAE@XZ 100647c0 f i GLOB:GLEvents.obj
 0001:00063810       ??1GL_ModifyGlobalsFailure@@UAE@XZ 10064810 f i GLOB:GLEvents.obj
 0001:00063860       ??1GL_NULLEspAlgPointer@@UAE@XZ 10064860 f i GLOB:GLEvents.obj
 0001:000638b0       ??1GL_ReadGlobalObjectFailure@@UAE@XZ 100648b0 f i GLOB:GLEvents.obj
 0001:00063900       ??1GL_ReadGlobalsObjectFailure@@UAE@XZ 10064900 f i GLOB:GLEvents.obj
 0001:00063980       ??1GL_SecurityDescriptorFailure@@UAE@XZ 10064980 f i GLOB:GLEvents.obj
 0001:000639d0       ??1GL_UpdateGlobalsObjectFailure@@UAE@XZ 100649d0 f i GLOB:GLEvents.obj
 0001:00063a50       ??_GGL_AddGlobalObjectFailure@@UAEPAXI@Z 10064a50 f i GLOB:GLEvents.obj
 0001:00063a50       ??_EGL_AddGlobalObjectFailure@@UAEPAXI@Z 10064a50 f i GLOB:GLEvents.obj
 0001:00063ab0       ??_GGL_CreateGlobalsObjectFailure@@UAEPAXI@Z 10064ab0 f i GLOB:GLEvents.obj
 0001:00063ab0       ??_EGL_CreateGlobalsObjectFailure@@UAEPAXI@Z 10064ab0 f i GLOB:GLEvents.obj
 0001:00063b40       ??_EGL_CreateMMFFailure@@UAEPAXI@Z 10064b40 f i GLOB:GLEvents.obj
 0001:00063b40       ??_GGL_CreateMMFFailure@@UAEPAXI@Z 10064b40 f i GLOB:GLEvents.obj
 0001:00063ba0       ??_EGL_FailedToAccessParamFile@@UAEPAXI@Z 10064ba0 f i GLOB:GLEvents.obj
 0001:00063ba0       ??_GGL_FailedToAccessParamFile@@UAEPAXI@Z 10064ba0 f i GLOB:GLEvents.obj
 0001:00063c00       ??_GGL_FailedToCreateLDAPSession@@UAEPAXI@Z 10064c00 f i GLOB:GLEvents.obj
 0001:00063c00       ??_EGL_FailedToCreateLDAPSession@@UAEPAXI@Z 10064c00 f i GLOB:GLEvents.obj
 0001:00063c60       ??_EGL_GetComputerNameExFailure@@UAEPAXI@Z 10064c60 f i GLOB:GLEvents.obj
 0001:00063c60       ??_GGL_GetComputerNameExFailure@@UAEPAXI@Z 10064c60 f i GLOB:GLEvents.obj
 0001:00063cc0       ??_GGL_GlobalObjectLockFailure@@UAEPAXI@Z 10064cc0 f i GLOB:GLEvents.obj
 0001:00063cc0       ??_EGL_GlobalObjectLockFailure@@UAEPAXI@Z 10064cc0 f i GLOB:GLEvents.obj
 0001:00063d20       ??_EGL_InvalidBoardType@@UAEPAXI@Z 10064d20 f i GLOB:GLEvents.obj
 0001:00063d20       ??_GGL_InvalidBoardType@@UAEPAXI@Z 10064d20 f i GLOB:GLEvents.obj
 0001:00063d80       ??_GGL_InvalidInput@@UAEPAXI@Z 10064d80 f i GLOB:GLEvents.obj
 0001:00063d80       ??_EGL_InvalidInput@@UAEPAXI@Z 10064d80 f i GLOB:GLEvents.obj
 0001:00063de0       ??_EGL_InvalidOctetString@@UAEPAXI@Z 10064de0 f i GLOB:GLEvents.obj
 0001:00063de0       ??_GGL_InvalidOctetString@@UAEPAXI@Z 10064de0 f i GLOB:GLEvents.obj
 0001:00063e40       ??_EGL_LDAPBindFailure@@UAEPAXI@Z 10064e40 f i GLOB:GLEvents.obj
 0001:00063e40       ??_GGL_LDAPBindFailure@@UAEPAXI@Z 10064e40 f i GLOB:GLEvents.obj
 0001:00063ea0       ??_EGL_LockMMFFailure@@UAEPAXI@Z 10064ea0 f i GLOB:GLEvents.obj
 0001:00063ea0       ??_GGL_LockMMFFailure@@UAEPAXI@Z 10064ea0 f i GLOB:GLEvents.obj
 0001:00063f00       ??_GGL_MMFAccessViolationFailure@@UAEPAXI@Z 10064f00 f i GLOB:GLEvents.obj
 0001:00063f00       ??_EGL_MMFAccessViolationFailure@@UAEPAXI@Z 10064f00 f i GLOB:GLEvents.obj
 0001:00063f60       ??_EGL_ModifyGlobalsFailure@@UAEPAXI@Z 10064f60 f i GLOB:GLEvents.obj
 0001:00063f60       ??_GGL_ModifyGlobalsFailure@@UAEPAXI@Z 10064f60 f i GLOB:GLEvents.obj
 0001:00063fc0       ??_GGL_NULLEspAlgPointer@@UAEPAXI@Z 10064fc0 f i GLOB:GLEvents.obj
 0001:00063fc0       ??_EGL_NULLEspAlgPointer@@UAEPAXI@Z 10064fc0 f i GLOB:GLEvents.obj
 0001:00064020       ??_GGL_ReadGlobalObjectFailure@@UAEPAXI@Z 10065020 f i GLOB:GLEvents.obj
 0001:00064020       ??_EGL_ReadGlobalObjectFailure@@UAEPAXI@Z 10065020 f i GLOB:GLEvents.obj
 0001:00064080       ??_EGL_ReadGlobalsObjectFailure@@UAEPAXI@Z 10065080 f i GLOB:GLEvents.obj
 0001:00064080       ??_GGL_ReadGlobalsObjectFailure@@UAEPAXI@Z 10065080 f i GLOB:GLEvents.obj
 0001:00064110       ??_GGL_SecurityDescriptorFailure@@UAEPAXI@Z 10065110 f i GLOB:GLEvents.obj
 0001:00064110       ??_EGL_SecurityDescriptorFailure@@UAEPAXI@Z 10065110 f i GLOB:GLEvents.obj
 0001:00064170       ??_GGL_UpdateGlobalsObjectFailure@@UAEPAXI@Z 10065170 f i GLOB:GLEvents.obj
 0001:00064170       ??_EGL_UpdateGlobalsObjectFailure@@UAEPAXI@Z 10065170 f i GLOB:GLEvents.obj
 0001:00064200       ?Clone@GL_AddGlobalObjectFailure@@UBEPAVEM_NestedException@@XZ 10065200 f   GLOB:GLEvents.obj
 0001:00064280       ?Clone@GL_CreateGlobalsObjectFailure@@UBEPAVEM_NestedException@@XZ 10065280 f   GLOB:GLEvents.obj
 0001:00064300       ?Clone@GL_CreateMMFFailure@@UBEPAVEM_NestedException@@XZ 10065300 f   GLOB:GLEvents.obj
 0001:00064380       ?Clone@GL_FailedToAccessParamFile@@UBEPAVEM_NestedException@@XZ 10065380 f   GLOB:GLEvents.obj
 0001:00064400       ?Clone@GL_FailedToCreateLDAPSession@@UBEPAVEM_NestedException@@XZ 10065400 f   GLOB:GLEvents.obj
 0001:00064480       ?Clone@GL_GetComputerNameExFailure@@UBEPAVEM_NestedException@@XZ 10065480 f   GLOB:GLEvents.obj
 0001:00064500       ?Clone@GL_GlobalObjectLockFailure@@UBEPAVEM_NestedException@@XZ 10065500 f   GLOB:GLEvents.obj
 0001:00064580       ?Clone@GL_InvalidBoardType@@UBEPAVEM_NestedException@@XZ 10065580 f   GLOB:GLEvents.obj
 0001:00064600       ?Clone@GL_InvalidInput@@UBEPAVEM_NestedException@@XZ 10065600 f   GLOB:GLEvents.obj
 0001:00064680       ?Clone@GL_InvalidOctetString@@UBEPAVEM_NestedException@@XZ 10065680 f   GLOB:GLEvents.obj
 0001:00064700       ?Clone@GL_LDAPBindFailure@@UBEPAVEM_NestedException@@XZ 10065700 f   GLOB:GLEvents.obj
 0001:00064780       ?Clone@GL_LockMMFFailure@@UBEPAVEM_NestedException@@XZ 10065780 f   GLOB:GLEvents.obj
 0001:00064800       ?Clone@GL_MMFAccessViolationFailure@@UBEPAVEM_NestedException@@XZ 10065800 f   GLOB:GLEvents.obj
 0001:00064880       ?Clone@GL_ModifyGlobalsFailure@@UBEPAVEM_NestedException@@XZ 10065880 f   GLOB:GLEvents.obj
 0001:00064900       ?Clone@GL_NULLEspAlgPointer@@UBEPAVEM_NestedException@@XZ 10065900 f   GLOB:GLEvents.obj
 0001:00064980       ?Clone@GL_ReadGlobalObjectFailure@@UBEPAVEM_NestedException@@XZ 10065980 f   GLOB:GLEvents.obj
 0001:00064a00       ?Clone@GL_ReadGlobalsObjectFailure@@UBEPAVEM_NestedException@@XZ 10065a00 f   GLOB:GLEvents.obj
 0001:00064a80       ?Clone@GL_SecurityDescriptorFailure@@UBEPAVEM_NestedException@@XZ 10065a80 f   GLOB:GLEvents.obj
 0001:00064b00       ?Clone@GL_UpdateGlobalsObjectFailure@@UBEPAVEM_NestedException@@XZ 10065b00 f   GLOB:GLEvents.obj
 0001:00064b80       ?FormatExceptionData@GL_AddGlobalObjectFailure@@UBEXPAPAUEM_LogParams@@@Z 10065b80 f   GLOB:GLEvents.obj
 0001:00064c20       ?FormatExceptionData@GL_CreateGlobalsObjectFailure@@UBEXPAPAUEM_LogParams@@@Z 10065c20 f   GLOB:GLEvents.obj
 0001:00064d20       ?FormatExceptionData@GL_CreateMMFFailure@@UBEXPAPAUEM_LogParams@@@Z 10065d20 f   GLOB:GLEvents.obj
 0001:00064dd0       ?FormatExceptionData@GL_FailedToAccessParamFile@@UBEXPAPAUEM_LogParams@@@Z 10065dd0 f   GLOB:GLEvents.obj
 0001:00064e80       ?FormatExceptionData@GL_FailedToCreateLDAPSession@@UBEXPAPAUEM_LogParams@@@Z 10065e80 f   GLOB:GLEvents.obj
 0001:00064f20       ?FormatExceptionData@GL_GetComputerNameExFailure@@UBEXPAPAUEM_LogParams@@@Z 10065f20 f   GLOB:GLEvents.obj
 0001:00064fd0       ?FormatExceptionData@GL_GlobalObjectLockFailure@@UBEXPAPAUEM_LogParams@@@Z 10065fd0 f   GLOB:GLEvents.obj
 0001:00065070       ?FormatExceptionData@GL_InvalidBoardType@@UBEXPAPAUEM_LogParams@@@Z 10066070 f   GLOB:GLEvents.obj
 0001:00065120       ?FormatExceptionData@GL_InvalidInput@@UBEXPAPAUEM_LogParams@@@Z 10066120 f   GLOB:GLEvents.obj
 0001:000651c0       ?FormatExceptionData@GL_InvalidOctetString@@UBEXPAPAUEM_LogParams@@@Z 100661c0 f   GLOB:GLEvents.obj
 0001:00065260       ?FormatExceptionData@GL_LDAPBindFailure@@UBEXPAPAUEM_LogParams@@@Z 10066260 f   GLOB:GLEvents.obj
 0001:00065300       ?FormatExceptionData@GL_LockMMFFailure@@UBEXPAPAUEM_LogParams@@@Z 10066300 f   GLOB:GLEvents.obj
 0001:000653b0       ?FormatExceptionData@GL_MMFAccessViolationFailure@@UBEXPAPAUEM_LogParams@@@Z 100663b0 f   GLOB:GLEvents.obj
 0001:00065450       ?FormatExceptionData@GL_ModifyGlobalsFailure@@UBEXPAPAUEM_LogParams@@@Z 10066450 f   GLOB:GLEvents.obj
 0001:000654f0       ?FormatExceptionData@GL_NULLEspAlgPointer@@UBEXPAPAUEM_LogParams@@@Z 100664f0 f   GLOB:GLEvents.obj
 0001:00065590       ?FormatExceptionData@GL_ReadGlobalObjectFailure@@UBEXPAPAUEM_LogParams@@@Z 10066590 f   GLOB:GLEvents.obj
 0001:00065630       ?FormatExceptionData@GL_ReadGlobalsObjectFailure@@UBEXPAPAUEM_LogParams@@@Z 10066630 f   GLOB:GLEvents.obj
 0001:00065730       ?FormatExceptionData@GL_SecurityDescriptorFailure@@UBEXPAPAUEM_LogParams@@@Z 10066730 f   GLOB:GLEvents.obj
 0001:000657e0       ?FormatExceptionData@GL_UpdateGlobalsObjectFailure@@UBEXPAPAUEM_LogParams@@@Z 100667e0 f   GLOB:GLEvents.obj
 0001:000658e0       ?GetAttributes@GL_AddGlobalObjectFailure@@UBEABUEM_EventInfo@@XZ 100668e0 f   GLOB:GLEvents.obj
 0001:000658f0       ?GetAttributes@GL_CreateGlobalsObjectFailure@@UBEABUEM_EventInfo@@XZ 100668f0 f   GLOB:GLEvents.obj
 0001:00065900       ?GetAttributes@GL_CreateMMFFailure@@UBEABUEM_EventInfo@@XZ 10066900 f   GLOB:GLEvents.obj
 0001:00065910       ?GetAttributes@GL_FailedToAccessParamFile@@UBEABUEM_EventInfo@@XZ 10066910 f   GLOB:GLEvents.obj
 0001:00065920       ?GetAttributes@GL_FailedToCreateLDAPSession@@UBEABUEM_EventInfo@@XZ 10066920 f   GLOB:GLEvents.obj
 0001:00065930       ?GetAttributes@GL_GetComputerNameExFailure@@UBEABUEM_EventInfo@@XZ 10066930 f   GLOB:GLEvents.obj
 0001:00065940       ?GetAttributes@GL_GlobalObjectLockFailure@@UBEABUEM_EventInfo@@XZ 10066940 f   GLOB:GLEvents.obj
 0001:00065950       ?GetAttributes@GL_InvalidBoardType@@UBEABUEM_EventInfo@@XZ 10066950 f   GLOB:GLEvents.obj
 0001:00065960       ?GetAttributes@GL_InvalidInput@@UBEABUEM_EventInfo@@XZ 10066960 f   GLOB:GLEvents.obj
 0001:00065970       ?GetAttributes@GL_InvalidOctetString@@UBEABUEM_EventInfo@@XZ 10066970 f   GLOB:GLEvents.obj
 0001:00065980       ?GetAttributes@GL_LDAPBindFailure@@UBEABUEM_EventInfo@@XZ 10066980 f   GLOB:GLEvents.obj
 0001:00065990       ?GetAttributes@GL_LockMMFFailure@@UBEABUEM_EventInfo@@XZ 10066990 f   GLOB:GLEvents.obj
 0001:000659a0       ?GetAttributes@GL_MMFAccessViolationFailure@@UBEABUEM_EventInfo@@XZ 100669a0 f   GLOB:GLEvents.obj
 0001:000659b0       ?GetAttributes@GL_ModifyGlobalsFailure@@UBEABUEM_EventInfo@@XZ 100669b0 f   GLOB:GLEvents.obj
 0001:000659c0       ?GetAttributes@GL_NULLEspAlgPointer@@UBEABUEM_EventInfo@@XZ 100669c0 f   GLOB:GLEvents.obj
 0001:000659d0       ?GetAttributes@GL_ReadGlobalObjectFailure@@UBEABUEM_EventInfo@@XZ 100669d0 f   GLOB:GLEvents.obj
 0001:000659e0       ?GetAttributes@GL_ReadGlobalsObjectFailure@@UBEABUEM_EventInfo@@XZ 100669e0 f   GLOB:GLEvents.obj
 0001:000659f0       ?GetAttributes@GL_SecurityDescriptorFailure@@UBEABUEM_EventInfo@@XZ 100669f0 f   GLOB:GLEvents.obj
 0001:00065a00       ?GetAttributes@GL_UpdateGlobalsObjectFailure@@UBEABUEM_EventInfo@@XZ 10066a00 f   GLOB:GLEvents.obj
 0001:00065a10       ?GetId@GL_AddGlobalObjectFailure@@UBEJXZ 10066a10 f   GLOB:GLEvents.obj
 0001:00065a20       ?GetId@GL_CreateGlobalsObjectFailure@@UBEJXZ 10066a20 f   GLOB:GLEvents.obj
 0001:00065a30       ?GetId@GL_CreateMMFFailure@@UBEJXZ 10066a30 f   GLOB:GLEvents.obj
 0001:00065a40       ?GetId@GL_FailedToAccessParamFile@@UBEJXZ 10066a40 f   GLOB:GLEvents.obj
 0001:00065a50       ?GetId@GL_FailedToCreateLDAPSession@@UBEJXZ 10066a50 f   GLOB:GLEvents.obj
 0001:00065a60       ?GetId@GL_GetComputerNameExFailure@@UBEJXZ 10066a60 f   GLOB:GLEvents.obj
 0001:00065a70       ?GetId@GL_GlobalObjectLockFailure@@UBEJXZ 10066a70 f   GLOB:GLEvents.obj
 0001:00065a80       ?GetId@GL_InvalidBoardType@@UBEJXZ 10066a80 f   GLOB:GLEvents.obj
 0001:00065a90       ?GetId@GL_InvalidInput@@UBEJXZ 10066a90 f   GLOB:GLEvents.obj
 0001:00065aa0       ?GetId@GL_InvalidOctetString@@UBEJXZ 10066aa0 f   GLOB:GLEvents.obj
 0001:00065ab0       ?GetId@GL_LDAPBindFailure@@UBEJXZ 10066ab0 f   GLOB:GLEvents.obj
 0001:00065ac0       ?GetId@GL_LockMMFFailure@@UBEJXZ 10066ac0 f   GLOB:GLEvents.obj
 0001:00065ad0       ?GetId@GL_MMFAccessViolationFailure@@UBEJXZ 10066ad0 f   GLOB:GLEvents.obj
 0001:00065ae0       ?GetId@GL_ModifyGlobalsFailure@@UBEJXZ 10066ae0 f   GLOB:GLEvents.obj
 0001:00065af0       ?GetId@GL_NULLEspAlgPointer@@UBEJXZ 10066af0 f   GLOB:GLEvents.obj
 0001:00065b00       ?GetId@GL_ReadGlobalObjectFailure@@UBEJXZ 10066b00 f   GLOB:GLEvents.obj
 0001:00065b10       ?GetId@GL_ReadGlobalsObjectFailure@@UBEJXZ 10066b10 f   GLOB:GLEvents.obj
 0001:00065b20       ?GetId@GL_SecurityDescriptorFailure@@UBEJXZ 10066b20 f   GLOB:GLEvents.obj
 0001:00065b30       ?GetId@GL_UpdateGlobalsObjectFailure@@UBEJXZ 10066b30 f   GLOB:GLEvents.obj
 0001:00065b40       ??$?H_WU?$char_traits@_W@std@@V?$allocator@_W@1@@std@@YA?AV?$basic_string@_WU?$char_traits@_W@std@@V?$allocator@_W@2@@0@ABV10@PB_W@Z 10066b40 f i GLOB:Globals.obj
 0001:00065c40       ??$_Allocate@H@std@@YAPAHIPAH@Z 10066c40 f i GLOB:Globals.obj
 0001:00065c70       ??$_Destroy_range@U?$_Wrap_alloc@V?$allocator@H@std@@@std@@@std@@YAXPAH0AAU?$_Wrap_alloc@V?$allocator@H@std@@@0@@Z 10066c70 f i GLOB:Globals.obj
 0001:00065c80       ??$_Destroy_range@U?$_Wrap_alloc@V?$allocator@H@std@@@std@@@std@@YAXPAH0AAU?$_Wrap_alloc@V?$allocator@H@std@@@0@U_Scalar_ptr_iterator_tag@0@@Z 10066c80 f i GLOB:Globals.obj
 0001:00065c90       ??$_Ptr_cat@HH@std@@YA?AU_Scalar_ptr_iterator_tag@0@PAH0@Z 10066c90 f i GLOB:Globals.obj
 0001:00065ca0       ??$_Umove@PAH@?$vector@HV?$allocator@H@std@@@std@@IAEPAHPAH00@Z 10066ca0 f i GLOB:Globals.obj
 0001:00065cd0       ??$_Uninit_move@HHH@std@@YAPAHPAH00AAU?$_Wrap_alloc@V?$allocator@H@std@@@0@0U_Scalar_ptr_iterator_tag@0@@Z 10066cd0 f i GLOB:Globals.obj
 0001:00065d00       ??$_Uninitialized_move@PAHPAHU?$_Wrap_alloc@V?$allocator@H@std@@@std@@@std@@YAPAHPAH00AAU?$_Wrap_alloc@V?$allocator@H@std@@@0@@Z 10066d00 f i GLOB:Globals.obj
 0001:00065d30       ??$_Val_type@PAH@std@@YAPAHPAH@Z 10066d30 f i GLOB:Globals.obj
 0001:00065d40       ??$construct@HH@?$_Wrap_alloc@V?$allocator@H@std@@@std@@QAEXPAH$$QAH@Z 10066d40 f i GLOB:Globals.obj
 0001:00065da0       ??$construct@HH@?$allocator@H@std@@QAEXPAH$$QAH@Z 10066da0 f i GLOB:Globals.obj
 0001:00065e00       ??$construct@HH@?$allocator_traits@V?$allocator@H@std@@@std@@SAXAAV?$allocator@H@1@PAH$$QAH@Z 10066e00 f i GLOB:Globals.obj
 0001:00065e60       ??0?$_Wrap_alloc@V?$allocator@H@std@@@std@@QAE@XZ 10066e60 f i GLOB:Globals.obj
 0001:00065e70       ??0Globals@@AAE@_N@Z       10066e70 f   GLOB:Globals.obj
 0001:00066340       ??1Globals@@QAE@XZ         10067340 f   GLOB:Globals.obj
 0001:000667e0       ??A?$vector@HV?$allocator@H@std@@@std@@QBEABHI@Z 100677e0 f i GLOB:Globals.obj
 0001:000667f0       ?ActualRead@Globals@@AAEXXZ 100677f0 f   GLOB:Globals.obj
 0001:00067bc0       ?AddBoard@Globals@@QAE?AW4GLOB_STATUS@@W4BoardType@@H@Z 10068bc0 f   GLOB:Globals.obj
 0001:00068260       ?AddBoardList@Globals@@QAE?AW4GLOB_STATUS@@W4BoardType@@ABV?$vector@HV?$allocator@H@std@@@std@@@Z 10069260 f   GLOB:Globals.obj
 0001:00068930       ?AddBoardmap@Globals@@QAE?AW4GLOB_STATUS@@W4BoardType@@PBE@Z 10069930 f   GLOB:Globals.obj
 0001:00068fc0       ?CancelChanges@Globals@@QAE?AW4GLOB_STATUS@@XZ 10069fc0 f   GLOB:Globals.obj
 0001:00069640       ?CommitChanges@Globals@@QAE?AW4GLOB_STATUS@@XZ 1006a640 f   GLOB:Globals.obj
 0001:0006aca0       ?ConnectGlobalParamFile@Globals@@AAEXW4FileOpenType@@@Z 1006bca0 f   GLOB:Globals.obj
 0001:0006b8d0       ?DeleteBoard@Globals@@QAE?AW4GLOB_STATUS@@W4BoardType@@H@Z 1006c8d0 f   GLOB:Globals.obj
 0001:0006bf70       ?DeleteBoardList@Globals@@QAE?AW4GLOB_STATUS@@W4BoardType@@ABV?$vector@HV?$allocator@H@std@@@std@@@Z 1006cf70 f   GLOB:Globals.obj
 0001:0006c650       ?DeleteBoardmap@Globals@@QAE?AW4GLOB_STATUS@@W4BoardType@@PBE@Z 1006d650 f   GLOB:Globals.obj
 0001:0006cce0       ?DisconnectGlobalParamFile@Globals@@AAEXXZ 1006dce0 f   GLOB:Globals.obj
 0001:0006d170       ?GetActiveSC@Globals@@QAE?AW4GLOB_STATUS@@AAH@Z 1006e170 f   GLOB:Globals.obj
 0001:0006d7e0       ?GetBoardList@Globals@@QAE?AW4GLOB_STATUS@@W4BoardType@@AAV?$vector@HV?$allocator@H@std@@@std@@@Z 1006e7e0 f   GLOB:Globals.obj
 0001:0006deb0       ?GetBoardmap@Globals@@QAE?AW4GLOB_STATUS@@W4BoardType@@PAE@Z 1006eeb0 f   GLOB:Globals.obj
 0001:0006e540       ?GetCmmId@Globals@@QAE?AW4GLOB_STATUS@@AAH@Z 1006f540 f   GLOB:Globals.obj
 0001:0006ebb0       ?GetCmmVersion@Globals@@QAE?AW4GLOB_STATUS@@AAH@Z 1006fbb0 f   GLOB:Globals.obj
 0001:0006f220       ?GetConfigFile@Globals@@QAE?AW4GLOB_STATUS@@AAV?$basic_string@DU?$char_traits@D@std@@V?$allocator@D@2@@std@@@Z 10070220 f   GLOB:Globals.obj
 0001:0006f890       ?GetConfigFileSize@Globals@@QAE?AW4GLOB_STATUS@@AAH@Z 10070890 f   GLOB:Globals.obj
 0001:0006ff00       ?GetESPAlgs@Globals@@QAE?AW4GLOB_STATUS@@PAE@Z 10070f00 f   GLOB:Globals.obj
 0001:00070580       ?GetMasterHost@Globals@@QAE?AW4GLOB_STATUS@@AAH@Z 10071580 f   GLOB:Globals.obj
 0001:00070bf0       ?GetPassiveSC@Globals@@QAE?AW4GLOB_STATUS@@AAH@Z 10071bf0 f   GLOB:Globals.obj
 0001:00071260       ?GetRcvFromHostPath@Globals@@QAE?AW4GLOB_STATUS@@HAAH@Z 10072260 f   GLOB:Globals.obj
 0001:000718d0       ?GetReleaseId@Globals@@QAE?AW4GLOB_STATUS@@AAV?$basic_string@DU?$char_traits@D@std@@V?$allocator@D@2@@std@@@Z 100728d0 f   GLOB:Globals.obj
 0001:00071f40       ?GetSCSlotId@Globals@@QAE?AW4GLOB_STATUS@@AAE@Z 10072f40 f   GLOB:Globals.obj
 0001:000725b0       ?GetSendToHostPath@Globals@@QAE?AW4GLOB_STATUS@@HAAH@Z 100735b0 f   GLOB:Globals.obj
 0001:00072c20       ?GlobalsInstance@Globals@@SA?AW4GLOB_STATUS@@AAPAV1@@Z 10073c20 f   GLOB:Globals.obj
 0001:00073290       ?InitGlobal@Globals@@AAEXXZ 10074290 f   GLOB:Globals.obj
 0001:00073bc0       ?InitializeVariables@Globals@@AAEXXZ 10074bc0 f   GLOB:Globals.obj
 0001:000741d0       ?IsSetInBoardmap@Globals@@QAE_NW4BoardType@@H@Z 100751d0 f   GLOB:Globals.obj
 0001:000746d0       ?LockGlobals@Globals@@QAE?AW4GLOB_STATUS@@XZ 100756d0 f   GLOB:Globals.obj
 0001:00074dd0       ?PutActiveSC@Globals@@QAE?AW4GLOB_STATUS@@H@Z 10075dd0 f   GLOB:Globals.obj
 0001:00075440       ?PutBoardList@Globals@@QAE?AW4GLOB_STATUS@@W4BoardType@@ABV?$vector@HV?$allocator@H@std@@@std@@@Z 10076440 f   GLOB:Globals.obj
 0001:00075b30       ?PutBoardmap@Globals@@QAE?AW4GLOB_STATUS@@W4BoardType@@PBE@Z 10076b30 f   GLOB:Globals.obj
 0001:000761c0       ?PutCmmId@Globals@@QAE?AW4GLOB_STATUS@@H@Z 100771c0 f   GLOB:Globals.obj
 0001:00076830       ?PutCmmVersion@Globals@@QAE?AW4GLOB_STATUS@@H@Z 10077830 f   GLOB:Globals.obj
 0001:00076e90       ?PutConfigFile@Globals@@QAE?AW4GLOB_STATUS@@ABV?$basic_string@DU?$char_traits@D@std@@V?$allocator@D@2@@std@@@Z 10077e90 f   GLOB:Globals.obj
 0001:00077510       ?PutConfigFileSize@Globals@@QAE?AW4GLOB_STATUS@@H@Z 10078510 f   GLOB:Globals.obj
 0001:00077b80       ?PutESPAlgs@Globals@@QAE?AW4GLOB_STATUS@@PAE@Z 10078b80 f   GLOB:Globals.obj
 0001:00078210       ?PutMasterHost@Globals@@QAE?AW4GLOB_STATUS@@H@Z 10079210 f   GLOB:Globals.obj
 0001:00078870       ?PutPassiveSC@Globals@@QAE?AW4GLOB_STATUS@@H@Z 10079870 f   GLOB:Globals.obj
 0001:00078ee0       ?PutRcvFromHostPath@Globals@@QAE?AW4GLOB_STATUS@@HH@Z 10079ee0 f   GLOB:Globals.obj
 0001:00079550       ?PutReleaseId@Globals@@QAE?AW4GLOB_STATUS@@ABV?$basic_string@DU?$char_traits@D@std@@V?$allocator@D@2@@std@@@Z 1007a550 f   GLOB:Globals.obj
 0001:00079be0       ?PutSCSlotId@Globals@@QAE?AW4GLOB_STATUS@@E@Z 1007abe0 f   GLOB:Globals.obj
 0001:0007a250       ?PutSendToHostPath@Globals@@QAE?AW4GLOB_STATUS@@HH@Z 1007b250 f   GLOB:Globals.obj
 0001:0007a8c0       ?ReadGlobalsObject@Globals@@AAEXXZ 1007b8c0 f   GLOB:Globals.obj
 0001:0007b1d0       ?SetBoardmapPointer@Globals@@AAEPAEW4BoardType@@@Z 1007c1d0 f   GLOB:Globals.obj
 0001:0007b2a0       ?UnlockGlobals@Globals@@QAE?AW4GLOB_STATUS@@XZ 1007c2a0 f   GLOB:Globals.obj
 0001:0007b970       ?_Destroy@?$vector@HV?$allocator@H@std@@@std@@IAEXPAH0@Z 1007c970 f i GLOB:Globals.obj
 0001:0007b980       ?_Getal@?$_Vector_alloc@$0A@U?$_Vec_base_types@HV?$allocator@H@std@@@std@@@std@@QBE?AU?$_Wrap_alloc@V?$allocator@H@std@@@2@XZ 1007c980 f i GLOB:Globals.obj
 0001:0007b990       ?_Grow_to@?$vector@HV?$allocator@H@std@@@std@@IBEII@Z 1007c990 f i GLOB:Globals.obj
 0001:0007b9d0       ?_Inside@?$vector@HV?$allocator@H@std@@@std@@IBE_NPBH@Z 1007c9d0 f i GLOB:Globals.obj
 0001:0007b9f0       ?_Orphan_range@?$vector@HV?$allocator@H@std@@@std@@IBEXPAH0@Z 1007c9f0 f i GLOB:Globals.obj
 0001:0007ba00       ?_Reallocate@?$vector@HV?$allocator@H@std@@@std@@IAEXI@Z 1007ca00 f i GLOB:Globals.obj
 0001:0007bad0       ?_Reserve@?$vector@HV?$allocator@H@std@@@std@@IAEXI@Z 1007cad0 f i GLOB:Globals.obj
 0001:0007bb50       ?_Unused_capacity@?$vector@HV?$allocator@H@std@@@std@@QBEIXZ 1007cb50 f i GLOB:Globals.obj
 0001:0007bb60       ?_Xlen@?$vector@HV?$allocator@H@std@@@std@@IBEXXZ 1007cb60 f i GLOB:Globals.obj
 0001:0007bb70       ?allocate@?$_Wrap_alloc@V?$allocator@H@std@@@std@@QAEPAHI@Z 1007cb70 f i GLOB:Globals.obj
 0001:0007bbb0       ?allocate@?$allocator@H@std@@QAEPAHI@Z 1007cbb0 f i GLOB:Globals.obj
 0001:0007bbf0       ?capacity@?$vector@HV?$allocator@H@std@@@std@@QBEIXZ 1007cbf0 f i GLOB:Globals.obj
 0001:0007bc00       ?deallocate@?$_Wrap_alloc@V?$allocator@H@std@@@std@@QAEXPAHI@Z 1007cc00 f i GLOB:Globals.obj
 0001:0007bc20       ?deallocate@?$allocator@H@std@@QAEXPAHI@Z 1007cc20 f i GLOB:Globals.obj
 0001:0007bc40       ?max_size@?$_Wrap_alloc@V?$allocator@H@std@@@std@@QBEIXZ 1007cc40 f i GLOB:Globals.obj
 0001:0007bc50       ?max_size@?$allocator@H@std@@QBEIXZ 1007cc50 f i GLOB:Globals.obj
 0001:0007bc60       ?max_size@?$allocator_traits@V?$allocator@H@std@@@std@@SAIABV?$allocator@H@2@@Z 1007cc60 f i GLOB:Globals.obj
 0001:0007bc70       ?max_size@?$vector@HV?$allocator@H@std@@@std@@QBEIXZ 1007cc70 f i GLOB:Globals.obj
 0001:0007bc80       ?push_back@?$vector@HV?$allocator@H@std@@@std@@QAEX$$QAH@Z 1007cc80 f i GLOB:Globals.obj
 0001:0007bd30       ?size@?$vector@HV?$allocator@H@std@@@std@@QBEIXZ 1007cd30 f i GLOB:Globals.obj
 0001:0007bd40       ??0NL_Socket@@QAE@XZ       1007cd40 f   NEL_NapEventLog:NetworkLookup.obj
 0001:0007c220       ??1NL_ComputerNameDnsHostname@@UAE@XZ 1007d220 f i NEL_NapEventLog:NetworkLookup.obj
 0001:0007c270       ??1NL_FailedToGetDnsDomain@@UAE@XZ 1007d270 f i NEL_NapEventLog:NetworkLookup.obj
 0001:0007c2c0       ??1NL_GetHostNameFailed@@UAE@XZ 1007d2c0 f i NEL_NapEventLog:NetworkLookup.obj
 0001:0007c340       ??1NL_InvalidHostName@@UAE@XZ 1007d340 f i NEL_NapEventLog:NetworkLookup.obj
 0001:0007c3e0       ??1NL_InvalidHostNumber@@UAE@XZ 1007d3e0 f i NEL_NapEventLog:NetworkLookup.obj
 0001:0007c430       ??1NL_InvalidSCHostName@@UAE@XZ 1007d430 f i NEL_NapEventLog:NetworkLookup.obj
 0001:0007c4b0       ??1NL_Socket@@QAE@XZ       1007d4b0 f   NEL_NapEventLog:NetworkLookup.obj
 0001:0007c920       ??1NL_TooFewTokens@@UAE@XZ 1007d920 f i NEL_NapEventLog:NetworkLookup.obj
 0001:0007c9a0       ??1NL_WSACleanupFailed@@UAE@XZ 1007d9a0 f i NEL_NapEventLog:NetworkLookup.obj
 0001:0007c9f0       ??1NL_WinSockVersionNotFound@@UAE@XZ 1007d9f0 f i NEL_NapEventLog:NetworkLookup.obj
 0001:0007ca40       ??1NL_WinSockVersionNotUsable@@UAE@XZ 1007da40 f i NEL_NapEventLog:NetworkLookup.obj
 0001:0007ca90       ?GetActiveSC@@YAHAAVTHR_Semaphore@@@Z 1007da90 f   NEL_NapEventLog:NetworkLookup.obj
 0001:0007caa0       ?GetActiveSCHostName@@YA?AV?$basic_string@_WU?$char_traits@_W@std@@V?$allocator@_W@2@@std@@AAVTHR_Semaphore@@@Z 1007daa0 f   NEL_NapEventLog:NetworkLookup.obj
 0001:0007d090       ?GetActiveSCIPAddress@@YA?AV?$basic_string@_WU?$char_traits@_W@std@@V?$allocator@_W@2@@std@@AAVTHR_Semaphore@@@Z 1007e090 f   NEL_NapEventLog:NetworkLookup.obj
 0001:0007d560       ?GetDomainName@@YA?AV?$basic_string@_WU?$char_traits@_W@std@@V?$allocator@_W@2@@std@@XZ 1007e560 f   NEL_NapEventLog:NetworkLookup.obj
 0001:0007da40       ?GetDomainNameDN@@YA?AV?$basic_string@_WU?$char_traits@_W@std@@V?$allocator@_W@2@@std@@XZ 1007ea40 f   NEL_NapEventLog:NetworkLookup.obj
 0001:0007e020       ?GetHostName@@YA?AV?$basic_string@_WU?$char_traits@_W@std@@V?$allocator@_W@2@@std@@XZ 1007f020 f   NEL_NapEventLog:NetworkLookup.obj
 0001:0007e510       ?GetIPAddress@@YA?AV?$basic_string@_WU?$char_traits@_W@std@@V?$allocator@_W@2@@std@@ABV12@@Z 1007f510 f   NEL_NapEventLog:NetworkLookup.obj
 0001:0007ec20       ?GetPassiveSCHostName@@YA?AV?$basic_string@_WU?$char_traits@_W@std@@V?$allocator@_W@2@@std@@AAVTHR_Semaphore@@@Z 1007fc20 f   NEL_NapEventLog:NetworkLookup.obj
 0001:0007f1c0       ?GetPassiveSCIPAddress@@YA?AV?$basic_string@_WU?$char_traits@_W@std@@V?$allocator@_W@2@@std@@AAVTHR_Semaphore@@@Z 100801c0 f   NEL_NapEventLog:NetworkLookup.obj
 0001:0007f6e0       ?GetSCSlotID@@YAHXZ        100806e0 f   NEL_NapEventLog:NetworkLookup.obj
 0001:0007fbd0       ?IsSC@@YA_NABV?$basic_string@_WU?$char_traits@_W@std@@V?$allocator@_W@2@@std@@@Z 10080bd0 f   NEL_NapEventLog:NetworkLookup.obj
 0001:000802b0       ?MatchHostName@@YA_NPBD0@Z 100812b0 f   NEL_NapEventLog:NetworkLookup.obj
 0001:000807b0       ?find@?$basic_string@_WU?$char_traits@_W@std@@V?$allocator@_W@2@@std@@QBEIPB_WI@Z 100817b0 f i NEL_NapEventLog:NetworkLookup.obj
 0001:00080800       ?isHMPServer@@YA_NXZ       10081800 f   NEL_NapEventLog:NetworkLookup.obj
 0001:00080ca0       ?Throw@NL_FailedToGetDnsDomain@@SAXAAUEM_NestedExceptionData@@PAVEM_NestedException@@@Z 10081ca0 f   NEL_NapEventLog:nlEvents.obj
 0001:00080d00       ?Throw@NL_ComputerNameDnsHostname@@SAXAAUEM_NestedExceptionData@@PAVEM_NestedException@@@Z 10081d00 f   NEL_NapEventLog:nlEvents.obj
 0001:00080d60       ?Throw@NL_WinSockVersionNotFound@@SAXAAUEM_NestedExceptionData@@PAVEM_NestedException@@@Z 10081d60 f   NEL_NapEventLog:nlEvents.obj
 0001:00080dc0       ?Throw@NL_WinSockVersionNotUsable@@SAXAAUEM_NestedExceptionData@@PAVEM_NestedException@@@Z 10081dc0 f   NEL_NapEventLog:nlEvents.obj
 0001:00080e20       ?Throw@NL_WSACleanupFailed@@SAXAAUEM_NestedExceptionData@@PAVEM_NestedException@@@Z 10081e20 f   NEL_NapEventLog:nlEvents.obj
 0001:00080e80       ?Throw@NL_GetHostNameFailed@@SAXAAUEM_NestedExceptionData@@PAVEM_NestedException@@@Z 10081e80 f   NEL_NapEventLog:nlEvents.obj
 0001:00080ee0       ?Throw@NL_InvalidHostName@@SAXAAUEM_NestedExceptionData@@PAVEM_NestedException@@@Z 10081ee0 f   NEL_NapEventLog:nlEvents.obj
 0001:00080f50       ?Throw@NL_TooFewTokens@@SAXAAUEM_NestedExceptionData@@PAVEM_NestedException@@@Z 10081f50 f   NEL_NapEventLog:nlEvents.obj
 0001:00080fb0       ?Throw@NL_InvalidHostNumber@@SAXAAUEM_NestedExceptionData@@PAVEM_NestedException@@@Z 10081fb0 f   NEL_NapEventLog:nlEvents.obj
 0001:00081010       ?Throw@NL_InvalidSCHostName@@SAXAAUEM_NestedExceptionData@@PAVEM_NestedException@@@Z 10082010 f   NEL_NapEventLog:nlEvents.obj
 0001:00081070       ??0NL_ComputerNameDnsHostname@@QAE@ABV0@@Z 10082070 f   NEL_NapEventLog:nlEvents.obj
 0001:000810d0       ??0NL_ComputerNameDnsHostname@@QAE@PBVEM_NestedException@@@Z 100820d0 f   NEL_NapEventLog:nlEvents.obj
 0001:00081130       ??0NL_ComputerNameDnsHostname@@QAE@PBVEM_NestedException@@ABUEM_NestedExceptionData@@@Z 10082130 f   NEL_NapEventLog:nlEvents.obj
 0001:000811a0       ??0NL_FailedToGetDnsDomain@@QAE@ABV0@@Z 100821a0 f   NEL_NapEventLog:nlEvents.obj
 0001:00081200       ??0NL_FailedToGetDnsDomain@@QAE@PBVEM_NestedException@@@Z 10082200 f   NEL_NapEventLog:nlEvents.obj
 0001:00081260       ??0NL_FailedToGetDnsDomain@@QAE@PBVEM_NestedException@@ABUEM_NestedExceptionData@@@Z 10082260 f   NEL_NapEventLog:nlEvents.obj
 0001:000812d0       ??0NL_GetHostNameFailed@@QAE@ABV0@@Z 100822d0 f   NEL_NapEventLog:nlEvents.obj
 0001:00081360       ??0NL_GetHostNameFailed@@QAE@PBVEM_NestedException@@ABUEM_NestedExceptionData@@@Z 10082360 f   NEL_NapEventLog:nlEvents.obj
 0001:000813e0       ??0NL_GetHostNameFailed@@QAE@V?$basic_string@_WU?$char_traits@_W@std@@V?$allocator@_W@2@@std@@JPBVEM_NestedException@@@Z 100823e0 f   NEL_NapEventLog:nlEvents.obj
 0001:00081490       ??0NL_InvalidHostName@@QAE@ABV0@@Z 10082490 f   NEL_NapEventLog:nlEvents.obj
 0001:00081540       ??0NL_InvalidHostName@@QAE@PBVEM_NestedException@@ABUEM_NestedExceptionData@@@Z 10082540 f   NEL_NapEventLog:nlEvents.obj
 0001:000815d0       ??0NL_InvalidHostName@@QAE@V?$basic_string@_WU?$char_traits@_W@std@@V?$allocator@_W@2@@std@@0PBVEM_NestedException@@@Z 100825d0 f   NEL_NapEventLog:nlEvents.obj
 0001:000816d0       ??0NL_InvalidHostNumber@@QAE@ABV0@@Z 100826d0 f   NEL_NapEventLog:nlEvents.obj
 0001:00081740       ??0NL_InvalidHostNumber@@QAE@JPBVEM_NestedException@@@Z 10082740 f   NEL_NapEventLog:nlEvents.obj
 0001:000817a0       ??0NL_InvalidHostNumber@@QAE@PBVEM_NestedException@@ABUEM_NestedExceptionData@@@Z 100827a0 f   NEL_NapEventLog:nlEvents.obj
 0001:00081810       ??0NL_InvalidSCHostName@@QAE@ABV0@@Z 10082810 f   NEL_NapEventLog:nlEvents.obj
 0001:00081890       ??0NL_InvalidSCHostName@@QAE@PBVEM_NestedException@@ABUEM_NestedExceptionData@@@Z 10082890 f   NEL_NapEventLog:nlEvents.obj
 0001:00081910       ??0NL_InvalidSCHostName@@QAE@V?$basic_string@_WU?$char_traits@_W@std@@V?$allocator@_W@2@@std@@PBVEM_NestedException@@@Z 10082910 f   NEL_NapEventLog:nlEvents.obj
 0001:000819c0       ??0NL_TooFewTokens@@QAE@ABV0@@Z 100829c0 f   NEL_NapEventLog:nlEvents.obj
 0001:00081a40       ??0NL_TooFewTokens@@QAE@PBVEM_NestedException@@ABUEM_NestedExceptionData@@@Z 10082a40 f   NEL_NapEventLog:nlEvents.obj
 0001:00081ac0       ??0NL_TooFewTokens@@QAE@V?$basic_string@_WU?$char_traits@_W@std@@V?$allocator@_W@2@@std@@PBVEM_NestedException@@@Z 10082ac0 f   NEL_NapEventLog:nlEvents.obj
 0001:00081b70       ??0NL_WSACleanupFailed@@QAE@ABV0@@Z 10082b70 f   NEL_NapEventLog:nlEvents.obj
 0001:00081be0       ??0NL_WSACleanupFailed@@QAE@JPBVEM_NestedException@@@Z 10082be0 f   NEL_NapEventLog:nlEvents.obj
 0001:00081c40       ??0NL_WSACleanupFailed@@QAE@PBVEM_NestedException@@ABUEM_NestedExceptionData@@@Z 10082c40 f   NEL_NapEventLog:nlEvents.obj
 0001:00081cb0       ??0NL_WinSockVersionNotFound@@QAE@ABV0@@Z 10082cb0 f   NEL_NapEventLog:nlEvents.obj
 0001:00081d10       ??0NL_WinSockVersionNotFound@@QAE@PBVEM_NestedException@@@Z 10082d10 f   NEL_NapEventLog:nlEvents.obj
 0001:00081d70       ??0NL_WinSockVersionNotFound@@QAE@PBVEM_NestedException@@ABUEM_NestedExceptionData@@@Z 10082d70 f   NEL_NapEventLog:nlEvents.obj
 0001:00081de0       ??0NL_WinSockVersionNotUsable@@QAE@ABV0@@Z 10082de0 f   NEL_NapEventLog:nlEvents.obj
 0001:00081e50       ??0NL_WinSockVersionNotUsable@@QAE@JPBVEM_NestedException@@@Z 10082e50 f   NEL_NapEventLog:nlEvents.obj
 0001:00081eb0       ??0NL_WinSockVersionNotUsable@@QAE@PBVEM_NestedException@@ABUEM_NestedExceptionData@@@Z 10082eb0 f   NEL_NapEventLog:nlEvents.obj
 0001:00081f20       ??_ENL_ComputerNameDnsHostname@@UAEPAXI@Z 10082f20 f i NEL_NapEventLog:nlEvents.obj
 0001:00081f20       ??_GNL_ComputerNameDnsHostname@@UAEPAXI@Z 10082f20 f i NEL_NapEventLog:nlEvents.obj
 0001:00081f80       ??_GNL_FailedToGetDnsDomain@@UAEPAXI@Z 10082f80 f i NEL_NapEventLog:nlEvents.obj
 0001:00081f80       ??_ENL_FailedToGetDnsDomain@@UAEPAXI@Z 10082f80 f i NEL_NapEventLog:nlEvents.obj
 0001:00081fe0       ??_ENL_GetHostNameFailed@@UAEPAXI@Z 10082fe0 f i NEL_NapEventLog:nlEvents.obj
 0001:00081fe0       ??_GNL_GetHostNameFailed@@UAEPAXI@Z 10082fe0 f i NEL_NapEventLog:nlEvents.obj
 0001:00082070       ??_GNL_InvalidHostName@@UAEPAXI@Z 10083070 f i NEL_NapEventLog:nlEvents.obj
 0001:00082070       ??_ENL_InvalidHostName@@UAEPAXI@Z 10083070 f i NEL_NapEventLog:nlEvents.obj
 0001:000820a0       ??_GNL_InvalidHostNumber@@UAEPAXI@Z 100830a0 f i NEL_NapEventLog:nlEvents.obj
 0001:000820a0       ??_ENL_InvalidHostNumber@@UAEPAXI@Z 100830a0 f i NEL_NapEventLog:nlEvents.obj
 0001:00082100       ??_ENL_InvalidSCHostName@@UAEPAXI@Z 10083100 f i NEL_NapEventLog:nlEvents.obj
 0001:00082100       ??_GNL_InvalidSCHostName@@UAEPAXI@Z 10083100 f i NEL_NapEventLog:nlEvents.obj
 0001:00082190       ??_ENL_TooFewTokens@@UAEPAXI@Z 10083190 f i NEL_NapEventLog:nlEvents.obj
 0001:00082190       ??_GNL_TooFewTokens@@UAEPAXI@Z 10083190 f i NEL_NapEventLog:nlEvents.obj
 0001:00082220       ??_ENL_WSACleanupFailed@@UAEPAXI@Z 10083220 f i NEL_NapEventLog:nlEvents.obj
 0001:00082220       ??_GNL_WSACleanupFailed@@UAEPAXI@Z 10083220 f i NEL_NapEventLog:nlEvents.obj
 0001:00082280       ??_GNL_WinSockVersionNotFound@@UAEPAXI@Z 10083280 f i NEL_NapEventLog:nlEvents.obj
 0001:00082280       ??_ENL_WinSockVersionNotFound@@UAEPAXI@Z 10083280 f i NEL_NapEventLog:nlEvents.obj
 0001:000822e0       ??_ENL_WinSockVersionNotUsable@@UAEPAXI@Z 100832e0 f i NEL_NapEventLog:nlEvents.obj
 0001:000822e0       ??_GNL_WinSockVersionNotUsable@@UAEPAXI@Z 100832e0 f i NEL_NapEventLog:nlEvents.obj
 0001:00082340       ?Clone@NL_ComputerNameDnsHostname@@UBEPAVEM_NestedException@@XZ 10083340 f   NEL_NapEventLog:nlEvents.obj
 0001:000823c0       ?Clone@NL_FailedToGetDnsDomain@@UBEPAVEM_NestedException@@XZ 100833c0 f   NEL_NapEventLog:nlEvents.obj
 0001:00082440       ?Clone@NL_GetHostNameFailed@@UBEPAVEM_NestedException@@XZ 10083440 f   NEL_NapEventLog:nlEvents.obj
 0001:000824c0       ?Clone@NL_InvalidHostName@@UBEPAVEM_NestedException@@XZ 100834c0 f   NEL_NapEventLog:nlEvents.obj
 0001:00082540       ?Clone@NL_InvalidHostNumber@@UBEPAVEM_NestedException@@XZ 10083540 f   NEL_NapEventLog:nlEvents.obj
 0001:000825c0       ?Clone@NL_InvalidSCHostName@@UBEPAVEM_NestedException@@XZ 100835c0 f   NEL_NapEventLog:nlEvents.obj
 0001:00082640       ?Clone@NL_TooFewTokens@@UBEPAVEM_NestedException@@XZ 10083640 f   NEL_NapEventLog:nlEvents.obj
 0001:000826c0       ?Clone@NL_WSACleanupFailed@@UBEPAVEM_NestedException@@XZ 100836c0 f   NEL_NapEventLog:nlEvents.obj
 0001:00082740       ?Clone@NL_WinSockVersionNotFound@@UBEPAVEM_NestedException@@XZ 10083740 f   NEL_NapEventLog:nlEvents.obj
 0001:000827c0       ?Clone@NL_WinSockVersionNotUsable@@UBEPAVEM_NestedException@@XZ 100837c0 f   NEL_NapEventLog:nlEvents.obj
 0001:00082840       ?FormatExceptionData@NL_ComputerNameDnsHostname@@UBEXPAPAUEM_LogParams@@@Z 10083840 f   NEL_NapEventLog:nlEvents.obj
 0001:000828e0       ?FormatExceptionData@NL_FailedToGetDnsDomain@@UBEXPAPAUEM_LogParams@@@Z 100838e0 f   NEL_NapEventLog:nlEvents.obj
 0001:00082980       ?FormatExceptionData@NL_GetHostNameFailed@@UBEXPAPAUEM_LogParams@@@Z 10083980 f   NEL_NapEventLog:nlEvents.obj
 0001:00082a80       ?FormatExceptionData@NL_InvalidHostName@@UBEXPAPAUEM_LogParams@@@Z 10083a80 f   NEL_NapEventLog:nlEvents.obj
 0001:00082bb0       ?FormatExceptionData@NL_InvalidHostNumber@@UBEXPAPAUEM_LogParams@@@Z 10083bb0 f   NEL_NapEventLog:nlEvents.obj
 0001:00082c60       ?FormatExceptionData@NL_InvalidSCHostName@@UBEXPAPAUEM_LogParams@@@Z 10083c60 f   NEL_NapEventLog:nlEvents.obj
 0001:00082d40       ?FormatExceptionData@NL_TooFewTokens@@UBEXPAPAUEM_LogParams@@@Z 10083d40 f   NEL_NapEventLog:nlEvents.obj
 0001:00082e20       ?FormatExceptionData@NL_WSACleanupFailed@@UBEXPAPAUEM_LogParams@@@Z 10083e20 f   NEL_NapEventLog:nlEvents.obj
 0001:00082ed0       ?FormatExceptionData@NL_WinSockVersionNotFound@@UBEXPAPAUEM_LogParams@@@Z 10083ed0 f   NEL_NapEventLog:nlEvents.obj
 0001:00082f70       ?FormatExceptionData@NL_WinSockVersionNotUsable@@UBEXPAPAUEM_LogParams@@@Z 10083f70 f   NEL_NapEventLog:nlEvents.obj
 0001:00083020       ?GetAttributes@NL_ComputerNameDnsHostname@@UBEABUEM_EventInfo@@XZ 10084020 f   NEL_NapEventLog:nlEvents.obj
 0001:00083030       ?GetAttributes@NL_FailedToGetDnsDomain@@UBEABUEM_EventInfo@@XZ 10084030 f   NEL_NapEventLog:nlEvents.obj
 0001:00083040       ?GetAttributes@NL_GetHostNameFailed@@UBEABUEM_EventInfo@@XZ 10084040 f   NEL_NapEventLog:nlEvents.obj
 0001:00083050       ?GetAttributes@NL_InvalidHostName@@UBEABUEM_EventInfo@@XZ 10084050 f   NEL_NapEventLog:nlEvents.obj
 0001:00083060       ?GetAttributes@NL_InvalidHostNumber@@UBEABUEM_EventInfo@@XZ 10084060 f   NEL_NapEventLog:nlEvents.obj
 0001:00083070       ?GetAttributes@NL_InvalidSCHostName@@UBEABUEM_EventInfo@@XZ 10084070 f   NEL_NapEventLog:nlEvents.obj
 0001:00083080       ?GetAttributes@NL_TooFewTokens@@UBEABUEM_EventInfo@@XZ 10084080 f   NEL_NapEventLog:nlEvents.obj
 0001:00083090       ?GetAttributes@NL_WSACleanupFailed@@UBEABUEM_EventInfo@@XZ 10084090 f   NEL_NapEventLog:nlEvents.obj
 0001:000830a0       ?GetAttributes@NL_WinSockVersionNotFound@@UBEABUEM_EventInfo@@XZ 100840a0 f   NEL_NapEventLog:nlEvents.obj
 0001:000830b0       ?GetAttributes@NL_WinSockVersionNotUsable@@UBEABUEM_EventInfo@@XZ 100840b0 f   NEL_NapEventLog:nlEvents.obj
 0001:000830c0       ?GetId@NL_ComputerNameDnsHostname@@UBEJXZ 100840c0 f   NEL_NapEventLog:nlEvents.obj
 0001:000830d0       ?GetId@NL_FailedToGetDnsDomain@@UBEJXZ 100840d0 f   NEL_NapEventLog:nlEvents.obj
 0001:000830e0       ?GetId@NL_GetHostNameFailed@@UBEJXZ 100840e0 f   NEL_NapEventLog:nlEvents.obj
 0001:000830f0       ?GetId@NL_InvalidHostName@@UBEJXZ 100840f0 f   NEL_NapEventLog:nlEvents.obj
 0001:00083100       ?GetId@NL_InvalidHostNumber@@UBEJXZ 10084100 f   NEL_NapEventLog:nlEvents.obj
 0001:00083110       ?GetId@NL_InvalidSCHostName@@UBEJXZ 10084110 f   NEL_NapEventLog:nlEvents.obj
 0001:00083120       ?GetId@NL_TooFewTokens@@UBEJXZ 10084120 f   NEL_NapEventLog:nlEvents.obj
 0001:00083130       ?GetId@NL_WSACleanupFailed@@UBEJXZ 10084130 f   NEL_NapEventLog:nlEvents.obj
 0001:00083140       ?GetId@NL_WinSockVersionNotFound@@UBEJXZ 10084140 f   NEL_NapEventLog:nlEvents.obj
 0001:00083150       ?GetId@NL_WinSockVersionNotUsable@@UBEJXZ 10084150 f   NEL_NapEventLog:nlEvents.obj
 0001:00083160       ??0ParamMgr@@QAE@XZ        10084160 f   ParamMgr:ParamMgr.obj
 0001:000831d0       ??1ParamMgr@@UAE@XZ        100841d0 f   ParamMgr:ParamMgr.obj
 0001:000831f0       ??_EParamMgr@@UAEPAXI@Z    100841f0 f i ParamMgr:ParamMgr.obj
 0001:000831f0       ??_GParamMgr@@UAEPAXI@Z    100841f0 f i ParamMgr:ParamMgr.obj
 0001:00083220       ?AbortTransaction@ParamMgr@@QAE?AW4ParamErr@@XZ 10084220 f   ParamMgr:ParamMgr.obj
 0001:00083230       ?AddSymbolTable@ParamMgr@@QAE?AW4ParamErr@@PA_WH@Z 10084230 f   ParamMgr:ParamMgr.obj
 0001:00083240       ?BeginTransaction@ParamMgr@@QAE?AW4ParamErr@@XZ 10084240 f   ParamMgr:ParamMgr.obj
 0001:00083250       ?ClearSymbolTable@ParamMgr@@QAE?AW4ParamErr@@XZ 10084250 f   ParamMgr:ParamMgr.obj
 0001:00083260       ?CloseParamFile@ParamMgr@@QAE?AW4ParamErr@@XZ 10084260 f   ParamMgr:ParamMgr.obj
 0001:00083270       ?CommitTransaction@ParamMgr@@QAE?AW4ParamErr@@XZ 10084270 f   ParamMgr:ParamMgr.obj
 0001:00083280       ?CreateAttrib@ParamMgr@@QAE?AW4ParamErr@@PA_W0@Z 10084280 f   ParamMgr:ParamMgr.obj
 0001:00083290       ?CreateAttrib@ParamMgr@@QAE?AW4ParamErr@@PA_WK@Z 10084290 f   ParamMgr:ParamMgr.obj
 0001:000832a0       ?CreateAttrib@ParamMgr@@QAE?AW4ParamErr@@PA_W_N@Z 100842a0 f   ParamMgr:ParamMgr.obj
 0001:000832b0       ?DeleteBool@ParamMgr@@QAE?AW4ParamErr@@XZ 100842b0 f   ParamMgr:ParamMgr.obj
 0001:000832c0       ?DeleteNumber@ParamMgr@@QAE?AW4ParamErr@@XZ 100842c0 f   ParamMgr:ParamMgr.obj
 0001:000832d0       ?DeleteSection@ParamMgr@@QAE?AW4ParamErr@@XZ 100842d0 f   ParamMgr:ParamMgr.obj
 0001:000832e0       ?DeleteString@ParamMgr@@QAE?AW4ParamErr@@XZ 100842e0 f   ParamMgr:ParamMgr.obj
 0001:000832f0       ?GetAttrib@ParamMgr@@QAE?AW4ParamErr@@PA_W_N0H@Z 100842f0 f   ParamMgr:ParamMgr.obj
 0001:00083300       ?GetAttrib@ParamMgr@@QAE?AW4ParamErr@@PA_W_NPAK@Z 10084300 f   ParamMgr:ParamMgr.obj
 0001:00083310       ?GetAttrib@ParamMgr@@QAE?AW4ParamErr@@PA_W_NPA_N@Z 10084310 f   ParamMgr:ParamMgr.obj
 0001:00083320       ?GetAttribType@ParamMgr@@QAE?AW4ParamErr@@PA_W_NPAW4AttribType@@@Z 10084320 f   ParamMgr:ParamMgr.obj
 0001:00083330       ?GetEntry@ParamMgr@@QAE?AW4ParamErr@@_NPA_WH1H@Z 10084330 f   ParamMgr:ParamMgr.obj
 0001:00083340       ?GetIsHMPServer@ParamMgr@@QAE?AW4ParamErr@@PA_N@Z 10084340 f   ParamMgr:ParamMgr.obj
 0001:00083430       ?GetIsSigServer@ParamMgr@@QAE?AW4ParamErr@@PA_N@Z 10084430 f   ParamMgr:ParamMgr.obj
 0001:00083570       ?GetSectionName@ParamMgr@@QAE?AW4ParamErr@@_NPA_WH@Z 10084570 f   ParamMgr:ParamMgr.obj
 0001:00083580       ?GetTokenValue@ParamMgr@@QAE?AW4ParamErr@@PAK@Z 10084580 f   ParamMgr:ParamMgr.obj
 0001:00083590       ?GetTokenValue@ParamMgr@@QAE?AW4ParamErr@@PA_N@Z 10084590 f   ParamMgr:ParamMgr.obj
 0001:000835a0       ?GetTokenValue@ParamMgr@@QAE?AW4ParamErr@@PA_WH@Z 100845a0 f   ParamMgr:ParamMgr.obj
 0001:000835b0       ?InTransaction@ParamMgr@@QAE_NXZ 100845b0 f   ParamMgr:ParamMgr.obj
 0001:000835c0       ?NextToken@ParamMgr@@QAE?AW4ParamErr@@PAH@Z 100845c0 f   ParamMgr:ParamMgr.obj
 0001:000835d0       ?OpenParamFile@ParamMgr@@QAE?AW4ParamErr@@PA_W0W4FileOpenType@@@Z 100845d0 f   ParamMgr:ParamMgr.obj
 0001:000835e0       ?OpenParamFile@ParamMgr@@QAE?AW4ParamErr@@PA_WW4FileOpenType@@@Z 100845e0 f   ParamMgr:ParamMgr.obj
 0001:000835f0       ?RefreshParamFile@ParamMgr@@QAE?AW4ParamErr@@XZ 100845f0 f   ParamMgr:ParamMgr.obj
 0001:00083600       ?ScanSection@ParamMgr@@QAE?AW4ParamErr@@PA_W@Z 10084600 f   ParamMgr:ParamMgr.obj
 0001:00083610       ?ScanSection@ParamMgr@@QAE?AW4ParamErr@@PA_W_N@Z 10084610 f   ParamMgr:ParamMgr.obj
 0001:00083620       ?SetScanString@ParamMgr@@QAE?AW4ParamErr@@PA_W@Z 10084620 f   ParamMgr:ParamMgr.obj
 0001:00083630       ?SetSectionName@ParamMgr@@QAE?AW4ParamErr@@PA_W@Z 10084630 f   ParamMgr:ParamMgr.obj
 0001:00083640       ?UpdateAttrib@ParamMgr@@QAE?AW4ParamErr@@PA_W_N0@Z 10084640 f   ParamMgr:ParamMgr.obj
 0001:00083650       ?UpdateAttrib@ParamMgr@@QAE?AW4ParamErr@@PA_W_N1@Z 10084650 f   ParamMgr:ParamMgr.obj
 0001:00083660       ?UpdateAttrib@ParamMgr@@QAE?AW4ParamErr@@PA_W_NK@Z 10084660 f   ParamMgr:ParamMgr.obj
 0001:00083670       ?WriteParamFile@ParamMgr@@QAE?AW4ParamErr@@XZ 10084670 f   ParamMgr:ParamMgr.obj
 0001:00083680       ??0?$ParamContainer@VBoolParam@@@@QAE@XZ 10084680 f i ParamMgr:ParamMgrGuts.obj
 0001:000836a0       ??0?$ParamContainer@VNumberParam@@@@QAE@XZ 100846a0 f i ParamMgr:ParamMgrGuts.obj
 0001:000836c0       ??0?$ParamContainer@VSectParam@@@@QAE@XZ 100846c0 f i ParamMgr:ParamMgrGuts.obj
 0001:000836e0       ??0?$ParamContainer@VStringParam@@@@QAE@XZ 100846e0 f i ParamMgr:ParamMgrGuts.obj
 0001:00083700       ??0ParamMgrGuts@@QAE@XZ    10084700 f   ParamMgr:ParamMgrGuts.obj
 0001:00083820       ??1?$ParamContainer@VBoolParam@@@@UAE@XZ 10084820 f i ParamMgr:ParamMgrGuts.obj
 0001:00083830       ??1?$ParamContainer@VNumberParam@@@@UAE@XZ 10084830 f i ParamMgr:ParamMgrGuts.obj
 0001:00083840       ??1?$ParamContainer@VSectParam@@@@UAE@XZ 10084840 f i ParamMgr:ParamMgrGuts.obj
 0001:00083850       ??1?$ParamContainer@VStringParam@@@@UAE@XZ 10084850 f i ParamMgr:ParamMgrGuts.obj
 0001:00083860       ??1ParamMgrGuts@@UAE@XZ    10084860 f   ParamMgr:ParamMgrGuts.obj
 0001:00083920       ??_E?$ParamContainer@VBoolParam@@@@UAEPAXI@Z 10084920 f i ParamMgr:ParamMgrGuts.obj
 0001:00083920       ??_G?$ParamContainer@VBoolParam@@@@UAEPAXI@Z 10084920 f i ParamMgr:ParamMgrGuts.obj
 0001:00083950       ??_E?$ParamContainer@VNumberParam@@@@UAEPAXI@Z 10084950 f i ParamMgr:ParamMgrGuts.obj
 0001:00083950       ??_G?$ParamContainer@VNumberParam@@@@UAEPAXI@Z 10084950 f i ParamMgr:ParamMgrGuts.obj
 0001:00083980       ??_E?$ParamContainer@VSectParam@@@@UAEPAXI@Z 10084980 f i ParamMgr:ParamMgrGuts.obj
 0001:00083980       ??_G?$ParamContainer@VSectParam@@@@UAEPAXI@Z 10084980 f i ParamMgr:ParamMgrGuts.obj
 0001:000839b0       ??_E?$ParamContainer@VStringParam@@@@UAEPAXI@Z 100849b0 f i ParamMgr:ParamMgrGuts.obj
 0001:000839b0       ??_G?$ParamContainer@VStringParam@@@@UAEPAXI@Z 100849b0 f i ParamMgr:ParamMgrGuts.obj
 0001:000839e0       ??_EParamMgrGuts@@UAEPAXI@Z 100849e0 f i ParamMgr:ParamMgrGuts.obj
 0001:000839e0       ??_GParamMgrGuts@@UAEPAXI@Z 100849e0 f i ParamMgr:ParamMgrGuts.obj
 0001:00083a10       ?AbortTransaction@ParamMgrGuts@@QAE?AW4ParamErr@@XZ 10084a10 f   ParamMgr:ParamMgrGuts.obj
 0001:00083b70       ?ActualOpen@ParamMgrGuts@@AAEXXZ 10084b70 f   ParamMgr:ParamMgrGuts.obj
 0001:00083c90       ?Add@?$ParamContainer@VBoolParam@@@@QAE_NPAVBoolParam@@@Z 10084c90 f i ParamMgr:ParamMgrGuts.obj
 0001:00083cc0       ?Add@?$ParamContainer@VNumberParam@@@@QAE_NPAVNumberParam@@@Z 10084cc0 f i ParamMgr:ParamMgrGuts.obj
 0001:00083cf0       ?Add@?$ParamContainer@VSectParam@@@@QAE_NPAVSectParam@@@Z 10084cf0 f i ParamMgr:ParamMgrGuts.obj
 0001:00083d20       ?Add@?$ParamContainer@VStringParam@@@@QAE_NPAVStringParam@@@Z 10084d20 f i ParamMgr:ParamMgrGuts.obj
 0001:00083d50       ?AddSymbolTable@ParamMgrGuts@@QAE?AW4ParamErr@@PA_WH@Z 10084d50 f   ParamMgr:ParamMgrGuts.obj
 0001:00083d80       ?BeginTransaction@ParamMgrGuts@@QAE?AW4ParamErr@@XZ 10084d80 f   ParamMgr:ParamMgrGuts.obj
 0001:00083f20       ?BuildFileName@ParamMgrGuts@@AAEXPA_W0H@Z 10084f20 f   ParamMgr:ParamMgrGuts.obj
 0001:00084020       ?CheckForSection@ParamMgrGuts@@AAEXXZ 10085020 f   ParamMgr:ParamMgrGuts.obj
 0001:00084060       ?ClearSymbolTable@ParamMgrGuts@@QAE?AW4ParamErr@@XZ 10085060 f   ParamMgr:ParamMgrGuts.obj
 0001:00084070       ?CloseOpenFile@ParamMgrGuts@@AAEXXZ 10085070 f   ParamMgr:ParamMgrGuts.obj
 0001:000840c0       ?CloseParamFile@ParamMgrGuts@@QAE?AW4ParamErr@@XZ 100850c0 f   ParamMgr:ParamMgrGuts.obj
 0001:000840d0       ?CommitTransaction@ParamMgrGuts@@QAE?AW4ParamErr@@XZ 100850d0 f   ParamMgr:ParamMgrGuts.obj
 0001:00084220       ?CreateAttrib@ParamMgrGuts@@QAE?AW4ParamErr@@PA_W0@Z 10085220 f   ParamMgr:ParamMgrGuts.obj
 0001:00084380       ?CreateAttrib@ParamMgrGuts@@QAE?AW4ParamErr@@PA_WK@Z 10085380 f   ParamMgr:ParamMgrGuts.obj
 0001:00084490       ?CreateAttrib@ParamMgrGuts@@QAE?AW4ParamErr@@PA_W_N@Z 10085490 f   ParamMgr:ParamMgrGuts.obj
 0001:000845a0       ?CreateFileWithRetry@ParamMgrGuts@@AAEPAXPB_WKKPAU_SECURITY_ATTRIBUTES@@KKPAX@Z 100855a0 f   ParamMgr:ParamMgrGuts.obj
 0001:00084630       ?CreateSectionName@ParamMgrGuts@@AAE?AW4ParamErr@@PA_W@Z 10085630 f   ParamMgr:ParamMgrGuts.obj
 0001:00084740       ?Delete@?$ParamContainer@VBoolParam@@@@QAE_NXZ 10085740 f i ParamMgr:ParamMgrGuts.obj
 0001:00084790       ?Delete@?$ParamContainer@VNumberParam@@@@QAE_NXZ 10085790 f i ParamMgr:ParamMgrGuts.obj
 0001:000847e0       ?Delete@?$ParamContainer@VStringParam@@@@QAE_NXZ 100857e0 f i ParamMgr:ParamMgrGuts.obj
 0001:00084830       ?DeleteBool@ParamMgrGuts@@QAE?AW4ParamErr@@XZ 10085830 f   ParamMgr:ParamMgrGuts.obj
 0001:00084850       ?DeleteNumber@ParamMgrGuts@@QAE?AW4ParamErr@@XZ 10085850 f   ParamMgr:ParamMgrGuts.obj
 0001:00084870       ?DeleteSection@ParamMgrGuts@@QAE?AW4ParamErr@@XZ 10085870 f   ParamMgr:ParamMgrGuts.obj
 0001:000848b0       ?DeleteString@ParamMgrGuts@@QAE?AW4ParamErr@@XZ 100858b0 f   ParamMgr:ParamMgrGuts.obj
 0001:000848d0       ?DetermineType@ParamMgrGuts@@AAEHXZ 100858d0 f   ParamMgr:ParamMgrGuts.obj
 0001:00084930       ?DiscardAll@?$ParamContainer@VBoolParam@@@@QAEXXZ 10085930 f i ParamMgr:ParamMgrGuts.obj
 0001:00084970       ?DiscardAll@?$ParamContainer@VNumberParam@@@@QAEXXZ 10085970 f i ParamMgr:ParamMgrGuts.obj
 0001:000849b0       ?DiscardAll@?$ParamContainer@VSectParam@@@@QAEXXZ 100859b0 f i ParamMgr:ParamMgrGuts.obj
 0001:000849f0       ?DiscardAll@?$ParamContainer@VStringParam@@@@QAEXXZ 100859f0 f i ParamMgr:ParamMgrGuts.obj
 0001:00084a30       ?Expand@?$ParamContainer@VBoolParam@@@@QAE_NPA_WH@Z 10085a30 f i ParamMgr:ParamMgrGuts.obj
 0001:00084a60       ?Expand@?$ParamContainer@VNumberParam@@@@QAE_NPA_WH@Z 10085a60 f i ParamMgr:ParamMgrGuts.obj
 0001:00084a90       ?Expand@?$ParamContainer@VStringParam@@@@QAE_NPA_WH@Z 10085a90 f i ParamMgr:ParamMgrGuts.obj
 0001:00084ac0       ?Find@?$ParamContainer@VBoolParam@@@@QAEPAVBoolParam@@PA_W_N@Z 10085ac0 f i ParamMgr:ParamMgrGuts.obj
 0001:00084b20       ?Find@?$ParamContainer@VNumberParam@@@@QAEPAVNumberParam@@PA_W_N@Z 10085b20 f i ParamMgr:ParamMgrGuts.obj
 0001:00084b80       ?Find@?$ParamContainer@VSectParam@@@@QAEPAVSectParam@@PA_W_N@Z 10085b80 f i ParamMgr:ParamMgrGuts.obj
 0001:00084be0       ?Find@?$ParamContainer@VSectParam@@@@QAEPAVSectParam@@_N@Z 10085be0 f i ParamMgr:ParamMgrGuts.obj
 0001:00084c10       ?Find@?$ParamContainer@VStringParam@@@@QAEPAVStringParam@@PA_W_N@Z 10085c10 f i ParamMgr:ParamMgrGuts.obj
 0001:00084c70       ?Find@?$ParamContainer@VStringParam@@@@QAEPAVStringParam@@_N@Z 10085c70 f i ParamMgr:ParamMgrGuts.obj
 0001:00084ca0       ?FindSection@ParamMgrGuts@@AAEXXZ 10085ca0 f   ParamMgr:ParamMgrGuts.obj
 0001:00084d60       ?FlushOutput@ParamMgrGuts@@AAEXPAX@Z 10085d60 f   ParamMgr:ParamMgrGuts.obj
 0001:00084dd0       ?GetAttrib@ParamMgrGuts@@QAE?AW4ParamErr@@PA_W_N0H@Z 10085dd0 f   ParamMgr:ParamMgrGuts.obj
 0001:00084e40       ?GetAttrib@ParamMgrGuts@@QAE?AW4ParamErr@@PA_W_NPAK@Z 10085e40 f   ParamMgr:ParamMgrGuts.obj
 0001:00084e80       ?GetAttrib@ParamMgrGuts@@QAE?AW4ParamErr@@PA_W_NPA_N@Z 10085e80 f   ParamMgr:ParamMgrGuts.obj
 0001:00084ec0       ?GetAttribType@ParamMgrGuts@@QAE?AW4ParamErr@@PA_W_NPAW4AttribType@@@Z 10085ec0 f   ParamMgr:ParamMgrGuts.obj
 0001:00084fe0       ?GetEntry@ParamMgrGuts@@QAE?AW4ParamErr@@_NPA_WH1H@Z 10085fe0 f   ParamMgr:ParamMgrGuts.obj
 0001:00085090       ?GetLine@ParamMgrGuts@@AAE_NXZ 10086090 f   ParamMgr:ParamMgrGuts.obj
 0001:000851c0       ?GetSectionName@ParamMgrGuts@@QAE?AW4ParamErr@@_NPA_WH@Z 100861c0 f   ParamMgr:ParamMgrGuts.obj
 0001:00085230       ?GetShadowFileName@ParamMgrGuts@@AAEXPA_W@Z 10086230 f   ParamMgr:ParamMgrGuts.obj
 0001:00085370       ?GetTokenValue@ParamMgrGuts@@QAE?AW4ParamErr@@PAK@Z 10086370 f   ParamMgr:ParamMgrGuts.obj
 0001:00085390       ?GetTokenValue@ParamMgrGuts@@QAE?AW4ParamErr@@PA_N@Z 10086390 f   ParamMgr:ParamMgrGuts.obj
 0001:000853b0       ?GetTokenValue@ParamMgrGuts@@QAE?AW4ParamErr@@PA_WH@Z 100863b0 f   ParamMgr:ParamMgrGuts.obj
 0001:000853e0       ?InTransaction@ParamMgrGuts@@QAE_NXZ 100863e0 f   ParamMgr:ParamMgrGuts.obj
 0001:000853f0       ?MergeSection@ParamMgrGuts@@AAEXXZ 100863f0 f   ParamMgr:ParamMgrGuts.obj
 0001:00085690       ?NextToken@ParamMgrGuts@@QAE?AW4ParamErr@@PAH@Z 10086690 f   ParamMgr:ParamMgrGuts.obj
 0001:000856b0       ?OpenParamFile@ParamMgrGuts@@QAE?AW4ParamErr@@PA_W0W4FileOpenType@@@Z 100866b0 f   ParamMgr:ParamMgrGuts.obj
 0001:000858b0       ?OpenParamFile@ParamMgrGuts@@QAE?AW4ParamErr@@PA_WW4FileOpenType@@@Z 100868b0 f   ParamMgr:ParamMgrGuts.obj
 0001:000859f0       ?ParseLine@ParamMgrGuts@@AAEXXZ 100869f0 f   ParamMgr:ParamMgrGuts.obj
 0001:00085c10       ?RefreshParamFile@ParamMgrGuts@@QAE?AW4ParamErr@@XZ 10086c10 f   ParamMgr:ParamMgrGuts.obj
 0001:00085cd0       ?ScanSection@ParamMgrGuts@@QAE?AW4ParamErr@@PA_W@Z 10086cd0 f   ParamMgr:ParamMgrGuts.obj
 0001:00085d80       ?ScanSection@ParamMgrGuts@@QAE?AW4ParamErr@@PA_W_N@Z 10086d80 f   ParamMgr:ParamMgrGuts.obj
 0001:00085db0       ?SectionMarker@ParamMgrGuts@@AAEHXZ 10086db0 f   ParamMgr:ParamMgrGuts.obj
 0001:00085e90       ?SectionPattern@ParamMgrGuts@@AAE_NPAH@Z 10086e90 f   ParamMgr:ParamMgrGuts.obj
 0001:00085f80       ?SetBeginning@?$ParamContainer@VBoolParam@@@@QAEHXZ 10086f80 f i ParamMgr:ParamMgrGuts.obj
 0001:00085f90       ?SetBeginning@?$ParamContainer@VNumberParam@@@@QAEHXZ 10086f90 f i ParamMgr:ParamMgrGuts.obj
 0001:00085fa0       ?SetBeginning@?$ParamContainer@VSectParam@@@@QAEHXZ 10086fa0 f i ParamMgr:ParamMgrGuts.obj
 0001:00085fb0       ?SetBeginning@?$ParamContainer@VStringParam@@@@QAEHXZ 10086fb0 f i ParamMgr:ParamMgrGuts.obj
 0001:00085fc0       ?SetFileToBegin@ParamMgrGuts@@AAEX_N@Z 10086fc0 f   ParamMgr:ParamMgrGuts.obj
 0001:00086070       ?SetScanString@ParamMgrGuts@@QAE?AW4ParamErr@@PA_W@Z 10087070 f   ParamMgr:ParamMgrGuts.obj
 0001:000860b0       ?SetSectionName@ParamMgrGuts@@QAE?AW4ParamErr@@PA_W@Z 100870b0 f   ParamMgr:ParamMgrGuts.obj
 0001:000860d0       ?SetSectionNameGuts@ParamMgrGuts@@AAE?AW4ParamErr@@PA_W@Z 100870d0 f   ParamMgr:ParamMgrGuts.obj
 0001:000861f0       ?SubSectionPattern@ParamMgrGuts@@AAE_NPAH@Z 100871f0 f   ParamMgr:ParamMgrGuts.obj
 0001:000862f0       ?UpdateAttrib@ParamMgrGuts@@QAE?AW4ParamErr@@PA_W_N0@Z 100872f0 f   ParamMgr:ParamMgrGuts.obj
 0001:00086370       ?UpdateAttrib@ParamMgrGuts@@QAE?AW4ParamErr@@PA_W_N1@Z 10087370 f   ParamMgr:ParamMgrGuts.obj
 0001:000863b0       ?UpdateAttrib@ParamMgrGuts@@QAE?AW4ParamErr@@PA_W_NK@Z 100873b0 f   ParamMgr:ParamMgrGuts.obj
 0001:000863f0       ?WriteOutput@ParamMgrGuts@@AAEXPA_WPAXH@Z 100873f0 f   ParamMgr:ParamMgrGuts.obj
 0001:00086500       ?WriteParamFile@ParamMgrGuts@@QAE?AW4ParamErr@@XZ 10087500 f   ParamMgr:ParamMgrGuts.obj
 0001:00086620       ?WriteSection@ParamMgrGuts@@AAEXPAX@Z 10087620 f   ParamMgr:ParamMgrGuts.obj
 0001:000868f0       ??0ParamScan@@QAE@XZ       100878f0 f   ParamMgr:ParamScan.obj
 0001:00086910       ??1ParamScan@@UAE@XZ       10087910 f   ParamMgr:ParamScan.obj
 0001:00086920       ??_GParamScan@@UAEPAXI@Z   10087920 f i ParamMgr:ParamScan.obj
 0001:00086920       ??_EParamScan@@UAEPAXI@Z   10087920 f i ParamMgr:ParamScan.obj
 0001:00086950       ?BasicInit@ParamScan@@AAEXXZ 10087950 f   ParamMgr:ParamScan.obj
 0001:00086990       ?ClearSymbolTable@ParamScan@@QAEXXZ 10087990 f   ParamMgr:ParamScan.obj
 0001:000869b0       ?GetBoolean@ParamScan@@QAE_NXZ 100879b0 f   ParamMgr:ParamScan.obj
 0001:000869c0       ?GetLexText@ParamScan@@QAE_NPA_WH@Z 100879c0 f   ParamMgr:ParamScan.obj
 0001:00086a00       ?GetNumber@ParamScan@@QAEKXZ 10087a00 f   ParamMgr:ParamScan.obj
 0001:00086a10       ?GetString@ParamScan@@QAEXPA_WH@Z 10087a10 f   ParamMgr:ParamScan.obj
 0001:00086a90       ?LoadSymbolTable@ParamScan@@QAE_NHPA_W@Z 10087a90 f   ParamMgr:ParamScan.obj
 0001:00086b60       ?NextLex@ParamScan@@QAEHXZ 10087b60 f   ParamMgr:ParamScan.obj
 0001:00086b70       ?NextString@ParamScan@@QAEHXZ 10087b70 f   ParamMgr:ParamScan.obj
 0001:00086bf0       ?NextToken@ParamScan@@AAEHXZ 10087bf0 f   ParamMgr:ParamScan.obj
 0001:00086de0       ?RemoveBlank@ParamScan@@AAE_NXZ 10087de0 f   ParamMgr:ParamScan.obj
 0001:00086e10       ?ScanAlpha@ParamScan@@AAEIPA_WI@Z 10087e10 f   ParamMgr:ParamScan.obj
 0001:00086e50       ?ScanEql@ParamScan@@AAEIPA_WI_W@Z 10087e50 f   ParamMgr:ParamScan.obj
 0001:00086e90       ?ScanNeq@ParamScan@@AAEIPA_WI_W@Z 10087e90 f   ParamMgr:ParamScan.obj
 0001:00086ed0       ?ScanNum@ParamScan@@AAEIPA_WI@Z 10087ed0 f   ParamMgr:ParamScan.obj
 0001:00086f20       ?SetText@ParamScan@@QAE_NPA_WH@Z 10087f20 f   ParamMgr:ParamScan.obj
 0001:00086f60       ??0BoolParam@@QAE@XZ       10087f60 f   ParamMgr:BoolParam.obj
 0001:00086f70       ??1BoolParam@@UAE@XZ       10087f70 f   ParamMgr:BoolParam.obj
 0001:00086f80       ??_EBoolParam@@UAEPAXI@Z   10087f80 f i ParamMgr:BoolParam.obj
 0001:00086f80       ??_GBoolParam@@UAEPAXI@Z   10087f80 f i ParamMgr:BoolParam.obj
 0001:00086fb0       ?BuildText@BoolParam@@QAE_NPA_WH@Z 10087fb0 f   ParamMgr:BoolParam.obj
 0001:00087070       ??0NumberParam@@QAE@XZ     10088070 f   ParamMgr:NumberParam.obj
 0001:00087080       ??1NumberParam@@UAE@XZ     10088080 f   ParamMgr:NumberParam.obj
 0001:00087090       ??_ENumberParam@@UAEPAXI@Z 10088090 f i ParamMgr:NumberParam.obj
 0001:00087090       ??_GNumberParam@@UAEPAXI@Z 10088090 f i ParamMgr:NumberParam.obj
 0001:000870c0       ?BuildText@NumberParam@@QAE_NPA_WH@Z 100880c0 f   ParamMgr:NumberParam.obj
 0001:00087190       ??0StringParam@@QAE@XZ     10088190 f   ParamMgr:StringParam.obj
 0001:000871a0       ??1StringParam@@UAE@XZ     100881a0 f   ParamMgr:StringParam.obj
 0001:000871b0       ??_GStringParam@@UAEPAXI@Z 100881b0 f i ParamMgr:StringParam.obj
 0001:000871b0       ??_EStringParam@@UAEPAXI@Z 100881b0 f i ParamMgr:StringParam.obj
 0001:000871e0       ?BuildText@StringParam@@QAE_NPA_WH@Z 100881e0 f   ParamMgr:StringParam.obj
 0001:000872b0       ??0SectParam@@QAE@XZ       100882b0 f   ParamMgr:SectParam.obj
 0001:000872c0       ??1SectParam@@UAE@XZ       100882c0 f   ParamMgr:SectParam.obj
 0001:000872d0       ??_ESectParam@@UAEPAXI@Z   100882d0 f i ParamMgr:SectParam.obj
 0001:000872d0       ??_GSectParam@@UAEPAXI@Z   100882d0 f i ParamMgr:SectParam.obj
 0001:00087300       ?BuildText@SectParam@@QAE_NPA_WH@Z 10088300 f   ParamMgr:SectParam.obj
 0001:00087380       ?AS_FillLogBuffer@@YAPAU_LOG_TRACE_DATA@@PAU1@KZZ 10088380 f   TRB_BinTrace:logutils.obj
 0001:00087410       ?AS_FillLogBufferPID@@YAPAU_LOG_TRACE_DATA@@PAU1@EKZZ 10088410 f   TRB_BinTrace:logutils.obj
 0001:000874b0       ?AS_FillLogBufferSIG@@YAPAU_LOG_TRACE_DATA@@PAU1@EEEKZZ 100884b0 f   TRB_BinTrace:logutils.obj
 0001:00087560       ?AS_FillLogBufferSS7@@YAPAU_LOG_TRACE_DATA@@PAU1@EGKZZ 10088560 f   TRB_BinTrace:logutils.obj
 0001:00087600       ?AS_FillLogBufferTS@@YAPAU_LOG_TRACE_DATA@@PAU1@EEEKZZ 10088600 f   TRB_BinTrace:logutils.obj
 0001:000876a4       ?_Xbad_alloc@std@@YAXXZ    100886a4 f   msvcprt:MSVCP110.dll
 0001:000876aa       ?_Xlength_error@std@@YAXPBD@Z 100886aa f   msvcprt:MSVCP110.dll
 0001:000876b0       ?_Xout_of_range@std@@YAXPBD@Z 100886b0 f   msvcprt:MSVCP110.dll
 0001:000876b6       ?_Syserror_map@std@@YAPBDH@Z 100886b6 f   msvcprt:MSVCP110.dll
 0001:000876bc       ?_Winerror_map@std@@YAPBDH@Z 100886bc f   msvcprt:MSVCP110.dll
 0001:000876c2       ??0id@locale@std@@QAE@I@Z  100886c2 f   msvcprt:MSVCP110.dll
 0001:000876c8       ??_U@YAPAXI@Z              100886c8 f   msvcprt:newaop_s.obj
 0001:000876d2       ?uncaught_exception@std@@YA_NXZ 100886d2 f   msvcprt:MSVCP110.dll
 0001:000876d8       ?good@ios_base@std@@QBE_NXZ 100886d8 f   msvcprt:MSVCP110.dll
 0001:000876de       ?flags@ios_base@std@@QBEHXZ 100886de f   msvcprt:MSVCP110.dll
 0001:000876e4       ?width@ios_base@std@@QBE_JXZ 100886e4 f   msvcprt:MSVCP110.dll
 0001:000876ea       ?width@ios_base@std@@QAE_J_J@Z 100886ea f   msvcprt:MSVCP110.dll
 0001:000876f0       ?sputc@?$basic_streambuf@_WU?$char_traits@_W@std@@@std@@QAEG_W@Z 100886f0 f   msvcprt:MSVCP110.dll
 0001:000876f6       ?sputn@?$basic_streambuf@_WU?$char_traits@_W@std@@@std@@QAE_JPB_W_J@Z 100886f6 f   msvcprt:MSVCP110.dll
 0001:000876fc       ?setstate@?$basic_ios@_WU?$char_traits@_W@std@@@std@@QAEXH_N@Z 100886fc f   msvcprt:MSVCP110.dll
 0001:00087702       ?tie@?$basic_ios@_WU?$char_traits@_W@std@@@std@@QBEPAV?$basic_ostream@_WU?$char_traits@_W@std@@@2@XZ 10088702 f   msvcprt:MSVCP110.dll
 0001:00087708       ?rdbuf@?$basic_ios@_WU?$char_traits@_W@std@@@std@@QBEPAV?$basic_streambuf@_WU?$char_traits@_W@std@@@2@XZ 10088708 f   msvcprt:MSVCP110.dll
 0001:0008770e       ?fill@?$basic_ios@_WU?$char_traits@_W@std@@@std@@QBE_WXZ 1008870e f   msvcprt:MSVCP110.dll
 0001:00087714       ?_Osfx@?$basic_ostream@_WU?$char_traits@_W@std@@@std@@QAEXXZ 10088714 f   msvcprt:MSVCP110.dll
 0001:0008771a       ??6?$basic_ostream@_WU?$char_traits@_W@std@@@std@@QAEAAV01@P6AAAV01@AAV01@@Z@Z 1008871a f   msvcprt:MSVCP110.dll
 0001:00087720       ?flush@?$basic_ostream@_WU?$char_traits@_W@std@@@std@@QAEAAV12@XZ 10088720 f   msvcprt:MSVCP110.dll
 0001:00087726       ?flush@std@@YAAAV?$basic_ostream@_WU?$char_traits@_W@std@@@1@AAV21@@Z 10088726 f   msvcprt:MSVCP110.dll
 0001:0008772c       ?sputc@?$basic_streambuf@DU?$char_traits@D@std@@@std@@QAEHD@Z 1008872c f   msvcprt:MSVCP110.dll
 0001:00087732       ?setstate@?$basic_ios@DU?$char_traits@D@std@@@std@@QAEXH_N@Z 10088732 f   msvcprt:MSVCP110.dll
 0001:00087738       ?_Osfx@?$basic_ostream@DU?$char_traits@D@std@@@std@@QAEXXZ 10088738 f   msvcprt:MSVCP110.dll
 0001:0008773e       ?flush@?$basic_ostream@DU?$char_traits@D@std@@@std@@QAEAAV12@XZ 1008873e f   msvcprt:MSVCP110.dll
 0001:00087744       ??6?$basic_ostream@DU?$char_traits@D@std@@@std@@QAEAAV01@P6AAAV01@AAV01@@Z@Z 10088744 f   msvcprt:MSVCP110.dll
 0001:0008774a       ?endl@std@@YAAAV?$basic_ostream@DU?$char_traits@D@std@@@1@AAV21@@Z 1008874a f   msvcprt:MSVCP110.dll
 0001:00087750       ??0_Lockit@std@@QAE@H@Z    10088750 f   msvcprt:MSVCP110.dll
 0001:00087756       ??1_Lockit@std@@QAE@XZ     10088756 f   msvcprt:MSVCP110.dll
 0001:0008775c       ??0_Fac_node@std@@QAE@PAU01@PAV_Facet_base@1@@Z 1008875c f i msvcprt:locale0_implib.obj
 0001:00087770       ??1_Fac_node@std@@QAE@XZ   10088770 f i msvcprt:locale0_implib.obj
 0001:00087785       ??1_Fac_tidy_reg_t@std@@QAE@XZ 10088785 f i msvcprt:locale0_implib.obj
 0001:000877a9       ??_G_Fac_node@std@@QAEPAXI@Z 100887a9 f i msvcprt:locale0_implib.obj
 0001:000877c8       ?_Facet_Register@std@@YAXPAV_Facet_base@1@@Z 100887c8 f   msvcprt:locale0_implib.obj
 0001:000877f0       ??Bid@locale@std@@QAEIXZ   100887f0 f   msvcprt:MSVCP110.dll
 0001:000877f6       ?_Getgloballocale@locale@std@@CAPAV_Locimp@12@XZ 100887f6 f   msvcprt:MSVCP110.dll
 0001:000877fc       ?always_noconv@codecvt_base@std@@QBE_NXZ 100887fc f   msvcprt:MSVCP110.dll
 0001:00087802       ?in@?$codecvt@_WDH@std@@QBEHAAHPBD1AAPBDPA_W3AAPA_W@Z 10088802 f   msvcprt:MSVCP110.dll
 0001:00087808       ?out@?$codecvt@_WDH@std@@QBEHAAHPB_W1AAPB_WPAD3AAPAD@Z 10088808 f   msvcprt:MSVCP110.dll
 0001:0008780e       ?unshift@?$codecvt@_WDH@std@@QBEHAAHPAD1AAPAD@Z 1008880e f   msvcprt:MSVCP110.dll
 0001:00087814       ?_Getcat@?$codecvt@_WDH@std@@SAIPAPBVfacet@locale@2@PBV42@@Z 10088814 f   msvcprt:MSVCP110.dll
 0001:0008781a       ?widen@?$ctype@_W@std@@QBE_WD@Z 1008881a f   msvcprt:MSVCP110.dll
 0001:00087820       ?_Getcat@?$ctype@_W@std@@SAIPAPBVfacet@locale@2@PBV42@@Z 10088820 f   msvcprt:MSVCP110.dll
 0001:00087826       ?in@?$codecvt@DDH@std@@QBEHAAHPBD1AAPBDPAD3AAPAD@Z 10088826 f   msvcprt:MSVCP110.dll
 0001:0008782c       ?out@?$codecvt@DDH@std@@QBEHAAHPBD1AAPBDPAD3AAPAD@Z 1008882c f   msvcprt:MSVCP110.dll
 0001:00087832       ?unshift@?$codecvt@DDH@std@@QBEHAAHPAD1AAPAD@Z 10088832 f   msvcprt:MSVCP110.dll
 0001:00087838       ?_Getcat@?$codecvt@DDH@std@@SAIPAPBVfacet@locale@2@PBV42@@Z 10088838 f   msvcprt:MSVCP110.dll
 0001:0008783e       ?getloc@ios_base@std@@QBE?AVlocale@2@XZ 1008883e f   msvcprt:MSVCP110.dll
 0001:00087844       ??1ios_base@std@@UAE@XZ    10088844 f   msvcprt:MSVCP110.dll
 0001:0008784a       ?_Ios_base_dtor@ios_base@std@@CAXPAV12@@Z 1008884a f   msvcprt:MSVCP110.dll
 0001:00087850       ??0?$basic_streambuf@DU?$char_traits@D@std@@@std@@IAE@XZ 10088850 f   msvcprt:MSVCP110.dll
 0001:00087856       ??1?$basic_streambuf@DU?$char_traits@D@std@@@std@@UAE@XZ 10088856 f   msvcprt:MSVCP110.dll
 0001:0008785c       ?getloc@?$basic_streambuf@DU?$char_traits@D@std@@@std@@QBE?AVlocale@2@XZ 1008885c f   msvcprt:MSVCP110.dll
 0001:00087862       ?setg@?$basic_streambuf@DU?$char_traits@D@std@@@std@@IAEXPAD00@Z 10088862 f   msvcprt:MSVCP110.dll
 0001:00087868       ?_Gninc@?$basic_streambuf@DU?$char_traits@D@std@@@std@@IAEPADXZ 10088868 f   msvcprt:MSVCP110.dll
 0001:0008786e       ?_Pninc@?$basic_streambuf@DU?$char_traits@D@std@@@std@@IAEPADXZ 1008886e f   msvcprt:MSVCP110.dll
 0001:00087874       ?_Init@?$basic_streambuf@DU?$char_traits@D@std@@@std@@IAEXXZ 10088874 f   msvcprt:MSVCP110.dll
 0001:0008787a       ??0?$basic_streambuf@_WU?$char_traits@_W@std@@@std@@IAE@XZ 1008887a f   msvcprt:MSVCP110.dll
 0001:00087880       ??1?$basic_streambuf@_WU?$char_traits@_W@std@@@std@@UAE@XZ 10088880 f   msvcprt:MSVCP110.dll
 0001:00087886       ?getloc@?$basic_streambuf@_WU?$char_traits@_W@std@@@std@@QBE?AVlocale@2@XZ 10088886 f   msvcprt:MSVCP110.dll
 0001:0008788c       ?setg@?$basic_streambuf@_WU?$char_traits@_W@std@@@std@@IAEXPA_W00@Z 1008888c f   msvcprt:MSVCP110.dll
 0001:00087892       ?_Gninc@?$basic_streambuf@_WU?$char_traits@_W@std@@@std@@IAEPA_WXZ 10088892 f   msvcprt:MSVCP110.dll
 0001:00087898       ?_Pninc@?$basic_streambuf@_WU?$char_traits@_W@std@@@std@@IAEPA_WXZ 10088898 f   msvcprt:MSVCP110.dll
 0001:0008789e       ?_Init@?$basic_streambuf@_WU?$char_traits@_W@std@@@std@@IAEXXZ 1008889e f   msvcprt:MSVCP110.dll
 0001:000878a4       ??1?$basic_ios@DU?$char_traits@D@std@@@std@@UAE@XZ 100888a4 f   msvcprt:MSVCP110.dll
 0001:000878aa       ??1?$basic_ios@_WU?$char_traits@_W@std@@@std@@UAE@XZ 100888aa f   msvcprt:MSVCP110.dll
 0001:000878b0       ?clear@?$basic_ios@_WU?$char_traits@_W@std@@@std@@QAEXH_N@Z 100888b0 f   msvcprt:MSVCP110.dll
 0001:000878b6       ??0?$basic_ostream@DU?$char_traits@D@std@@@std@@QAE@PAV?$basic_streambuf@DU?$char_traits@D@std@@@1@_N@Z 100888b6 f   msvcprt:MSVCP110.dll
 0001:000878bc       ??1?$basic_ostream@DU?$char_traits@D@std@@@std@@UAE@XZ 100888bc f   msvcprt:MSVCP110.dll
 0001:000878c2       ?_Add_vtordisp2@?$basic_ostream@DU?$char_traits@D@std@@@std@@UAEXXZ 100888c2 f   msvcprt:MSVCP110.dll
 0001:000878c8       ??0?$basic_ostream@_WU?$char_traits@_W@std@@@std@@QAE@PAV?$basic_streambuf@_WU?$char_traits@_W@std@@@1@_N@Z 100888c8 f   msvcprt:MSVCP110.dll
 0001:000878ce       ??1?$basic_ostream@_WU?$char_traits@_W@std@@@std@@UAE@XZ 100888ce f   msvcprt:MSVCP110.dll
 0001:000878d4       ?_Add_vtordisp2@?$basic_ostream@_WU?$char_traits@_W@std@@@std@@UAEXXZ 100888d4 f   msvcprt:MSVCP110.dll
 0001:000878da       ??6?$basic_ostream@_WU?$char_traits@_W@std@@@std@@QAEAAV01@_N@Z 100888da f   msvcprt:MSVCP110.dll
 0001:000878e0       ??6?$basic_ostream@_WU?$char_traits@_W@std@@@std@@QAEAAV01@F@Z 100888e0 f   msvcprt:MSVCP110.dll
 0001:000878e6       ??6?$basic_ostream@_WU?$char_traits@_W@std@@@std@@QAEAAV01@G@Z 100888e6 f   msvcprt:MSVCP110.dll
 0001:000878ec       ??6?$basic_ostream@_WU?$char_traits@_W@std@@@std@@QAEAAV01@H@Z 100888ec f   msvcprt:MSVCP110.dll
 0001:000878f2       ??6?$basic_ostream@_WU?$char_traits@_W@std@@@std@@QAEAAV01@I@Z 100888f2 f   msvcprt:MSVCP110.dll
 0001:000878f8       ??6?$basic_ostream@_WU?$char_traits@_W@std@@@std@@QAEAAV01@J@Z 100888f8 f   msvcprt:MSVCP110.dll
 0001:000878fe       ??6?$basic_ostream@_WU?$char_traits@_W@std@@@std@@QAEAAV01@K@Z 100888fe f   msvcprt:MSVCP110.dll
 0001:00087904       ??6?$basic_ostream@_WU?$char_traits@_W@std@@@std@@QAEAAV01@M@Z 10088904 f   msvcprt:MSVCP110.dll
 0001:0008790a       ?tellp@?$basic_ostream@_WU?$char_traits@_W@std@@@std@@QAE?AV?$fpos@H@2@XZ 1008890a f   msvcprt:MSVCP110.dll
 0001:00087910       ?endl@std@@YAAAV?$basic_ostream@_WU?$char_traits@_W@std@@@1@AAV21@@Z 10088910 f   msvcprt:MSVCP110.dll
 0001:00087916       ?_Fiopen@std@@YAPAU_iobuf@@PBDHH@Z 10088916 f   msvcprt:MSVCP110.dll
 0001:0008791c       ?_Add_vtordisp1@?$basic_ios@DU?$char_traits@D@std@@@std@@UAEXXZ 1008891c f   msvcprt:MSVCP110.dll
 0001:00087922       ?_Add_vtordisp1@?$basic_ios@_WU?$char_traits@_W@std@@@std@@UAEXXZ 10088922 f   msvcprt:MSVCP110.dll
 0001:00087928       ?showmanyc@?$basic_streambuf@DU?$char_traits@D@std@@@std@@MAE_JXZ 10088928 f   msvcprt:MSVCP110.dll
 0001:0008792e       ?showmanyc@?$basic_streambuf@_WU?$char_traits@_W@std@@@std@@MAE_JXZ 1008892e f   msvcprt:MSVCP110.dll
 0001:00087934       ?xsgetn@?$basic_streambuf@DU?$char_traits@D@std@@@std@@MAE_JPAD_J@Z 10088934 f   msvcprt:MSVCP110.dll
 0001:0008793a       ?xsgetn@?$basic_streambuf@_WU?$char_traits@_W@std@@@std@@MAE_JPA_W_J@Z 1008893a f   msvcprt:MSVCP110.dll
 0001:00087940       ?xsputn@?$basic_streambuf@DU?$char_traits@D@std@@@std@@MAE_JPBD_J@Z 10088940 f   msvcprt:MSVCP110.dll
 0001:00087946       ?xsputn@?$basic_streambuf@_WU?$char_traits@_W@std@@@std@@MAE_JPB_W_J@Z 10088946 f   msvcprt:MSVCP110.dll
 0001:0008794c       ??6?$basic_ostream@_WU?$char_traits@_W@std@@@std@@QAEAAV01@_J@Z 1008894c f   msvcprt:MSVCP110.dll
 0001:00087960       ?_com_dispatch_method@@YAJPAUIDispatch@@JGGPAXPB_WZZ 10088960 f   comsuppw:comsupp.obj
 0001:000879a0       ?_com_dispatch_propget@@YGJPAUIDispatch@@JGPAX@Z 100889a0 f   comsuppw:comsupp.obj
 0001:000879c0       ?_com_dispatch_propput@@YAJPAUIDispatch@@JGZZ 100889c0 f   comsuppw:comsupp.obj
 0001:00087a20       ?_com_issue_error@@YGXJ@Z  10088a20 f   comsuppw:comsupp.obj
 0001:00087a40       ?_com_issue_errorex@@YGXJPAUIUnknown@@ABU_GUID@@@Z 10088a40 f   comsuppw:comsupp.obj
 0001:00087ac0       ?_set_com_error_handler@@YGXP6GXJPAUIErrorInfo@@@Z@Z 10088ac0 f   comsuppw:comsupp.obj
 0001:00087ad0       ??0_variant_t@@QAE@JG@Z    10088ad0 f i comsuppw:comutil.obj
 0001:00087b50       ?ConvertBSTRToString@_com_util@@YGPADPA_W@Z 10088b50 f   comsuppw:comutil.obj
 0001:00087c70       ?ConvertStringToBSTR@_com_util@@YGPA_WPBD@Z 10088c70 f   comsuppw:comutil.obj
 0001:00087df0       ?HRESULT_FROM_WIN32@@YGJK@Z 10088df0 f i comsuppw:comutil.obj
 0001:00087e10       ??0_com_error@@QAE@ABV0@@Z 10088e10 f i comsuppw:comraise.obj
 0001:00087e50       ??0_com_error@@QAE@JPAUIErrorInfo@@_N@Z 10088e50 f i comsuppw:comraise.obj
 0001:00087e90       ??1_com_error@@UAE@XZ      10088e90 f i comsuppw:comraise.obj
 0001:00087ec0       ??_G_com_error@@UAEPAXI@Z  10088ec0 f i comsuppw:comraise.obj
 0001:00087ec0       ??_E_com_error@@UAEPAXI@Z  10088ec0 f i comsuppw:comraise.obj
 0001:00087f00       ?_com_raise_error@@YGXJPAUIErrorInfo@@@Z 10088f00 f   comsuppw:comraise.obj
 0001:00087f30       ?_com_dispatch_raw_method@@YAJPAUIDispatch@@JGGPAXPB_WZZ 10088f30 f   comsuppw:invkprxy.obj
 0001:00087f70       ?_com_dispatch_raw_propget@@YGJPAUIDispatch@@JGPAX@Z 10088f70 f   comsuppw:invkprxy.obj
 0001:00087f90       ?_com_dispatch_raw_propput@@YAJPAUIDispatch@@JGZZ 10088f90 f   comsuppw:invkprxy.obj
 0001:00087ff0       ?_com_invoke_helper@@YAJPAUIDispatch@@JGGPAXPB_WPADPAPAUIErrorInfo@@@Z 10088ff0 f   comsuppw:invkprxy.obj
 0001:000885a0       ?WCodeToHRESULT@_com_error@@SGJG@Z 100895a0 f i comsuppw:invkerr.obj
 0001:000885d0       ?_com_handle_excepinfo@@YGJAAUtagEXCEPINFO@@PAPAUIErrorInfo@@@Z 100895d0 f   comsuppw:invkerr.obj
 0001:000886c0       ??3@YAXPAX@Z               100896c0 f   MSVCRT:MSVCR110.dll
 0001:000886c6       __purecall                 100896c6 f   MSVCRT:MSVCR110.dll
 0001:000886cc       ??2@YAPAXI@Z               100896cc f   MSVCRT:MSVCR110.dll
 0001:000886d2       ___atonexitinit            100896d2 f   MSVCRT:atonexit.obj
 0001:0008870e       __onexit                   1008970e f   MSVCRT:atonexit.obj
 0001:000887b3       _atexit                    100897b3 f   MSVCRT:atonexit.obj
 0001:000887c8       _memmove                   100897c8 f   MSVCRT:MSVCR110.dll
 0001:000887ce       _calloc                    100897ce f   MSVCRT:MSVCR110.dll
 0001:000887d4       _free                      100897d4 f   MSVCRT:MSVCR110.dll
 0001:000887da       __vsnprintf                100897da f   MSVCRT:MSVCR110.dll
 0001:000887e0       _sprintf                   100897e0 f   MSVCRT:MSVCR110.dll
 0001:000887e6       __vswprintf                100897e6 f   MSVCRT:MSVCR110.dll
 0001:000887ec       @__security_check_cookie@4 100897ec f   MSVCRT:secchk.obj
 0001:000887fc       __CxxThrowException@8      100897fc f   MSVCRT:MSVCR110.dll
 0001:00088802       ___CxxFrameHandler3        10089802 f   MSVCRT:MSVCR110.dll
 0001:00088810       __chkstk                   10089810 f   MSVCRT:chkstk.obj
 0001:00088810       __alloca_probe             10089810     MSVCRT:chkstk.obj
 0001:0008883c       _memcpy                    1008983c f   MSVCRT:MSVCR110.dll
 0001:00088842       _memset                    10089842 f   MSVCRT:MSVCR110.dll
 0001:00088848       ??0type_info@@AAE@ABV0@@Z  10089848 f   MSVCRT:ti_inst.obj
 0001:00088853       ??4type_info@@AAEAAV0@ABV0@@Z 10089853 f   MSVCRT:ti_inst.obj
 0001:00088858       ??_Etype_info@@UAEPAXI@Z   10089858 f i MSVCRT:ti_inst.obj
 0001:000888a2       _wcschr                    100898a2 f   MSVCRT:MSVCR110.dll
 0001:000888f4       _NtCurrentTeb              100898f4 f i MSVCRT:crtdll.obj
 0001:000888fb       __CRT_INIT@12              100898fb f   MSVCRT:crtdll.obj
 0001:00088af0       __DllMainCRTStartup@12     10089af0 f   MSVCRT:crtdll.obj
 0001:00088c46       ??_L@YGXPAXIHP6EX0@Z1@Z    10089c46 f   MSVCRT:ehvecctr.obj
 0001:00088cae       ??_M@YGXPAXIHP6EX0@Z@Z     10089cae f   MSVCRT:ehvecdtr.obj
 0001:00088d36       ?__ArrayUnwind@@YGXPAXIHP6EX0@Z@Z 10089d36 f   MSVCRT:ehvecdtr.obj
 0001:00088d94       _strlen                    10089d94 f   MSVCRT:MSVCR110.dll
 0001:00088d9a       ??_V@YAXPAX@Z              10089d9a f   MSVCRT:MSVCR110.dll
 0001:00088da0       _tolower                   10089da0 f   MSVCRT:MSVCR110.dll
 0001:00088da6       _wcslen                    10089da6 f   MSVCRT:MSVCR110.dll
 0001:00088dac       _wcsrchr                   10089dac f   MSVCRT:MSVCR110.dll
 0001:00088dc0       ___iob_func                10089dc0 f   MSVCRT:MSVCR110.dll
 0001:00088dc6       __wstat32                  10089dc6 f   MSVCRT:MSVCR110.dll
 0001:00088dcc       __wtoi                     10089dcc f   MSVCRT:MSVCR110.dll
 0001:00088dd2       __wtol                     10089dd2 f   MSVCRT:MSVCR110.dll
 0001:00088dd8       __wmakepath                10089dd8 f   MSVCRT:MSVCR110.dll
 0001:00088dde       __wsplitpath               10089dde f   MSVCRT:MSVCR110.dll
 0001:00088de4       _wcscmp                    10089de4 f   MSVCRT:MSVCR110.dll
 0001:00088dea       __fstat32                  10089dea f   MSVCRT:MSVCR110.dll
 0001:00088df0       __fileno                   10089df0 f   MSVCRT:MSVCR110.dll
 0001:00088df6       _mbtowc                    10089df6 f   MSVCRT:MSVCR110.dll
 0001:00088dfc       _wctomb                    10089dfc f   MSVCRT:MSVCR110.dll
 0001:00088e02       _strcat                    10089e02 f   MSVCRT:MSVCR110.dll
 0001:00088e08       __snwprintf                10089e08 f   MSVCRT:MSVCR110.dll
 0001:00088e0e       ?_set_se_translator@@YAP6AXIPAU_EXCEPTION_POINTERS@@@ZP6AXI0@Z@Z 10089e0e f   MSVCRT:MSVCR110.dll
 0001:00088e14       __getpid                   10089e14 f   MSVCRT:MSVCR110.dll
 0001:00088e1a       _iswalnum                  10089e1a f   MSVCRT:MSVCR110.dll
 0001:00088e20       _iswprint                  10089e20 f   MSVCRT:MSVCR110.dll
 0001:00088e26       _memcpy_s                  10089e26 f   MSVCRT:MSVCR110.dll
 0001:00088e2c       _wcsncmp                   10089e2c f   MSVCRT:MSVCR110.dll
 0001:00088e32       _wcsncpy                   10089e32 f   MSVCRT:MSVCR110.dll
 0001:00088e38       __wcsicmp                  10089e38 f   MSVCRT:MSVCR110.dll
 0001:00088e3e       __wcsnicmp                 10089e3e f   MSVCRT:MSVCR110.dll
 0001:00088e44       __wcslwr                   10089e44 f   MSVCRT:MSVCR110.dll
 0001:00088e4a       _fclose                    10089e4a f   MSVCRT:MSVCR110.dll
 0001:00088e50       _fflush                    10089e50 f   MSVCRT:MSVCR110.dll
 0001:00088e56       _fgetc                     10089e56 f   MSVCRT:MSVCR110.dll
 0001:00088e5c       _fgetpos                   10089e5c f   MSVCRT:MSVCR110.dll
 0001:00088e62       _fputc                     10089e62 f   MSVCRT:MSVCR110.dll
 0001:00088e68       _fsetpos                   10089e68 f   MSVCRT:MSVCR110.dll
 0001:00088e6e       __fseeki64                 10089e6e f   MSVCRT:MSVCR110.dll
 0001:00088e74       _fwrite                    10089e74 f   MSVCRT:MSVCR110.dll
 0001:00088e7a       _setvbuf                   10089e7a f   MSVCRT:MSVCR110.dll
 0001:00088e80       _ungetc                    10089e80 f   MSVCRT:MSVCR110.dll
 0001:00088e86       _fgetwc                    10089e86 f   MSVCRT:MSVCR110.dll
 0001:00088e8c       _fputwc                    10089e8c f   MSVCRT:MSVCR110.dll
 0001:00088e92       _ungetwc                   10089e92 f   MSVCRT:MSVCR110.dll
 0001:00088e98       __lock_file                10089e98 f   MSVCRT:MSVCR110.dll
 0001:00088e9e       __unlock_file              10089e9e f   MSVCRT:MSVCR110.dll
 0001:00088ea4       ??0bad_cast@std@@QAE@PBD@Z 10089ea4 f   MSVCRT:MSVCR110.dll
 0001:00088eaa       ??0bad_cast@std@@QAE@ABV01@@Z 10089eaa f   MSVCRT:MSVCR110.dll
 0001:00088eb0       ??0exception@std@@QAE@ABV01@@Z 10089eb0 f   MSVCRT:MSVCR110.dll
 0001:00088eb6       ??1bad_cast@std@@UAE@XZ    10089eb6 f   MSVCRT:MSVCR110.dll
 0001:00088ec0       __alldiv                   10089ec0 f   MSVCRT:lldiv.obj
 0001:00088f70       __allmul                   10089f70 f   MSVCRT:llmul.obj
 0001:00088fb0       __allshr                   10089fb0 f   MSVCRT:llshr.obj
 0001:00088fd1       ___raise_securityfailure   10089fd1 f   MSVCRT:gs_report.obj
 0001:0008900e       ___report_gsfailure        1008a00e f   MSVCRT:gs_report.obj
 0001:00089107       ___report_rangecheckfailure 1008a107 f   MSVCRT:gs_report.obj
 0001:00089113       ___report_securityfailure  1008a113 f   MSVCRT:gs_report.obj
 0001:000891e1       ___report_securityfailureEx 1008a1e1 f   MSVCRT:gs_report.obj
 0001:000892f6       _wcstok                    1008a2f6 f   MSVCRT:MSVCR110.dll
 0001:000892fc       __errno                    1008a2fc f   MSVCRT:MSVCR110.dll
 0001:00089302       __splitpath                1008a302 f   MSVCRT:MSVCR110.dll
 0001:00089308       __getdcwd                  1008a308 f   MSVCRT:MSVCR110.dll
 0001:0008930e       __chdir                    1008a30e f   MSVCRT:MSVCR110.dll
 0001:00089314       __wgetdcwd                 1008a314 f   MSVCRT:MSVCR110.dll
 0001:0008931a       __wchdir                   1008a31a f   MSVCRT:MSVCR110.dll
 0001:00089320       __wmkdir                   1008a320 f   MSVCRT:MSVCR110.dll
 0001:00089326       __wrmdir                   1008a326 f   MSVCRT:MSVCR110.dll
 0001:0008932c       __findclose                1008a32c f   MSVCRT:MSVCR110.dll
 0001:00089332       __wfindfirst64i32          1008a332 f   MSVCRT:MSVCR110.dll
 0001:00089338       __wfindnext64i32           1008a338 f   MSVCRT:MSVCR110.dll
 0001:0008933e       __wremove                  1008a33e f   MSVCRT:MSVCR110.dll
 0001:00089350       __alldvrm                  1008a350 f   MSVCRT:lldvrm.obj
 0001:00089430       __allrem                   1008a430 f   MSVCRT:llrem.obj
 0001:000894e2       _strftime                  1008a4e2 f   MSVCRT:MSVCR110.dll
 0001:000894e8       __localtime64              1008a4e8 f   MSVCRT:MSVCR110.dll
 0001:000894ee       _malloc                    1008a4ee f   MSVCRT:MSVCR110.dll
 0001:000894f4       _wcstol                    1008a4f4 f   MSVCRT:MSVCR110.dll
 0001:000894fa       __stricmp                  1008a4fa f   MSVCRT:MSVCR110.dll
 0001:00089500       _strcspn                   1008a500 f   MSVCRT:MSVCR110.dll
 0001:00089506       __wcsupr                   1008a506 f   MSVCRT:MSVCR110.dll
 0001:0008950c       _mbstowcs                  1008a50c f   MSVCRT:MSVCR110.dll
 0001:00089512       _rand                      1008a512 f   MSVCRT:MSVCR110.dll
 0001:00089518       _srand                     1008a518 f   MSVCRT:MSVCR110.dll
 0001:0008951e       _wcstombs                  1008a51e f   MSVCRT:MSVCR110.dll
 0001:00089524       _iswalpha                  1008a524 f   MSVCRT:MSVCR110.dll
 0001:0008952a       _iswdigit                  1008a52a f   MSVCRT:MSVCR110.dll
 0001:00089530       __memicmp                  1008a530 f   MSVCRT:MSVCR110.dll
 0001:00089540       __alloca_probe_16          1008a540 f   MSVCRT:alloca16.obj
 0001:00089556       __alloca_probe_8           1008a556     MSVCRT:alloca16.obj
 0001:0008956c       __except_handler4          1008a56c f   MSVCRT:chandler4gs.obj
 0001:00089590       __lock                     1008a590 f   MSVCRT:MSVCR110.dll
 0001:00089596       __unlock                   1008a596 f   MSVCRT:MSVCR110.dll
 0001:0008959c       __calloc_crt               1008a59c f   MSVCRT:MSVCR110.dll
 0001:000895a2       ___dllonexit               1008a5a2 f   MSVCRT:MSVCR110.dll
 0001:000895b0       __SEH_prolog4              1008a5b0 f   MSVCRT:sehprolg4.obj
 0001:000895f5       __SEH_epilog4              1008a5f5 f   MSVCRT:sehprolg4.obj
 0001:0008960a       ??1type_info@@UAE@XZ       1008a60a f   MSVCRT:MSVCR110.dll
 0001:00089610       ___CppXcptFilter           1008a610 f   MSVCRT:MSVCR110.dll
 0001:00089616       __amsg_exit                1008a616 f   MSVCRT:MSVCR110.dll
 0001:00089620       __FindPESection            1008a620 f   MSVCRT:pesect.obj
 0001:00089670       __IsNonwritableInCurrentImage 1008a670 f   MSVCRT:pesect.obj
 0001:00089730       __ValidateImageBase        1008a730 f   MSVCRT:pesect.obj
 0001:00089761       ___security_init_cookie    1008a761 f   MSVCRT:gs_support.obj
 0001:000897fb       _DllMain@12                1008a7fb f   MSVCRT:dllmain.obj
 0001:0008981e       __malloc_crt               1008a81e f   MSVCRT:MSVCR110.dll
 0001:00089824       __RTC_Initialize           1008a824 f   MSVCRT:initsect.obj
 0001:00089844       __RTC_Terminate            1008a844 f   MSVCRT:initsect.obj
 0001:00089864       __initterm                 1008a864 f   MSVCRT:MSVCR110.dll
 0001:0008986a       __initterm_e               1008a86a f   MSVCRT:MSVCR110.dll
 0001:00089870       ___clean_type_info_names   1008a870 f   MSVCRT:tncleanup.obj
 0001:0008987c       ?terminate@@YAXXZ          1008a87c f   MSVCRT:MSVCR110.dll
 0001:00089882       __crt_debugger_hook        1008a882 f   MSVCRT:MSVCR110.dll
 0001:00089888       ___crtUnhandledException   1008a888 f   MSVCRT:MSVCR110.dll
 0001:0008988e       ___crtTerminateProcess     1008a88e f   MSVCRT:MSVCR110.dll
 0001:00089894       __except_handler4_common   1008a894 f   MSVCRT:MSVCR110.dll
 0001:0008989a       ___clean_type_info_names_internal 1008a89a f   MSVCRT:MSVCR110.dll
 0001:000898a0       _inet_ntoa@4               1008a8a0 f   ws2_32:WS2_32.dll
 0001:000898a6       _gethostbyaddr@12          1008a8a6 f   ws2_32:WS2_32.dll
 0001:000898ac       _gethostbyname@4           1008a8ac f   ws2_32:WS2_32.dll
 0001:000898b2       _WSAStartup@8              1008a8b2 f   ws2_32:WS2_32.dll
 0001:000898b8       _WSACleanup@0              1008a8b8 f   ws2_32:WS2_32.dll
 0001:000898be       _WSAGetLastError@0         1008a8be f   ws2_32:WS2_32.dll
 0001:000898c4       _SymSetOptions@4           1008a8c4 f   dbghelp:dbghelp.dll
 0001:000898ca       _SymGetOptions@0           1008a8ca f   dbghelp:dbghelp.dll
 0001:000898d0       _SymGetModuleInfo@12       1008a8d0 f   dbghelp:dbghelp.dll
 0001:000898d6       _SymGetLineFromAddr@16     1008a8d6 f   dbghelp:dbghelp.dll
 0001:000898dc       _SymInitialize@12          1008a8dc f   dbghelp:dbghelp.dll
 0001:000898e2       _SymGetSearchPath@12       1008a8e2 f   dbghelp:dbghelp.dll
 0001:000898e8       _SymSetSearchPath@8        1008a8e8 f   dbghelp:dbghelp.dll
 0001:000898ee       _SymGetSymFromAddr@16      1008a8ee f   dbghelp:dbghelp.dll
 0001:000898f4       _GetFileVersionInfoSizeW@8 1008a8f4 f   version:VERSION.dll
 0001:000898fa       _GetFileVersionInfoW@16    1008a8fa f   version:VERSION.dll
 0001:00089900       _VerQueryValueW@16         1008a900 f   version:VERSION.dll
 0001:00089906       _GetComputerNameExW@12     1008a906 f   kernel32:KERNEL32.dll
 0001:0008990c       _ReadFile@20               1008a90c f   kernel32:KERNEL32.dll
 0001:00089912       _SetEndOfFile@4            1008a912 f   kernel32:KERNEL32.dll
 0001:00089918       _SetFilePointer@16         1008a918 f   kernel32:KERNEL32.dll
 0001:0008991e       _WriteFile@20              1008a91e f   kernel32:KERNEL32.dll
 0001:00089924       _GetSystemTime@4           1008a924 f   kernel32:KERNEL32.dll
 0001:0008992a       _lstrlenA@4                1008a92a f   kernel32:KERNEL32.dll
 0001:00089930       _EncodePointer@4           1008a930 f   kernel32:KERNEL32.dll
 0001:00089936       _DecodePointer@4           1008a936 f   kernel32:KERNEL32.dll
 0001:0008993c       _IsDebuggerPresent@0       1008a93c f   kernel32:KERNEL32.dll
 0001:00089942       _IsProcessorFeaturePresent@4 1008a942 f   kernel32:KERNEL32.dll
 0001:00089948       _QueryPerformanceCounter@4 1008a948 f   kernel32:KERNEL32.dll
 0001:0008994e       _DisableThreadLibraryCalls@4 1008a94e f   kernel32:KERNEL32.dll
 0001:00089954       _GetErrorInfo@8            1008a954 f   oleaut32:OLEAUT32.dll
 0001:0008995a       _SetErrorInfo@8            1008a95a f   oleaut32:OLEAUT32.dll
 0001:00089960       _CreateErrorInfo@4         1008a960 f   oleaut32:OLEAUT32.dll
 0002:00000000       __imp__RegCreateKeyW@12    100ab000     advapi32:ADVAPI32.dll
 0002:00000004       __imp__RegSetValueExW@24   100ab004     advapi32:ADVAPI32.dll
 0002:00000008       __imp__RegOpenKeyExW@20    100ab008     advapi32:ADVAPI32.dll
 0002:0000000c       __imp__RegEnumKeyW@16      100ab00c     advapi32:ADVAPI32.dll
 0002:00000010       __imp__RegDeleteKeyW@8     100ab010     advapi32:ADVAPI32.dll
 0002:00000014       __imp__RegCreateKeyExW@36  100ab014     advapi32:ADVAPI32.dll
 0002:00000018       __imp__RegConnectRegistryW@12 100ab018     advapi32:ADVAPI32.dll
 0002:0000001c       __imp__RegCloseKey@4       100ab01c     advapi32:ADVAPI32.dll
 0002:00000020       __imp__LookupPrivilegeValueW@12 100ab020     advapi32:ADVAPI32.dll
 0002:00000024       __imp__ReportEventW@36     100ab024     advapi32:ADVAPI32.dll
 0002:00000028       __imp__ReadEventLogW@28    100ab028     advapi32:ADVAPI32.dll
 0002:0000002c       __imp__OpenBackupEventLogW@8 100ab02c     advapi32:ADVAPI32.dll
 0002:00000030       __imp__RegisterEventSourceW@8 100ab030     advapi32:ADVAPI32.dll
 0002:00000034       __imp__OpenEventLogW@8     100ab034     advapi32:ADVAPI32.dll
 0002:00000038       __imp__GetOldestEventLogRecord@8 100ab038     advapi32:ADVAPI32.dll
 0002:0000003c       __imp__GetNumberOfEventLogRecords@8 100ab03c     advapi32:ADVAPI32.dll
 0002:00000040       __imp__NotifyChangeEventLog@8 100ab040     advapi32:ADVAPI32.dll
 0002:00000044       __imp__DeregisterEventSource@4 100ab044     advapi32:ADVAPI32.dll
 0002:00000048       __imp__CloseEventLog@4     100ab048     advapi32:ADVAPI32.dll
 0002:0000004c       __imp__BackupEventLogW@8   100ab04c     advapi32:ADVAPI32.dll
 0002:00000050       __imp__ClearEventLogW@8    100ab050     advapi32:ADVAPI32.dll
 0002:00000054       __imp__AdjustTokenPrivileges@24 100ab054     advapi32:ADVAPI32.dll
 0002:00000058       __imp__OpenProcessToken@12 100ab058     advapi32:ADVAPI32.dll
 0002:0000005c       __imp__SetSecurityDescriptorDacl@16 100ab05c     advapi32:ADVAPI32.dll
 0002:00000060       __imp__InitializeSecurityDescriptor@8 100ab060     advapi32:ADVAPI32.dll
 0002:00000064       __imp__RegOpenKeyW@12      100ab064     advapi32:ADVAPI32.dll
 0002:00000068       \177ADVAPI32_NULL_THUNK_DATA 100ab068     advapi32:ADVAPI32.dll
 0002:0000006c       __imp__InitializeCriticalSectionAndSpinCount@8 100ab06c     kernel32:KERNEL32.dll
 0002:00000070       __imp__IsBadReadPtr@8      100ab070     kernel32:KERNEL32.dll
 0002:00000074       __imp__CompareFileTime@8   100ab074     kernel32:KERNEL32.dll
 0002:00000078       __imp__CreateFileW@28      100ab078     kernel32:KERNEL32.dll
 0002:0000007c       __imp__DeleteFileW@4       100ab07c     kernel32:KERNEL32.dll
 0002:00000080       __imp__GetFileTime@16      100ab080     kernel32:KERNEL32.dll
 0002:00000084       __imp__GetTempPathW@8      100ab084     kernel32:KERNEL32.dll
 0002:00000088       __imp__GetCurrentThreadId@0 100ab088     kernel32:KERNEL32.dll
 0002:0000008c       __imp__CopyFileW@12        100ab08c     kernel32:KERNEL32.dll
 0002:00000090       __imp__MoveFileW@8         100ab090     kernel32:KERNEL32.dll
 0002:00000094       __imp__lstrlenW@4          100ab094     kernel32:KERNEL32.dll
 0002:00000098       __imp__GetSystemTimeAsFileTime@4 100ab098     kernel32:KERNEL32.dll
 0002:0000009c       __imp__SystemTimeToTzSpecificLocalTime@12 100ab09c     kernel32:KERNEL32.dll
 0002:000000a0       __imp__FileTimeToSystemTime@8 100ab0a0     kernel32:KERNEL32.dll
 0002:000000a4       __imp__SystemTimeToFileTime@8 100ab0a4     kernel32:KERNEL32.dll
 0002:000000a8       __imp__LeaveCriticalSection@4 100ab0a8     kernel32:KERNEL32.dll
 0002:000000ac       __imp__InitializeCriticalSection@4 100ab0ac     kernel32:KERNEL32.dll
 0002:000000b0       __imp__DeleteCriticalSection@4 100ab0b0     kernel32:KERNEL32.dll
 0002:000000b4       __imp__GetThreadId@4       100ab0b4     kernel32:KERNEL32.dll
 0002:000000b8       __imp__CopyFileA@12        100ab0b8     kernel32:KERNEL32.dll
 0002:000000bc       __imp__MoveFileExA@12      100ab0bc     kernel32:KERNEL32.dll
 0002:000000c0       __imp__MoveFileExW@12      100ab0c0     kernel32:KERNEL32.dll
 0002:000000c4       __imp__VirtualAlloc@16     100ab0c4     kernel32:KERNEL32.dll
 0002:000000c8       __imp__VirtualFree@12      100ab0c8     kernel32:KERNEL32.dll
 0002:000000cc       __imp__lstrcpyW@8          100ab0cc     kernel32:KERNEL32.dll
 0002:000000d0       __imp__lstrcatW@8          100ab0d0     kernel32:KERNEL32.dll
 0002:000000d4       __imp__GetUserDefaultLangID@0 100ab0d4     kernel32:KERNEL32.dll
 0002:000000d8       __imp__DisableThreadLibraryCalls@4 100ab0d8     kernel32:KERNEL32.dll
 0002:000000dc       __imp__QueryPerformanceCounter@4 100ab0dc     kernel32:KERNEL32.dll
 0002:000000e0       __imp__IsProcessorFeaturePresent@4 100ab0e0     kernel32:KERNEL32.dll
 0002:000000e4       __imp__EnterCriticalSection@4 100ab0e4     kernel32:KERNEL32.dll
 0002:000000e8       __imp__DuplicateHandle@28  100ab0e8     kernel32:KERNEL32.dll
 0002:000000ec       __imp__WideCharToMultiByte@32 100ab0ec     kernel32:KERNEL32.dll
 0002:000000f0       __imp__MultiByteToWideChar@24 100ab0f0     kernel32:KERNEL32.dll
 0002:000000f4       __imp__FormatMessageW@28   100ab0f4     kernel32:KERNEL32.dll
 0002:000000f8       __imp__LocalFree@4         100ab0f8     kernel32:KERNEL32.dll
 0002:000000fc       __imp__GetModuleFileNameW@12 100ab0fc     kernel32:KERNEL32.dll
 0002:00000100       __imp__Sleep@4             100ab100     kernel32:KERNEL32.dll
 0002:00000104       __imp__InterlockedIncrement@4 100ab104     kernel32:KERNEL32.dll
 0002:00000108       __imp__InterlockedDecrement@4 100ab108     kernel32:KERNEL32.dll
 0002:0000010c       __imp__CreateFileMappingW@24 100ab10c     kernel32:KERNEL32.dll
 0002:00000110       __imp__GetCurrentProcessId@0 100ab110     kernel32:KERNEL32.dll
 0002:00000114       __imp__OpenSemaphoreW@12   100ab114     kernel32:KERNEL32.dll
 0002:00000118       __imp__ReleaseSemaphore@12 100ab118     kernel32:KERNEL32.dll
 0002:0000011c       __imp__CreateSemaphoreW@16 100ab11c     kernel32:KERNEL32.dll
 0002:00000120       __imp__UnmapViewOfFile@4   100ab120     kernel32:KERNEL32.dll
 0002:00000124       __imp__MapViewOfFile@20    100ab124     kernel32:KERNEL32.dll
 0002:00000128       __imp__OpenFileMappingW@12 100ab128     kernel32:KERNEL32.dll
 0002:0000012c       __imp__GetCurrentProcess@0 100ab12c     kernel32:KERNEL32.dll
 0002:00000130       __imp__OpenMutexW@12       100ab130     kernel32:KERNEL32.dll
 0002:00000134       __imp__CreateMutexW@12     100ab134     kernel32:KERNEL32.dll
 0002:00000138       __imp__WaitForSingleObject@8 100ab138     kernel32:KERNEL32.dll
 0002:0000013c       __imp__ReleaseMutex@4      100ab13c     kernel32:KERNEL32.dll
 0002:00000140       __imp__InitializeCriticalSectionEx@12 100ab140     kernel32:KERNEL32.dll
 0002:00000144       __imp__GetLastError@0      100ab144     kernel32:KERNEL32.dll
 0002:00000148       __imp__GetTimeZoneInformation@4 100ab148     kernel32:KERNEL32.dll
 0002:0000014c       __imp__CloseHandle@4       100ab14c     kernel32:KERNEL32.dll
 0002:00000150       __imp__IsDebuggerPresent@0 100ab150     kernel32:KERNEL32.dll
 0002:00000154       __imp__DecodePointer@4     100ab154     kernel32:KERNEL32.dll
 0002:00000158       __imp__EncodePointer@4     100ab158     kernel32:KERNEL32.dll
 0002:0000015c       __imp__lstrlenA@4          100ab15c     kernel32:KERNEL32.dll
 0002:00000160       __imp__GetSystemTime@4     100ab160     kernel32:KERNEL32.dll
 0002:00000164       __imp__WriteFile@20        100ab164     kernel32:KERNEL32.dll
 0002:00000168       __imp__SetFilePointer@16   100ab168     kernel32:KERNEL32.dll
 0002:0000016c       __imp__SetEndOfFile@4      100ab16c     kernel32:KERNEL32.dll
 0002:00000170       __imp__ReadFile@20         100ab170     kernel32:KERNEL32.dll
 0002:00000174       __imp__GetComputerNameExW@12 100ab174     kernel32:KERNEL32.dll
 0002:00000178       \177KERNEL32_NULL_THUNK_DATA 100ab178     kernel32:KERNEL32.dll
 0002:0000017c       __imp_??6?$basic_ostream@_WU?$char_traits@_W@std@@@std@@QAEAAV01@_J@Z 100ab17c     msvcprt:MSVCP110.dll
 0002:00000180       __imp_?_Xbad_alloc@std@@YAXXZ 100ab180     msvcprt:MSVCP110.dll
 0002:00000184       __imp_?_Xlength_error@std@@YAXPBD@Z 100ab184     msvcprt:MSVCP110.dll
 0002:00000188       __imp_?_Xout_of_range@std@@YAXPBD@Z 100ab188     msvcprt:MSVCP110.dll
 0002:0000018c       __imp_?_Syserror_map@std@@YAPBDH@Z 100ab18c     msvcprt:MSVCP110.dll
 0002:00000190       __imp_?_Winerror_map@std@@YAPBDH@Z 100ab190     msvcprt:MSVCP110.dll
 0002:00000194       __imp_??0id@locale@std@@QAE@I@Z 100ab194     msvcprt:MSVCP110.dll
 0002:00000198       __imp_?uncaught_exception@std@@YA_NXZ 100ab198     msvcprt:MSVCP110.dll
 0002:0000019c       __imp_?good@ios_base@std@@QBE_NXZ 100ab19c     msvcprt:MSVCP110.dll
 0002:000001a0       __imp_?flags@ios_base@std@@QBEHXZ 100ab1a0     msvcprt:MSVCP110.dll
 0002:000001a4       __imp_?width@ios_base@std@@QBE_JXZ 100ab1a4     msvcprt:MSVCP110.dll
 0002:000001a8       __imp_?width@ios_base@std@@QAE_J_J@Z 100ab1a8     msvcprt:MSVCP110.dll
 0002:000001ac       __imp_?sputc@?$basic_streambuf@_WU?$char_traits@_W@std@@@std@@QAEG_W@Z 100ab1ac     msvcprt:MSVCP110.dll
 0002:000001b0       __imp_?sputn@?$basic_streambuf@_WU?$char_traits@_W@std@@@std@@QAE_JPB_W_J@Z 100ab1b0     msvcprt:MSVCP110.dll
 0002:000001b4       __imp_?setstate@?$basic_ios@_WU?$char_traits@_W@std@@@std@@QAEXH_N@Z 100ab1b4     msvcprt:MSVCP110.dll
 0002:000001b8       __imp_?tie@?$basic_ios@_WU?$char_traits@_W@std@@@std@@QBEPAV?$basic_ostream@_WU?$char_traits@_W@std@@@2@XZ 100ab1b8     msvcprt:MSVCP110.dll
 0002:000001bc       __imp_?rdbuf@?$basic_ios@_WU?$char_traits@_W@std@@@std@@QBEPAV?$basic_streambuf@_WU?$char_traits@_W@std@@@2@XZ 100ab1bc     msvcprt:MSVCP110.dll
 0002:000001c0       __imp_?fill@?$basic_ios@_WU?$char_traits@_W@std@@@std@@QBE_WXZ 100ab1c0     msvcprt:MSVCP110.dll
 0002:000001c4       __imp_?_Osfx@?$basic_ostream@_WU?$char_traits@_W@std@@@std@@QAEXXZ 100ab1c4     msvcprt:MSVCP110.dll
 0002:000001c8       __imp_??6?$basic_ostream@_WU?$char_traits@_W@std@@@std@@QAEAAV01@P6AAAV01@AAV01@@Z@Z 100ab1c8     msvcprt:MSVCP110.dll
 0002:000001cc       __imp_?flush@?$basic_ostream@_WU?$char_traits@_W@std@@@std@@QAEAAV12@XZ 100ab1cc     msvcprt:MSVCP110.dll
 0002:000001d0       __imp_?flush@std@@YAAAV?$basic_ostream@_WU?$char_traits@_W@std@@@1@AAV21@@Z 100ab1d0     msvcprt:MSVCP110.dll
 0002:000001d4       __imp_?wcout@std@@3V?$basic_ostream@_WU?$char_traits@_W@std@@@1@A 100ab1d4     msvcprt:MSVCP110.dll
 0002:000001d8       __imp_?wcerr@std@@3V?$basic_ostream@_WU?$char_traits@_W@std@@@1@A 100ab1d8     msvcprt:MSVCP110.dll
 0002:000001dc       __imp_?sputc@?$basic_streambuf@DU?$char_traits@D@std@@@std@@QAEHD@Z 100ab1dc     msvcprt:MSVCP110.dll
 0002:000001e0       __imp_?setstate@?$basic_ios@DU?$char_traits@D@std@@@std@@QAEXH_N@Z 100ab1e0     msvcprt:MSVCP110.dll
 0002:000001e4       __imp_?_Osfx@?$basic_ostream@DU?$char_traits@D@std@@@std@@QAEXXZ 100ab1e4     msvcprt:MSVCP110.dll
 0002:000001e8       __imp_?flush@?$basic_ostream@DU?$char_traits@D@std@@@std@@QAEAAV12@XZ 100ab1e8     msvcprt:MSVCP110.dll
 0002:000001ec       __imp_??6?$basic_ostream@DU?$char_traits@D@std@@@std@@QAEAAV01@P6AAAV01@AAV01@@Z@Z 100ab1ec     msvcprt:MSVCP110.dll
 0002:000001f0       __imp_?endl@std@@YAAAV?$basic_ostream@DU?$char_traits@D@std@@@1@AAV21@@Z 100ab1f0     msvcprt:MSVCP110.dll
 0002:000001f4       __imp_?cout@std@@3V?$basic_ostream@DU?$char_traits@D@std@@@1@A 100ab1f4     msvcprt:MSVCP110.dll
 0002:000001f8       __imp_??0_Lockit@std@@QAE@H@Z 100ab1f8     msvcprt:MSVCP110.dll
 0002:000001fc       __imp_??1_Lockit@std@@QAE@XZ 100ab1fc     msvcprt:MSVCP110.dll
 0002:00000200       __imp_??Bid@locale@std@@QAEIXZ 100ab200     msvcprt:MSVCP110.dll
 0002:00000204       __imp_?_Getgloballocale@locale@std@@CAPAV_Locimp@12@XZ 100ab204     msvcprt:MSVCP110.dll
 0002:00000208       __imp_?always_noconv@codecvt_base@std@@QBE_NXZ 100ab208     msvcprt:MSVCP110.dll
 0002:0000020c       __imp_?in@?$codecvt@_WDH@std@@QBEHAAHPBD1AAPBDPA_W3AAPA_W@Z 100ab20c     msvcprt:MSVCP110.dll
 0002:00000210       __imp_?out@?$codecvt@_WDH@std@@QBEHAAHPB_W1AAPB_WPAD3AAPAD@Z 100ab210     msvcprt:MSVCP110.dll
 0002:00000214       __imp_?unshift@?$codecvt@_WDH@std@@QBEHAAHPAD1AAPAD@Z 100ab214     msvcprt:MSVCP110.dll
 0002:00000218       __imp_?_Getcat@?$codecvt@_WDH@std@@SAIPAPBVfacet@locale@2@PBV42@@Z 100ab218     msvcprt:MSVCP110.dll
 0002:0000021c       __imp_?widen@?$ctype@_W@std@@QBE_WD@Z 100ab21c     msvcprt:MSVCP110.dll
 0002:00000220       __imp_?_Getcat@?$ctype@_W@std@@SAIPAPBVfacet@locale@2@PBV42@@Z 100ab220     msvcprt:MSVCP110.dll
 0002:00000224       __imp_?in@?$codecvt@DDH@std@@QBEHAAHPBD1AAPBDPAD3AAPAD@Z 100ab224     msvcprt:MSVCP110.dll
 0002:00000228       __imp_?out@?$codecvt@DDH@std@@QBEHAAHPBD1AAPBDPAD3AAPAD@Z 100ab228     msvcprt:MSVCP110.dll
 0002:0000022c       __imp_?unshift@?$codecvt@DDH@std@@QBEHAAHPAD1AAPAD@Z 100ab22c     msvcprt:MSVCP110.dll
 0002:00000230       __imp_?_Getcat@?$codecvt@DDH@std@@SAIPAPBVfacet@locale@2@PBV42@@Z 100ab230     msvcprt:MSVCP110.dll
 0002:00000234       __imp_?getloc@ios_base@std@@QBE?AVlocale@2@XZ 100ab234     msvcprt:MSVCP110.dll
 0002:00000238       __imp_??1ios_base@std@@UAE@XZ 100ab238     msvcprt:MSVCP110.dll
 0002:0000023c       __imp_?_Ios_base_dtor@ios_base@std@@CAXPAV12@@Z 100ab23c     msvcprt:MSVCP110.dll
 0002:00000240       __imp_??0?$basic_streambuf@DU?$char_traits@D@std@@@std@@IAE@XZ 100ab240     msvcprt:MSVCP110.dll
 0002:00000244       __imp_??1?$basic_streambuf@DU?$char_traits@D@std@@@std@@UAE@XZ 100ab244     msvcprt:MSVCP110.dll
 0002:00000248       __imp_?getloc@?$basic_streambuf@DU?$char_traits@D@std@@@std@@QBE?AVlocale@2@XZ 100ab248     msvcprt:MSVCP110.dll
 0002:0000024c       __imp_?setg@?$basic_streambuf@DU?$char_traits@D@std@@@std@@IAEXPAD00@Z 100ab24c     msvcprt:MSVCP110.dll
 0002:00000250       __imp_?_Gninc@?$basic_streambuf@DU?$char_traits@D@std@@@std@@IAEPADXZ 100ab250     msvcprt:MSVCP110.dll
 0002:00000254       __imp_?_Pninc@?$basic_streambuf@DU?$char_traits@D@std@@@std@@IAEPADXZ 100ab254     msvcprt:MSVCP110.dll
 0002:00000258       __imp_?_Init@?$basic_streambuf@DU?$char_traits@D@std@@@std@@IAEXXZ 100ab258     msvcprt:MSVCP110.dll
 0002:0000025c       __imp_??0?$basic_streambuf@_WU?$char_traits@_W@std@@@std@@IAE@XZ 100ab25c     msvcprt:MSVCP110.dll
 0002:00000260       __imp_??1?$basic_streambuf@_WU?$char_traits@_W@std@@@std@@UAE@XZ 100ab260     msvcprt:MSVCP110.dll
 0002:00000264       __imp_?getloc@?$basic_streambuf@_WU?$char_traits@_W@std@@@std@@QBE?AVlocale@2@XZ 100ab264     msvcprt:MSVCP110.dll
 0002:00000268       __imp_?setg@?$basic_streambuf@_WU?$char_traits@_W@std@@@std@@IAEXPA_W00@Z 100ab268     msvcprt:MSVCP110.dll
 0002:0000026c       __imp_?_Gninc@?$basic_streambuf@_WU?$char_traits@_W@std@@@std@@IAEPA_WXZ 100ab26c     msvcprt:MSVCP110.dll
 0002:00000270       __imp_?_Pninc@?$basic_streambuf@_WU?$char_traits@_W@std@@@std@@IAEPA_WXZ 100ab270     msvcprt:MSVCP110.dll
 0002:00000274       __imp_?_Init@?$basic_streambuf@_WU?$char_traits@_W@std@@@std@@IAEXXZ 100ab274     msvcprt:MSVCP110.dll
 0002:00000278       __imp_??1?$basic_ios@DU?$char_traits@D@std@@@std@@UAE@XZ 100ab278     msvcprt:MSVCP110.dll
 0002:0000027c       __imp_??1?$basic_ios@_WU?$char_traits@_W@std@@@std@@UAE@XZ 100ab27c     msvcprt:MSVCP110.dll
 0002:00000280       __imp_?clear@?$basic_ios@_WU?$char_traits@_W@std@@@std@@QAEXH_N@Z 100ab280     msvcprt:MSVCP110.dll
 0002:00000284       __imp_??0?$basic_ostream@DU?$char_traits@D@std@@@std@@QAE@PAV?$basic_streambuf@DU?$char_traits@D@std@@@1@_N@Z 100ab284     msvcprt:MSVCP110.dll
 0002:00000288       __imp_??1?$basic_ostream@DU?$char_traits@D@std@@@std@@UAE@XZ 100ab288     msvcprt:MSVCP110.dll
 0002:0000028c       __imp_?_Add_vtordisp2@?$basic_ostream@DU?$char_traits@D@std@@@std@@UAEXXZ 100ab28c     msvcprt:MSVCP110.dll
 0002:00000290       __imp_??0?$basic_ostream@_WU?$char_traits@_W@std@@@std@@QAE@PAV?$basic_streambuf@_WU?$char_traits@_W@std@@@1@_N@Z 100ab290     msvcprt:MSVCP110.dll
 0002:00000294       __imp_??1?$basic_ostream@_WU?$char_traits@_W@std@@@std@@UAE@XZ 100ab294     msvcprt:MSVCP110.dll
 0002:00000298       __imp_?_Add_vtordisp2@?$basic_ostream@_WU?$char_traits@_W@std@@@std@@UAEXXZ 100ab298     msvcprt:MSVCP110.dll
 0002:0000029c       __imp_??6?$basic_ostream@_WU?$char_traits@_W@std@@@std@@QAEAAV01@_N@Z 100ab29c     msvcprt:MSVCP110.dll
 0002:000002a0       __imp_??6?$basic_ostream@_WU?$char_traits@_W@std@@@std@@QAEAAV01@F@Z 100ab2a0     msvcprt:MSVCP110.dll
 0002:000002a4       __imp_??6?$basic_ostream@_WU?$char_traits@_W@std@@@std@@QAEAAV01@G@Z 100ab2a4     msvcprt:MSVCP110.dll
 0002:000002a8       __imp_??6?$basic_ostream@_WU?$char_traits@_W@std@@@std@@QAEAAV01@H@Z 100ab2a8     msvcprt:MSVCP110.dll
 0002:000002ac       __imp_??6?$basic_ostream@_WU?$char_traits@_W@std@@@std@@QAEAAV01@I@Z 100ab2ac     msvcprt:MSVCP110.dll
 0002:000002b0       __imp_??6?$basic_ostream@_WU?$char_traits@_W@std@@@std@@QAEAAV01@J@Z 100ab2b0     msvcprt:MSVCP110.dll
 0002:000002b4       __imp_??6?$basic_ostream@_WU?$char_traits@_W@std@@@std@@QAEAAV01@K@Z 100ab2b4     msvcprt:MSVCP110.dll
 0002:000002b8       __imp_??6?$basic_ostream@_WU?$char_traits@_W@std@@@std@@QAEAAV01@M@Z 100ab2b8     msvcprt:MSVCP110.dll
 0002:000002bc       __imp_?tellp@?$basic_ostream@_WU?$char_traits@_W@std@@@std@@QAE?AV?$fpos@H@2@XZ 100ab2bc     msvcprt:MSVCP110.dll
 0002:000002c0       __imp_?endl@std@@YAAAV?$basic_ostream@_WU?$char_traits@_W@std@@@1@AAV21@@Z 100ab2c0     msvcprt:MSVCP110.dll
 0002:000002c4       __imp_?_Fiopen@std@@YAPAU_iobuf@@PBDHH@Z 100ab2c4     msvcprt:MSVCP110.dll
 0002:000002c8       __imp_?_Add_vtordisp1@?$basic_ios@DU?$char_traits@D@std@@@std@@UAEXXZ 100ab2c8     msvcprt:MSVCP110.dll
 0002:000002cc       __imp_?_Add_vtordisp1@?$basic_ios@_WU?$char_traits@_W@std@@@std@@UAEXXZ 100ab2cc     msvcprt:MSVCP110.dll
 0002:000002d0       __imp_?showmanyc@?$basic_streambuf@DU?$char_traits@D@std@@@std@@MAE_JXZ 100ab2d0     msvcprt:MSVCP110.dll
 0002:000002d4       __imp_?showmanyc@?$basic_streambuf@_WU?$char_traits@_W@std@@@std@@MAE_JXZ 100ab2d4     msvcprt:MSVCP110.dll
 0002:000002d8       __imp_?xsgetn@?$basic_streambuf@DU?$char_traits@D@std@@@std@@MAE_JPAD_J@Z 100ab2d8     msvcprt:MSVCP110.dll
 0002:000002dc       __imp_?xsgetn@?$basic_streambuf@_WU?$char_traits@_W@std@@@std@@MAE_JPA_W_J@Z 100ab2dc     msvcprt:MSVCP110.dll
 0002:000002e0       __imp_?xsputn@?$basic_streambuf@DU?$char_traits@D@std@@@std@@MAE_JPBD_J@Z 100ab2e0     msvcprt:MSVCP110.dll
 0002:000002e4       __imp_?xsputn@?$basic_streambuf@_WU?$char_traits@_W@std@@@std@@MAE_JPB_W_J@Z 100ab2e4     msvcprt:MSVCP110.dll
 0002:000002e8       __imp_?_BADOFF@std@@3_JB   100ab2e8     msvcprt:MSVCP110.dll
 0002:000002ec       __imp_?id@?$codecvt@_WDH@std@@2V0locale@2@A 100ab2ec     msvcprt:MSVCP110.dll
 0002:000002f0       __imp_?id@?$ctype@_W@std@@2V0locale@2@A 100ab2f0     msvcprt:MSVCP110.dll
 0002:000002f4       __imp_?id@?$codecvt@DDH@std@@2V0locale@2@A 100ab2f4     msvcprt:MSVCP110.dll
 0002:000002f8       __imp_??_7ios_base@std@@6B@ 100ab2f8     msvcprt:MSVCP110.dll
 0002:000002fc       __imp_??_7?$basic_ios@DU?$char_traits@D@std@@@std@@6B@ 100ab2fc     msvcprt:MSVCP110.dll
 0002:00000300       __imp_??_7?$basic_ios@_WU?$char_traits@_W@std@@@std@@6B@ 100ab300     msvcprt:MSVCP110.dll
 0002:00000304       \177MSVCP110_NULL_THUNK_DATA 100ab304     msvcprt:MSVCP110.dll
 0002:00000308       __imp___findclose          100ab308     MSVCRT:MSVCR110.dll
 0002:0000030c       __imp_??3@YAXPAX@Z         100ab30c     MSVCRT:MSVCR110.dll
 0002:00000310       __imp___purecall           100ab310     MSVCRT:MSVCR110.dll
 0002:00000314       __imp_??2@YAPAXI@Z         100ab314     MSVCRT:MSVCR110.dll
 0002:00000318       __imp__memmove             100ab318     MSVCRT:MSVCR110.dll
 0002:0000031c       __imp__calloc              100ab31c     MSVCRT:MSVCR110.dll
 0002:00000320       __imp__free                100ab320     MSVCRT:MSVCR110.dll
 0002:00000324       __imp___vsnprintf          100ab324     MSVCRT:MSVCR110.dll
 0002:00000328       __imp__sprintf             100ab328     MSVCRT:MSVCR110.dll
 0002:0000032c       __imp___vswprintf          100ab32c     MSVCRT:MSVCR110.dll
 0002:00000330       __imp___CxxThrowException@8 100ab330     MSVCRT:MSVCR110.dll
 0002:00000334       __imp____CxxFrameHandler3  100ab334     MSVCRT:MSVCR110.dll
 0002:00000338       __imp__memcpy              100ab338     MSVCRT:MSVCR110.dll
 0002:0000033c       __imp__memset              100ab33c     MSVCRT:MSVCR110.dll
 0002:00000340       __imp__wcschr              100ab340     MSVCRT:MSVCR110.dll
 0002:00000344       __imp__strlen              100ab344     MSVCRT:MSVCR110.dll
 0002:00000348       __imp_??_V@YAXPAX@Z        100ab348     MSVCRT:MSVCR110.dll
 0002:0000034c       __imp__tolower             100ab34c     MSVCRT:MSVCR110.dll
 0002:00000350       __imp__wcslen              100ab350     MSVCRT:MSVCR110.dll
 0002:00000354       __imp__wcsrchr             100ab354     MSVCRT:MSVCR110.dll
 0002:00000358       __imp____iob_func          100ab358     MSVCRT:MSVCR110.dll
 0002:0000035c       __imp___wstat32            100ab35c     MSVCRT:MSVCR110.dll
 0002:00000360       __imp___wtoi               100ab360     MSVCRT:MSVCR110.dll
 0002:00000364       __imp___wtol               100ab364     MSVCRT:MSVCR110.dll
 0002:00000368       __imp___wmakepath          100ab368     MSVCRT:MSVCR110.dll
 0002:0000036c       __imp___wsplitpath         100ab36c     MSVCRT:MSVCR110.dll
 0002:00000370       __imp__wcscmp              100ab370     MSVCRT:MSVCR110.dll
 0002:00000374       __imp___fstat32            100ab374     MSVCRT:MSVCR110.dll
 0002:00000378       __imp___fileno             100ab378     MSVCRT:MSVCR110.dll
 0002:0000037c       __imp__mbtowc              100ab37c     MSVCRT:MSVCR110.dll
 0002:00000380       __imp__wctomb              100ab380     MSVCRT:MSVCR110.dll
 0002:00000384       __imp__strcat              100ab384     MSVCRT:MSVCR110.dll
 0002:00000388       __imp___snwprintf          100ab388     MSVCRT:MSVCR110.dll
 0002:0000038c       __imp_?_set_se_translator@@YAP6AXIPAU_EXCEPTION_POINTERS@@@ZP6AXI0@Z@Z 100ab38c     MSVCRT:MSVCR110.dll
 0002:00000390       __imp___getpid             100ab390     MSVCRT:MSVCR110.dll
 0002:00000394       __imp__iswalnum            100ab394     MSVCRT:MSVCR110.dll
 0002:00000398       __imp__iswprint            100ab398     MSVCRT:MSVCR110.dll
 0002:0000039c       __imp__memcpy_s            100ab39c     MSVCRT:MSVCR110.dll
 0002:000003a0       __imp__wcsncmp             100ab3a0     MSVCRT:MSVCR110.dll
 0002:000003a4       __imp__wcsncpy             100ab3a4     MSVCRT:MSVCR110.dll
 0002:000003a8       __imp___wcsicmp            100ab3a8     MSVCRT:MSVCR110.dll
 0002:000003ac       __imp___wcsnicmp           100ab3ac     MSVCRT:MSVCR110.dll
 0002:000003b0       __imp___wcslwr             100ab3b0     MSVCRT:MSVCR110.dll
 0002:000003b4       __imp__fclose              100ab3b4     MSVCRT:MSVCR110.dll
 0002:000003b8       __imp__fflush              100ab3b8     MSVCRT:MSVCR110.dll
 0002:000003bc       __imp__fgetc               100ab3bc     MSVCRT:MSVCR110.dll
 0002:000003c0       __imp__fgetpos             100ab3c0     MSVCRT:MSVCR110.dll
 0002:000003c4       __imp__fputc               100ab3c4     MSVCRT:MSVCR110.dll
 0002:000003c8       __imp__fsetpos             100ab3c8     MSVCRT:MSVCR110.dll
 0002:000003cc       __imp___fseeki64           100ab3cc     MSVCRT:MSVCR110.dll
 0002:000003d0       __imp__fwrite              100ab3d0     MSVCRT:MSVCR110.dll
 0002:000003d4       __imp__setvbuf             100ab3d4     MSVCRT:MSVCR110.dll
 0002:000003d8       __imp__ungetc              100ab3d8     MSVCRT:MSVCR110.dll
 0002:000003dc       __imp__fgetwc              100ab3dc     MSVCRT:MSVCR110.dll
 0002:000003e0       __imp__fputwc              100ab3e0     MSVCRT:MSVCR110.dll
 0002:000003e4       __imp__ungetwc             100ab3e4     MSVCRT:MSVCR110.dll
 0002:000003e8       __imp___lock_file          100ab3e8     MSVCRT:MSVCR110.dll
 0002:000003ec       __imp___unlock_file        100ab3ec     MSVCRT:MSVCR110.dll
 0002:000003f0       __imp_??0bad_cast@std@@QAE@PBD@Z 100ab3f0     MSVCRT:MSVCR110.dll
 0002:000003f4       __imp_??0bad_cast@std@@QAE@ABV01@@Z 100ab3f4     MSVCRT:MSVCR110.dll
 0002:000003f8       __imp_??0exception@std@@QAE@ABV01@@Z 100ab3f8     MSVCRT:MSVCR110.dll
 0002:000003fc       __imp_??1bad_cast@std@@UAE@XZ 100ab3fc     MSVCRT:MSVCR110.dll
 0002:00000400       __imp__wcstok              100ab400     MSVCRT:MSVCR110.dll
 0002:00000404       __imp___errno              100ab404     MSVCRT:MSVCR110.dll
 0002:00000408       __imp___splitpath          100ab408     MSVCRT:MSVCR110.dll
 0002:0000040c       __imp___getdcwd            100ab40c     MSVCRT:MSVCR110.dll
 0002:00000410       __imp___chdir              100ab410     MSVCRT:MSVCR110.dll
 0002:00000414       __imp___wgetdcwd           100ab414     MSVCRT:MSVCR110.dll
 0002:00000418       __imp___wchdir             100ab418     MSVCRT:MSVCR110.dll
 0002:0000041c       __imp___wmkdir             100ab41c     MSVCRT:MSVCR110.dll
 0002:00000420       __imp___wrmdir             100ab420     MSVCRT:MSVCR110.dll
 0002:00000424       __imp___except_handler4_common 100ab424     MSVCRT:MSVCR110.dll
 0002:00000428       __imp___wfindfirst64i32    100ab428     MSVCRT:MSVCR110.dll
 0002:0000042c       __imp___wfindnext64i32     100ab42c     MSVCRT:MSVCR110.dll
 0002:00000430       __imp___wremove            100ab430     MSVCRT:MSVCR110.dll
 0002:00000434       __imp__strftime            100ab434     MSVCRT:MSVCR110.dll
 0002:00000438       __imp___localtime64        100ab438     MSVCRT:MSVCR110.dll
 0002:0000043c       __imp__malloc              100ab43c     MSVCRT:MSVCR110.dll
 0002:00000440       __imp__wcstol              100ab440     MSVCRT:MSVCR110.dll
 0002:00000444       __imp___stricmp            100ab444     MSVCRT:MSVCR110.dll
 0002:00000448       __imp__strcspn             100ab448     MSVCRT:MSVCR110.dll
 0002:0000044c       __imp___wcsupr             100ab44c     MSVCRT:MSVCR110.dll
 0002:00000450       __imp__mbstowcs            100ab450     MSVCRT:MSVCR110.dll
 0002:00000454       __imp__rand                100ab454     MSVCRT:MSVCR110.dll
 0002:00000458       __imp__srand               100ab458     MSVCRT:MSVCR110.dll
 0002:0000045c       __imp__wcstombs            100ab45c     MSVCRT:MSVCR110.dll
 0002:00000460       __imp__iswalpha            100ab460     MSVCRT:MSVCR110.dll
 0002:00000464       __imp__iswdigit            100ab464     MSVCRT:MSVCR110.dll
 0002:00000468       __imp___memicmp            100ab468     MSVCRT:MSVCR110.dll
 0002:0000046c       __imp___lock               100ab46c     MSVCRT:MSVCR110.dll
 0002:00000470       __imp___unlock             100ab470     MSVCRT:MSVCR110.dll
 0002:00000474       __imp___calloc_crt         100ab474     MSVCRT:MSVCR110.dll
 0002:00000478       __imp____dllonexit         100ab478     MSVCRT:MSVCR110.dll
 0002:0000047c       __imp___onexit             100ab47c     MSVCRT:MSVCR110.dll
 0002:00000480       __imp_??1type_info@@UAE@XZ 100ab480     MSVCRT:MSVCR110.dll
 0002:00000484       __imp____CppXcptFilter     100ab484     MSVCRT:MSVCR110.dll
 0002:00000488       __imp___amsg_exit          100ab488     MSVCRT:MSVCR110.dll
 0002:0000048c       __imp___malloc_crt         100ab48c     MSVCRT:MSVCR110.dll
 0002:00000490       __imp___initterm           100ab490     MSVCRT:MSVCR110.dll
 0002:00000494       __imp___initterm_e         100ab494     MSVCRT:MSVCR110.dll
 0002:00000498       __imp_?terminate@@YAXXZ    100ab498     MSVCRT:MSVCR110.dll
 0002:0000049c       __imp___crt_debugger_hook  100ab49c     MSVCRT:MSVCR110.dll
 0002:000004a0       __imp____crtUnhandledException 100ab4a0     MSVCRT:MSVCR110.dll
 0002:000004a4       __imp____crtTerminateProcess 100ab4a4     MSVCRT:MSVCR110.dll
 0002:000004a8       __imp____clean_type_info_names_internal 100ab4a8     MSVCRT:MSVCR110.dll
 0002:000004ac       \177MSVCR110_NULL_THUNK_DATA 100ab4ac     MSVCRT:MSVCR110.dll
 0002:000004b0       __imp__VariantTimeToSystemTime@12 100ab4b0     oleaut32:OLEAUT32.dll
 0002:000004b4       __imp__SetErrorInfo@8      100ab4b4     oleaut32:OLEAUT32.dll
 0002:000004b8       __imp__GetErrorInfo@8      100ab4b8     oleaut32:OLEAUT32.dll
 0002:000004bc       __imp__SysFreeString@4     100ab4bc     oleaut32:OLEAUT32.dll
 0002:000004c0       __imp__SysAllocString@4    100ab4c0     oleaut32:OLEAUT32.dll
 0002:000004c4       __imp__SysAllocStringLen@8 100ab4c4     oleaut32:OLEAUT32.dll
 0002:000004c8       __imp__SysStringLen@4      100ab4c8     oleaut32:OLEAUT32.dll
 0002:000004cc       __imp__SysStringByteLen@4  100ab4cc     oleaut32:OLEAUT32.dll
 0002:000004d0       __imp__SysAllocStringByteLen@8 100ab4d0     oleaut32:OLEAUT32.dll
 0002:000004d4       __imp__VariantInit@4       100ab4d4     oleaut32:OLEAUT32.dll
 0002:000004d8       __imp__VariantClear@4      100ab4d8     oleaut32:OLEAUT32.dll
 0002:000004dc       __imp__VariantChangeType@16 100ab4dc     oleaut32:OLEAUT32.dll
 0002:000004e0       __imp__SystemTimeToVariantTime@8 100ab4e0     oleaut32:OLEAUT32.dll
 0002:000004e4       __imp__CreateErrorInfo@4   100ab4e4     oleaut32:OLEAUT32.dll
 0002:000004e8       \177OLEAUT32_NULL_THUNK_DATA 100ab4e8     oleaut32:OLEAUT32.dll
 0002:000004ec       __imp__wsprintfW           100ab4ec     user32:USER32.dll
 0002:000004f0       __imp__MessageBoxW@16      100ab4f0     user32:USER32.dll
 0002:000004f4       \177USER32_NULL_THUNK_DATA 100ab4f4     user32:USER32.dll
 0002:000004f8       __imp__GetFileVersionInfoW@16 100ab4f8     version:VERSION.dll
 0002:000004fc       __imp__VerQueryValueW@16   100ab4fc     version:VERSION.dll
 0002:00000500       __imp__GetFileVersionInfoSizeW@8 100ab500     version:VERSION.dll
 0002:00000504       \177VERSION_NULL_THUNK_DATA 100ab504     version:VERSION.dll
 0002:00000508       __imp__gethostbyaddr@12    100ab508     ws2_32:WS2_32.dll
 0002:0000050c       __imp__gethostbyname@4     100ab50c     ws2_32:WS2_32.dll
 0002:00000510       __imp__WSAStartup@8        100ab510     ws2_32:WS2_32.dll
 0002:00000514       __imp__inet_ntoa@4         100ab514     ws2_32:WS2_32.dll
 0002:00000518       __imp__WSACleanup@0        100ab518     ws2_32:WS2_32.dll
 0002:0000051c       __imp__WSAGetLastError@0   100ab51c     ws2_32:WS2_32.dll
 0002:00000520       \177WS2_32_NULL_THUNK_DATA 100ab520     ws2_32:WS2_32.dll
 0002:00000524       __imp__SymGetModuleInfo@12 100ab524     dbghelp:dbghelp.dll
 0002:00000528       __imp__SymGetLineFromAddr@16 100ab528     dbghelp:dbghelp.dll
 0002:0000052c       __imp__SymInitialize@12    100ab52c     dbghelp:dbghelp.dll
 0002:00000530       __imp__SymGetSymFromAddr@16 100ab530     dbghelp:dbghelp.dll
 0002:00000534       __imp__SymSetSearchPath@8  100ab534     dbghelp:dbghelp.dll
 0002:00000538       __imp__SymGetOptions@0     100ab538     dbghelp:dbghelp.dll
 0002:0000053c       __imp__SymSetOptions@4     100ab53c     dbghelp:dbghelp.dll
 0002:00000540       __imp__SymGetSearchPath@12 100ab540     dbghelp:dbghelp.dll
 0002:00000544       \177dbghelp_NULL_THUNK_DATA 100ab544     dbghelp:dbghelp.dll
 0002:00000548       ___xc_a                    100ab548     MSVCRT:cinitexe.obj
 0002:00000740       ___xc_z                    100ab740     MSVCRT:cinitexe.obj
 0002:00000744       ___xi_a                    100ab744     MSVCRT:cinitexe.obj
 0002:00000750       ___xi_z                    100ab750     MSVCRT:cinitexe.obj
 0002:00000798       ?pmField@?$CVarTypeInfo@PA_J@ATL@@2QQtagVARIANT@@PA_JQ3@ 100ab798     mriapi.obj
 0002:0000079c       ?digits10@?$numeric_limits@M@std@@2HB 100ab79c     mriapi.obj
 0002:000007a0       ?max_digits10@?$numeric_limits@M@std@@2HB 100ab7a0     mriapi.obj
 0002:000007a4       ?max_exponent@?$numeric_limits@M@std@@2HB 100ab7a4     mriapi.obj
 0002:000007a8       ?VT@?$CVarTypeInfo@_K@ATL@@2GB 100ab7a8     mriapi.obj
 0002:000007ac       ?max_exponent10@?$numeric_limits@M@std@@2HB 100ab7ac     mriapi.obj
 0002:000007b0       ?pmField@?$CVarTypeInfo@_K@ATL@@2QQtagVARIANT@@_KQ3@ 100ab7b0     mriapi.obj
 0002:000007b4       ?min_exponent@?$numeric_limits@M@std@@2HB 100ab7b4     mriapi.obj
 0002:000007b8       ?min_exponent10@?$numeric_limits@M@std@@2HB 100ab7b8     mriapi.obj
 0002:000007bc       ?chDirSep@ATL@@3_WB        100ab7bc     mriapi.obj
 0002:000007c0       ?chRightBracket@ATL@@3_WB  100ab7c0     mriapi.obj
 0002:000007c4       ?VT@?$CVarTypeInfo@PA_K@ATL@@2GB 100ab7c4     mriapi.obj
 0002:000007c8       ?chLeftBracket@ATL@@3_WB   100ab7c8     mriapi.obj
 0002:000007cc       ?chQuote@ATL@@3_WB         100ab7cc     mriapi.obj
 0002:000007d0       ?pmField@?$CVarTypeInfo@PA_K@ATL@@2QQtagVARIANT@@PA_KQ3@ 100ab7d0     mriapi.obj
 0002:000007d4       ?chEquals@ATL@@3_WB        100ab7d4     mriapi.obj
 0002:000007d8       ?szStringVal@ATL@@3QB_WB   100ab7d8     mriapi.obj
 0002:000007dc       ??_C@_13HADIAKP@?$AAS?$AA?$AA@ 100ab7dc     mriapi.obj
 0002:000007e0       ?multiszStringVal@ATL@@3QB_WB 100ab7e0     mriapi.obj
 0002:000007e4       ??_C@_13LHMFKAAD@?$AAM?$AA?$AA@ 100ab7e4     mriapi.obj
 0002:000007e8       ?szDwordVal@ATL@@3QB_WB    100ab7e8     mriapi.obj
 0002:000007ec       ??_C@_13MKMNOPIJ@?$AAD?$AA?$AA@ 100ab7ec     mriapi.obj
 0002:000007f0       ?szBinaryVal@ATL@@3QB_WB   100ab7f0     mriapi.obj
 0002:000007f4       ??_C@_13OPKGLAFF@?$AAB?$AA?$AA@ 100ab7f4     mriapi.obj
 0002:000007f8       ?szValToken@ATL@@3QB_WB    100ab7f8     mriapi.obj
 0002:000007fc       ?VT@?$CVarTypeInfo@M@ATL@@2GB 100ab7fc     mriapi.obj
 0002:00000800       ??_C@_17LLMMEOJD@?$AAV?$AAa?$AAl?$AA?$AA@ 100ab800     mriapi.obj
 0002:00000808       ?szForceRemove@ATL@@3QB_WB 100ab808     mriapi.obj
 0002:0000080c       ?pmField@?$CVarTypeInfo@M@ATL@@2QQtagVARIANT@@MQ3@ 100ab80c     mriapi.obj
 0002:00000810       ??_C@_1BI@JFAIJMHL@?$AAF?$AAo?$AAr?$AAc?$AAe?$AAR?$AAe?$AAm?$AAo?$AAv?$AAe?$AA?$AA@ 100ab810     mriapi.obj
 0002:00000828       ?szNoRemove@ATL@@3QB_WB    100ab828     mriapi.obj
 0002:0000082c       ??_C@_1BC@GCKHIPE@?$AAN?$AAo?$AAR?$AAe?$AAm?$AAo?$AAv?$AAe?$AA?$AA@ 100ab82c     mriapi.obj
 0002:00000840       ?szDelete@ATL@@3QB_WB      100ab840     mriapi.obj
 0002:00000844       ??_C@_1O@JDLOHAN@?$AAD?$AAe?$AAl?$AAe?$AAt?$AAe?$AA?$AA@ 100ab844     mriapi.obj
 0002:00000854       ?digits@?$numeric_limits@N@std@@2HB 100ab854     mriapi.obj
 0002:00000858       ?VT@?$CVarTypeInfo@PAM@ATL@@2GB 100ab858     mriapi.obj
 0002:0000085c       ?pmField@?$CVarTypeInfo@PAM@ATL@@2QQtagVARIANT@@PAMQ3@ 100ab85c     mriapi.obj
 0002:00000860       ?digits10@?$numeric_limits@N@std@@2HB 100ab860     mriapi.obj
 0002:00000864       ?max_digits10@?$numeric_limits@N@std@@2HB 100ab864     mriapi.obj
 0002:00000868       ?max_exponent@?$numeric_limits@N@std@@2HB 100ab868     mriapi.obj
 0002:0000086c       ?VT@?$CVarTypeInfo@N@ATL@@2GB 100ab86c     mriapi.obj
 0002:00000870       ?max_exponent10@?$numeric_limits@N@std@@2HB 100ab870     mriapi.obj
 0002:00000874       ?pmField@?$CVarTypeInfo@N@ATL@@2QQtagVARIANT@@NQ3@ 100ab874     mriapi.obj
 0002:00000878       ?min_exponent@?$numeric_limits@N@std@@2HB 100ab878     mriapi.obj
 0002:0000087c       ?min_exponent10@?$numeric_limits@N@std@@2HB 100ab87c     mriapi.obj
 0002:00000880       ?VT@?$CVarTypeInfo@PAN@ATL@@2GB 100ab880     mriapi.obj
 0002:00000884       ?pmField@?$CVarTypeInfo@PAN@ATL@@2QQtagVARIANT@@PANQ3@ 100ab884     mriapi.obj
 0002:00000888       ?VT@?$CVarTypeInfo@PAUtagVARIANT@@@ATL@@2GB 100ab888     mriapi.obj
 0002:0000088c       ?VT@?$CVarTypeInfo@PA_W@ATL@@2GB 100ab88c     mriapi.obj
 0002:00000890       ?pmField@?$CVarTypeInfo@PA_W@ATL@@2QQtagVARIANT@@PA_WQ3@ 100ab890     mriapi.obj
 0002:00000894       ?digits@?$numeric_limits@O@std@@2HB 100ab894     mriapi.obj
 0002:00000898       ?digits10@?$numeric_limits@O@std@@2HB 100ab898     mriapi.obj
 0002:0000089c       ?max_digits10@?$numeric_limits@O@std@@2HB 100ab89c     mriapi.obj
 0002:000008a0       ?max_exponent@?$numeric_limits@O@std@@2HB 100ab8a0     mriapi.obj
 0002:000008a4       ?VT@?$CVarTypeInfo@PAPA_W@ATL@@2GB 100ab8a4     mriapi.obj
 0002:000008a8       _IID_IDocHostUIHandlerDispatch 100ab8a8     mriapi.obj
 0002:000008b8       ?pmField@?$CVarTypeInfo@PAPA_W@ATL@@2QQtagVARIANT@@PAPA_WQ3@ 100ab8b8     mriapi.obj
 0002:000008bc       ?max_exponent10@?$numeric_limits@O@std@@2HB 100ab8bc     mriapi.obj
 0002:000008c0       ?min_exponent@?$numeric_limits@O@std@@2HB 100ab8c0     mriapi.obj
 0002:000008c4       ?min_exponent10@?$numeric_limits@O@std@@2HB 100ab8c4     mriapi.obj
 0002:000008c8       ?VT@?$CVarTypeInfo@PAUIUnknown@@@ATL@@2GB 100ab8c8     mriapi.obj
 0002:000008cc       ?pmField@?$CVarTypeInfo@PAUIUnknown@@@ATL@@2QQtagVARIANT@@PAUIUnknown@@Q3@ 100ab8cc     mriapi.obj
 0002:000008d0       ?VT@?$CVarTypeInfo@PAPAUIUnknown@@@ATL@@2GB 100ab8d0     mriapi.obj
 0002:000008d4       ?pmField@?$CVarTypeInfo@PAPAUIUnknown@@@ATL@@2QQtagVARIANT@@PAPAUIUnknown@@Q3@ 100ab8d4     mriapi.obj
 0002:000008d8       ?VT@?$CVarTypeInfo@PAUIDispatch@@@ATL@@2GB 100ab8d8     mriapi.obj
 0002:000008dc       ?pmField@?$CVarTypeInfo@PAUIDispatch@@@ATL@@2QQtagVARIANT@@PAUIDispatch@@Q3@ 100ab8dc     mriapi.obj
 0002:000008e0       ?VT@?$CVarTypeInfo@PAPAUIDispatch@@@ATL@@2GB 100ab8e0     mriapi.obj
 0002:000008e4       ?pmField@?$CVarTypeInfo@PAPAUIDispatch@@@ATL@@2QQtagVARIANT@@PAPAUIDispatch@@Q3@ 100ab8e4     mriapi.obj
 0002:000008e8       __GUID_00000000_0000_0000_c000_000000000046 100ab8e8     mriapi.obj
 0002:000008f8       ?VT@?$CVarTypeInfo@TtagCY@@@ATL@@2GB 100ab8f8     mriapi.obj
 0002:000008fc       ?pmField@?$CVarTypeInfo@TtagCY@@@ATL@@2QQtagVARIANT@@TtagCY@@Q3@ 100ab8fc     mriapi.obj
 0002:00000900       ?VT@?$CVarTypeInfo@PATtagCY@@@ATL@@2GB 100ab900     mriapi.obj
 0002:00000904       __GUID_00020400_0000_0000_c000_000000000046 100ab904     mriapi.obj
 0002:00000914       ?pmField@?$CVarTypeInfo@PATtagCY@@@ATL@@2QQtagVARIANT@@PATtagCY@@Q3@ 100ab914     mriapi.obj
 0002:00000918       ?MAX_VALUE@CRegParser@ATL@@1HB 100ab918     mriapi.obj
 0002:0000091c       ?rgszNeverDelete@CRegParser@ATL@@1QBQB_WB 100ab91c     mriapi.obj
 0002:0000094c       ?cbNeverDelete@CRegParser@ATL@@1HB 100ab94c     mriapi.obj
 0002:00000950       ?MAX_TYPE@CRegParser@ATL@@1HB 100ab950     mriapi.obj
 0002:00000954       ?value@?$integral_constant@_N$0A@@std@@2_NB 100ab954     mriapi.obj
 0002:00000955       ?value@?$integral_constant@_N$00@std@@2_NB 100ab955     mriapi.obj
 0002:00000958       ?value@?$integral_constant@I$0A@@std@@2IB 100ab958     mriapi.obj
 0002:0000095c       _IID_IAxWinHostWindow      100ab95c     mriapi.obj
 0002:0000096c       ?has_denorm@_Num_base@std@@2W4float_denorm_style@2@B 100ab96c     mriapi.obj
 0002:00000970       ?has_denorm_loss@_Num_base@std@@2_NB 100ab970     mriapi.obj
 0002:00000971       ?has_infinity@_Num_base@std@@2_NB 100ab971     mriapi.obj
 0002:00000972       ?has_quiet_NaN@_Num_base@std@@2_NB 100ab972     mriapi.obj
 0002:00000973       ?has_signaling_NaN@_Num_base@std@@2_NB 100ab973     mriapi.obj
 0002:00000974       ?is_bounded@_Num_base@std@@2_NB 100ab974     mriapi.obj
 0002:00000975       ?is_exact@_Num_base@std@@2_NB 100ab975     mriapi.obj
 0002:00000976       ?is_iec559@_Num_base@std@@2_NB 100ab976     mriapi.obj
 0002:00000977       ?is_integer@_Num_base@std@@2_NB 100ab977     mriapi.obj
 0002:00000978       ?is_modulo@_Num_base@std@@2_NB 100ab978     mriapi.obj
 0002:00000979       ?is_signed@_Num_base@std@@2_NB 100ab979     mriapi.obj
 0002:0000097a       ?is_specialized@_Num_base@std@@2_NB 100ab97a     mriapi.obj
 0002:0000097b       ?tinyness_before@_Num_base@std@@2_NB 100ab97b     mriapi.obj
 0002:0000097c       ?traps@_Num_base@std@@2_NB 100ab97c     mriapi.obj
 0002:00000980       ?round_style@_Num_base@std@@2W4float_round_style@2@B 100ab980     mriapi.obj
 0002:00000984       ?digits@_Num_base@std@@2HB 100ab984     mriapi.obj
 0002:00000988       ?digits10@_Num_base@std@@2HB 100ab988     mriapi.obj
 0002:0000098c       ?max_digits10@_Num_base@std@@2HB 100ab98c     mriapi.obj
 0002:00000990       ?max_exponent@_Num_base@std@@2HB 100ab990     mriapi.obj
 0002:00000994       ?max_exponent10@_Num_base@std@@2HB 100ab994     mriapi.obj
 0002:00000998       ?min_exponent@_Num_base@std@@2HB 100ab998     mriapi.obj
 0002:0000099c       ?min_exponent10@_Num_base@std@@2HB 100ab99c     mriapi.obj
 0002:000009a0       ?radix@_Num_base@std@@2HB  100ab9a0     mriapi.obj
 0002:000009a4       _IID_IAxWinHostWindowLic   100ab9a4     mriapi.obj
 0002:000009b4       ?is_bounded@_Num_int_base@std@@2_NB 100ab9b4     mriapi.obj
 0002:000009b5       ?is_exact@_Num_int_base@std@@2_NB 100ab9b5     mriapi.obj
 0002:000009b6       ?is_integer@_Num_int_base@std@@2_NB 100ab9b6     mriapi.obj
 0002:000009b7       ?is_modulo@_Num_int_base@std@@2_NB 100ab9b7     mriapi.obj
 0002:000009b8       ?is_specialized@_Num_int_base@std@@2_NB 100ab9b8     mriapi.obj
 0002:000009bc       ?radix@_Num_int_base@std@@2HB 100ab9bc     mriapi.obj
 0002:000009c0       _IID_IAxWinAmbientDispatch 100ab9c0     mriapi.obj
 0002:000009d0       ?has_denorm@_Num_float_base@std@@2W4float_denorm_style@2@B 100ab9d0     mriapi.obj
 0002:000009d4       ?has_denorm_loss@_Num_float_base@std@@2_NB 100ab9d4     mriapi.obj
 0002:000009d5       ?has_infinity@_Num_float_base@std@@2_NB 100ab9d5     mriapi.obj
 0002:000009d6       ?has_quiet_NaN@_Num_float_base@std@@2_NB 100ab9d6     mriapi.obj
 0002:000009d7       ?has_signaling_NaN@_Num_float_base@std@@2_NB 100ab9d7     mriapi.obj
 0002:000009d8       __GUID_b196b284_bab4_101a_b69c_00aa00341d07 100ab9d8     mriapi.obj
 0002:000009e8       ?is_bounded@_Num_float_base@std@@2_NB 100ab9e8     mriapi.obj
 0002:000009e9       ?is_exact@_Num_float_base@std@@2_NB 100ab9e9     mriapi.obj
 0002:000009ea       ?is_iec559@_Num_float_base@std@@2_NB 100ab9ea     mriapi.obj
 0002:000009eb       ?is_integer@_Num_float_base@std@@2_NB 100ab9eb     mriapi.obj
 0002:000009ec       ?is_modulo@_Num_float_base@std@@2_NB 100ab9ec     mriapi.obj
 0002:000009ed       ?is_signed@_Num_float_base@std@@2_NB 100ab9ed     mriapi.obj
 0002:000009ee       ?is_specialized@_Num_float_base@std@@2_NB 100ab9ee     mriapi.obj
 0002:000009ef       ?tinyness_before@_Num_float_base@std@@2_NB 100ab9ef     mriapi.obj
 0002:000009f0       ?traps@_Num_float_base@std@@2_NB 100ab9f0     mriapi.obj
 0002:000009f4       ?round_style@_Num_float_base@std@@2W4float_round_style@2@B 100ab9f4     mriapi.obj
 0002:000009f8       ?radix@_Num_float_base@std@@2HB 100ab9f8     mriapi.obj
 0002:000009fc       ?_Min@?$AtlLimits@H@ATL@@2HB 100ab9fc     mriapi.obj
 0002:00000a00       ?_Max@?$AtlLimits@H@ATL@@2HB 100aba00     mriapi.obj
 0002:00000a04       ?_Min@?$AtlLimits@I@ATL@@2IB 100aba04     mriapi.obj
 0002:00000a08       ?_Max@?$AtlLimits@I@ATL@@2IB 100aba08     mriapi.obj
 0002:00000a0c       __GUID_00000146_0000_0000_c000_000000000046 100aba0c     mriapi.obj
 0002:00000a1c       ?is_signed@?$numeric_limits@D@std@@2_NB 100aba1c     mriapi.obj
 0002:00000a20       ?digits@?$numeric_limits@D@std@@2HB 100aba20     mriapi.obj
 0002:00000a24       ?_Min@?$AtlLimits@J@ATL@@2JB 100aba24     mriapi.obj
 0002:00000a28       ?digits10@?$numeric_limits@D@std@@2HB 100aba28     mriapi.obj
 0002:00000a2c       ?_Max@?$AtlLimits@J@ATL@@2JB 100aba2c     mriapi.obj
 0002:00000a30       ?_Min@?$AtlLimits@K@ATL@@2KB 100aba30     mriapi.obj
 0002:00000a34       ?_Max@?$AtlLimits@K@ATL@@2KB 100aba34     mriapi.obj
 0002:00000a38       ?_Min@?$AtlLimits@_J@ATL@@2_JB 100aba38     mriapi.obj
 0002:00000a40       ?_Max@?$AtlLimits@_J@ATL@@2_JB 100aba40     mriapi.obj
 0002:00000a48       ?skipws@?$_Iosb@H@std@@2W4_Fmtflags@12@B 100aba48     mriapi.obj
 0002:00000a4c       ?is_signed@?$numeric_limits@_W@std@@2_NB 100aba4c     mriapi.obj
 0002:00000a50       ?unitbuf@?$_Iosb@H@std@@2W4_Fmtflags@12@B 100aba50     mriapi.obj
 0002:00000a54       ?digits@?$numeric_limits@_W@std@@2HB 100aba54     mriapi.obj
 0002:00000a58       ?uppercase@?$_Iosb@H@std@@2W4_Fmtflags@12@B 100aba58     mriapi.obj
 0002:00000a60       ?_Min@?$AtlLimits@_K@ATL@@2_KB 100aba60     mriapi.obj
 0002:00000a68       ?_Max@?$AtlLimits@_K@ATL@@2_KB 100aba68     mriapi.obj
 0002:00000a70       ?showbase@?$_Iosb@H@std@@2W4_Fmtflags@12@B 100aba70     mriapi.obj
 0002:00000a74       ?digits10@?$numeric_limits@_W@std@@2HB 100aba74     mriapi.obj
 0002:00000a78       ?showpoint@?$_Iosb@H@std@@2W4_Fmtflags@12@B 100aba78     mriapi.obj
 0002:00000a7c       ?showpos@?$_Iosb@H@std@@2W4_Fmtflags@12@B 100aba7c     mriapi.obj
 0002:00000a80       ?left@?$_Iosb@H@std@@2W4_Fmtflags@12@B 100aba80     mriapi.obj
 0002:00000a84       ?right@?$_Iosb@H@std@@2W4_Fmtflags@12@B 100aba84     mriapi.obj
 0002:00000a88       ?internal@?$_Iosb@H@std@@2W4_Fmtflags@12@B 100aba88     mriapi.obj
 0002:00000a8c       ?dec@?$_Iosb@H@std@@2W4_Fmtflags@12@B 100aba8c     mriapi.obj
 0002:00000a90       ?oct@?$_Iosb@H@std@@2W4_Fmtflags@12@B 100aba90     mriapi.obj
 0002:00000a94       ?hex@?$_Iosb@H@std@@2W4_Fmtflags@12@B 100aba94     mriapi.obj
 0002:00000a98       ?scientific@?$_Iosb@H@std@@2W4_Fmtflags@12@B 100aba98     mriapi.obj
 0002:00000a9c       ?fixed@?$_Iosb@H@std@@2W4_Fmtflags@12@B 100aba9c     mriapi.obj
 0002:00000aa0       ?hexfloat@?$_Iosb@H@std@@2W4_Fmtflags@12@B 100abaa0     mriapi.obj
 0002:00000aa4       ?is_modulo@?$numeric_limits@_N@std@@2_NB 100abaa4     mriapi.obj
 0002:00000aa5       ?is_signed@?$numeric_limits@_N@std@@2_NB 100abaa5     mriapi.obj
 0002:00000aa8       ?boolalpha@?$_Iosb@H@std@@2W4_Fmtflags@12@B 100abaa8     mriapi.obj
 0002:00000aac       ?digits@?$numeric_limits@_N@std@@2HB 100abaac     mriapi.obj
 0002:00000ab0       ?_Stdio@?$_Iosb@H@std@@2W4_Fmtflags@12@B 100abab0     mriapi.obj
 0002:00000ab4       ?digits10@?$numeric_limits@_N@std@@2HB 100abab4     mriapi.obj
 0002:00000ab8       ?adjustfield@?$_Iosb@H@std@@2W4_Fmtflags@12@B 100abab8     mriapi.obj
 0002:00000abc       ?basefield@?$_Iosb@H@std@@2W4_Fmtflags@12@B 100ababc     mriapi.obj
 0002:00000ac0       ?floatfield@?$_Iosb@H@std@@2W4_Fmtflags@12@B 100abac0     mriapi.obj
 0002:00000ac4       ?goodbit@?$_Iosb@H@std@@2W4_Iostate@12@B 100abac4     mriapi.obj
 0002:00000ac8       ?eofbit@?$_Iosb@H@std@@2W4_Iostate@12@B 100abac8     mriapi.obj
 0002:00000acc       ?failbit@?$_Iosb@H@std@@2W4_Iostate@12@B 100abacc     mriapi.obj
 0002:00000ad0       ?badbit@?$_Iosb@H@std@@2W4_Iostate@12@B 100abad0     mriapi.obj
 0002:00000ad4       ?_Hardfail@?$_Iosb@H@std@@2W4_Iostate@12@B 100abad4     mriapi.obj
 0002:00000ad8       ?in@?$_Iosb@H@std@@2W4_Openmode@12@B 100abad8     mriapi.obj
 0002:00000adc       _LIBID_ATLLib              100abadc     mriapi.obj
 0002:00000aec       ?is_signed@?$numeric_limits@C@std@@2_NB 100abaec     mriapi.obj
 0002:00000af0       ?out@?$_Iosb@H@std@@2W4_Openmode@12@B 100abaf0     mriapi.obj
 0002:00000af4       ?digits@?$numeric_limits@C@std@@2HB 100abaf4     mriapi.obj
 0002:00000af8       ?ate@?$_Iosb@H@std@@2W4_Openmode@12@B 100abaf8     mriapi.obj
 0002:00000afc       ?digits10@?$numeric_limits@C@std@@2HB 100abafc     mriapi.obj
 0002:00000b00       ?app@?$_Iosb@H@std@@2W4_Openmode@12@B 100abb00     mriapi.obj
 0002:00000b04       ?trunc@?$_Iosb@H@std@@2W4_Openmode@12@B 100abb04     mriapi.obj
 0002:00000b08       ?_Nocreate@?$_Iosb@H@std@@2W4_Openmode@12@B 100abb08     mriapi.obj
 0002:00000b0c       ?_Noreplace@?$_Iosb@H@std@@2W4_Openmode@12@B 100abb0c     mriapi.obj
 0002:00000b10       ?binary@?$_Iosb@H@std@@2W4_Openmode@12@B 100abb10     mriapi.obj
 0002:00000b14       ?beg@?$_Iosb@H@std@@2W4_Seekdir@12@B 100abb14     mriapi.obj
 0002:00000b18       ?cur@?$_Iosb@H@std@@2W4_Seekdir@12@B 100abb18     mriapi.obj
 0002:00000b1c       ?end@?$_Iosb@H@std@@2W4_Seekdir@12@B 100abb1c     mriapi.obj
 0002:00000b20       ?is_signed@?$numeric_limits@E@std@@2_NB 100abb20     mriapi.obj
 0002:00000b24       ?digits@?$numeric_limits@E@std@@2HB 100abb24     mriapi.obj
 0002:00000b28       __GUID_fc4801a3_2ba9_11cf_a229_00aa003d7352 100abb28     mriapi.obj
 0002:00000b38       ?digits10@?$numeric_limits@E@std@@2HB 100abb38     mriapi.obj
 0002:00000b3c       ?value@?$_Sizeof@U_Nil@std@@U12@U12@U12@U12@U12@U12@U12@@std@@2IB 100abb3c     mriapi.obj
 0002:00000b40       ?_Stream_err@failure@ios_base@std@@0W4io_errc@43@B 100abb40     mriapi.obj
 0002:00000b44       ?is_signed@?$numeric_limits@F@std@@2_NB 100abb44     mriapi.obj
 0002:00000b48       ?digits@?$numeric_limits@F@std@@2HB 100abb48     mriapi.obj
 0002:00000b4c       ?digits10@?$numeric_limits@F@std@@2HB 100abb4c     mriapi.obj
 0002:00000b50       ??_C@_1CK@OEKPKBNA@?$AAC?$AAo?$AAm?$AAp?$AAo?$AAn?$AAe?$AAn?$AAt?$AA?5?$AAC?$AAa?$AAt?$AAe?$AAg?$AAo?$AAr?$AAi?$AAe?$AAs?$AA?$AA@ 100abb50     mriapi.obj
 0002:00000b7c       ??_C@_1BC@NKMMNMGL@?$AAF?$AAi?$AAl?$AAe?$AAT?$AAy?$AAp?$AAe?$AA?$AA@ 100abb7c     mriapi.obj
 0002:00000b90       ??_C@_1BE@EKPAFMCP@?$AAI?$AAn?$AAt?$AAe?$AAr?$AAf?$AAa?$AAc?$AAe?$AA?$AA@ 100abb90     mriapi.obj
 0002:00000ba4       ?collate@?$_Locbase@H@std@@2HB 100abba4     mriapi.obj
 0002:00000ba8       ??_C@_1BC@MAICEHGI@?$AAH?$AAa?$AAr?$AAd?$AAw?$AAa?$AAr?$AAe?$AA?$AA@ 100abba8     mriapi.obj
 0002:00000bbc       ??_C@_19HLLLM@?$AAM?$AAi?$AAm?$AAe?$AA?$AA@ 100abbbc     mriapi.obj
 0002:00000bc8       ?ctype@?$_Locbase@H@std@@2HB 100abbc8     mriapi.obj
 0002:00000bcc       ??_C@_17OMAOINJK@?$AAS?$AAA?$AAM?$AA?$AA@ 100abbcc     mriapi.obj
 0002:00000bd4       ??_C@_1BC@IBECJAAI@?$AAS?$AAE?$AAC?$AAU?$AAR?$AAI?$AAT?$AAY?$AA?$AA@ 100abbd4     mriapi.obj
 0002:00000be8       ?monetary@?$_Locbase@H@std@@2HB 100abbe8     mriapi.obj
 0002:00000bec       ??_C@_1O@GBFINDKL@?$AAS?$AAY?$AAS?$AAT?$AAE?$AAM?$AA?$AA@ 100abbec     mriapi.obj
 0002:00000bfc       ??_C@_1BC@EAHCMADO@?$AAS?$AAo?$AAf?$AAt?$AAw?$AAa?$AAr?$AAe?$AA?$AA@ 100abbfc     mriapi.obj
 0002:00000c10       ?numeric@?$_Locbase@H@std@@2HB 100abc10     mriapi.obj
 0002:00000c14       ??_C@_1BA@JIHHIEDE@?$AAT?$AAy?$AAp?$AAe?$AAL?$AAi?$AAb?$AA?$AA@ 100abc14     mriapi.obj
 0002:00000c24       ?time@?$_Locbase@H@std@@2HB 100abc24     mriapi.obj
 0002:00000c28       __GUID_0002e012_0000_0000_c000_000000000046 100abc28     mriapi.obj
 0002:00000c38       ?messages@?$_Locbase@H@std@@2HB 100abc38     mriapi.obj
 0002:00000c3c       _IID_IAxWinAmbientDispatchEx 100abc3c     mriapi.obj
 0002:00000c4c       ?all@?$_Locbase@H@std@@2HB 100abc4c     mriapi.obj
 0002:00000c50       ?none@?$_Locbase@H@std@@2HB 100abc50     mriapi.obj
 0002:00000c54       ?value@?$_Sizeof@HU_Nil@std@@U12@U12@U12@U12@U12@U12@@std@@2IB 100abc54     mriapi.obj
 0002:00000c58       ?is_signed@?$numeric_limits@G@std@@2_NB 100abc58     mriapi.obj
 0002:00000c5c       ?digits@?$numeric_limits@G@std@@2HB 100abc5c     mriapi.obj
 0002:00000c60       ?digits10@?$numeric_limits@G@std@@2HB 100abc60     mriapi.obj
 0002:00000c64       _IID_IInternalConnection   100abc64     mriapi.obj
 0002:00000c74       ?is_signed@?$numeric_limits@H@std@@2_NB 100abc74     mriapi.obj
 0002:00000c78       ?digits@?$numeric_limits@H@std@@2HB 100abc78     mriapi.obj
 0002:00000c7c       ?VT@?$CVarTypeInfo@D@ATL@@2GB 100abc7c     mriapi.obj
 0002:00000c80       ?digits10@?$numeric_limits@H@std@@2HB 100abc80     mriapi.obj
 0002:00000c84       ?pmField@?$CVarTypeInfo@D@ATL@@2QQtagVARIANT@@DQ3@ 100abc84     mriapi.obj
 0002:00000c88       ?VT@?$CVarTypeInfo@E@ATL@@2GB 100abc88     mriapi.obj
 0002:00000c8c       ?pmField@?$CVarTypeInfo@E@ATL@@2QQtagVARIANT@@EQ3@ 100abc8c     mriapi.obj
 0002:00000c90       ?VT@?$CVarTypeInfo@PAD@ATL@@2GB 100abc90     mriapi.obj
 0002:00000c94       ?pmField@?$CVarTypeInfo@PAD@ATL@@2QQtagVARIANT@@PADQ3@ 100abc94     mriapi.obj
 0002:00000c98       ?is_signed@?$numeric_limits@I@std@@2_NB 100abc98     mriapi.obj
 0002:00000c9c       ?digits@?$numeric_limits@I@std@@2HB 100abc9c     mriapi.obj
 0002:00000ca0       ?digits10@?$numeric_limits@I@std@@2HB 100abca0     mriapi.obj
 0002:00000ca4       ?VT@?$CVarTypeInfo@PAE@ATL@@2GB 100abca4     mriapi.obj
 0002:00000ca8       ?pmField@?$CVarTypeInfo@PAE@ATL@@2QQtagVARIANT@@PAEQ3@ 100abca8     mriapi.obj
 0002:00000cac       __GUID_00000109_0000_0000_c000_000000000046 100abcac     mriapi.obj
 0002:00000cbc       __GUID_7fd52380_4e07_101b_ae2d_08002b2ec713 100abcbc     mriapi.obj
 0002:00000ccc       ?VT@?$CVarTypeInfo@F@ATL@@2GB 100abccc     mriapi.obj
 0002:00000cd0       ?pmField@?$CVarTypeInfo@F@ATL@@2QQtagVARIANT@@FQ3@ 100abcd0     mriapi.obj
 0002:00000cd4       ?VT@?$CVarTypeInfo@PAF@ATL@@2GB 100abcd4     mriapi.obj
 0002:00000cd8       ?pmField@?$CVarTypeInfo@PAF@ATL@@2QQtagVARIANT@@PAFQ3@ 100abcd8     mriapi.obj
 0002:00000cdc       ?is_signed@?$numeric_limits@J@std@@2_NB 100abcdc     mriapi.obj
 0002:00000ce0       ?digits@?$numeric_limits@J@std@@2HB 100abce0     mriapi.obj
 0002:00000ce4       ?digits10@?$numeric_limits@J@std@@2HB 100abce4     mriapi.obj
 0002:00000ce8       ?VT@?$CVarTypeInfo@G@ATL@@2GB 100abce8     mriapi.obj
 0002:00000cec       ?pmField@?$CVarTypeInfo@G@ATL@@2QQtagVARIANT@@GQ3@ 100abcec     mriapi.obj
 0002:00000cf0       ?VT@?$CVarTypeInfo@PAG@ATL@@2GB 100abcf0     mriapi.obj
 0002:00000cf4       ?pmField@?$CVarTypeInfo@PAG@ATL@@2QQtagVARIANT@@PAGQ3@ 100abcf4     mriapi.obj
 0002:00000cf8       ?VT@?$CVarTypeInfo@H@ATL@@2GB 100abcf8     mriapi.obj
 0002:00000cfc       ?pmField@?$CVarTypeInfo@H@ATL@@2QQtagVARIANT@@HQ3@ 100abcfc     mriapi.obj
 0002:00000d00       ?is_signed@?$numeric_limits@K@std@@2_NB 100abd00     mriapi.obj
 0002:00000d04       ?digits@?$numeric_limits@K@std@@2HB 100abd04     mriapi.obj
 0002:00000d08       ?digits10@?$numeric_limits@K@std@@2HB 100abd08     mriapi.obj
 0002:00000d0c       ?VT@?$CVarTypeInfo@PAH@ATL@@2GB 100abd0c     mriapi.obj
 0002:00000d10       ?pmField@?$CVarTypeInfo@PAH@ATL@@2QQtagVARIANT@@PAHQ3@ 100abd10     mriapi.obj
 0002:00000d14       ?VT@?$CVarTypeInfo@I@ATL@@2GB 100abd14     mriapi.obj
 0002:00000d18       ?pmField@?$CVarTypeInfo@I@ATL@@2QQtagVARIANT@@IQ3@ 100abd18     mriapi.obj
 0002:00000d1c       ??_C@_1M@KANJNLFF@?$AAC?$AAL?$AAS?$AAI?$AAD?$AA?$AA@ 100abd1c     mriapi.obj
 0002:00000d28       ?VT@?$CVarTypeInfo@PAI@ATL@@2GB 100abd28     mriapi.obj
 0002:00000d2a       ?is_signed@?$numeric_limits@_J@std@@2_NB 100abd2a     mriapi.obj
 0002:00000d2c       ?pmField@?$CVarTypeInfo@PAI@ATL@@2QQtagVARIANT@@PAIQ3@ 100abd2c     mriapi.obj
 0002:00000d30       ?digits@?$numeric_limits@_J@std@@2HB 100abd30     mriapi.obj
 0002:00000d34       ?digits10@?$numeric_limits@_J@std@@2HB 100abd34     mriapi.obj
 0002:00000d38       ?VT@?$CVarTypeInfo@J@ATL@@2GB 100abd38     mriapi.obj
 0002:00000d3c       ?pmField@?$CVarTypeInfo@J@ATL@@2QQtagVARIANT@@JQ3@ 100abd3c     mriapi.obj
 0002:00000d40       ??_C@_1M@EJNEECMJ@?$AAA?$AAp?$AAp?$AAI?$AAD?$AA?$AA@ 100abd40     mriapi.obj
 0002:00000d4c       ?VT@?$CVarTypeInfo@PAJ@ATL@@2GB 100abd4c     mriapi.obj
 0002:00000d50       __GUID_00000000_0000_0000_0000_000000000000 100abd50     mriapi.obj
 0002:00000d60       ?pmField@?$CVarTypeInfo@PAJ@ATL@@2QQtagVARIANT@@PAJQ3@ 100abd60     mriapi.obj
 0002:00000d64       _CLSID_Registrar           100abd64     mriapi.obj
 0002:00000d74       ?VT@?$CVarTypeInfo@K@ATL@@2GB 100abd74     mriapi.obj
 0002:00000d76       ?is_signed@?$numeric_limits@_K@std@@2_NB 100abd76     mriapi.obj
 0002:00000d78       ?pmField@?$CVarTypeInfo@K@ATL@@2QQtagVARIANT@@KQ3@ 100abd78     mriapi.obj
 0002:00000d7c       ?digits@?$numeric_limits@_K@std@@2HB 100abd7c     mriapi.obj
 0002:00000d80       ?digits10@?$numeric_limits@_K@std@@2HB 100abd80     mriapi.obj
 0002:00000d84       ?VT@?$CVarTypeInfo@PAK@ATL@@2GB 100abd84     mriapi.obj
 0002:00000d88       ?pmField@?$CVarTypeInfo@PAK@ATL@@2QQtagVARIANT@@PAKQ3@ 100abd88     mriapi.obj
 0002:00000d8c       ?VT@?$CVarTypeInfo@_J@ATL@@2GB 100abd8c     mriapi.obj
 0002:00000d90       ?pmField@?$CVarTypeInfo@_J@ATL@@2QQtagVARIANT@@_JQ3@ 100abd90     mriapi.obj
 0002:00000d94       _IID_IRegistrar            100abd94     mriapi.obj
 0002:00000da4       ?digits@?$numeric_limits@M@std@@2HB 100abda4     mriapi.obj
 0002:00000da8       ?VT@?$CVarTypeInfo@PA_J@ATL@@2GB 100abda8     mriapi.obj
 0002:00000dac       ??_C@_11LOCGONAA@?$AA?$AA@ 100abdac     mriapi.obj
 0002:00000db4       ??_7error_category@std@@6B@ 100abdb4     mriapi.obj
 0002:00000dd0       ??_7_Generic_error_category@std@@6B@ 100abdd0     mriapi.obj
 0002:00000de8       ??_C@_07DCLBNMLN@generic?$AA@ 100abde8     mriapi.obj
 0002:00000df0       ??_C@_0O@BFJCFAAK@unknown?5error?$AA@ 100abdf0     mriapi.obj
 0002:00000e04       ??_7_Iostream_error_category@std@@6B@ 100abe04     mriapi.obj
 0002:00000e1c       ??_C@_08LLGCOLLL@iostream?$AA@ 100abe1c     mriapi.obj
 0002:00000e28       ??_C@_0BG@PADBLCHM@iostream?5stream?5error?$AA@ 100abe28     mriapi.obj
 0002:00000e44       ??_7_System_error_category@std@@6B@ 100abe44     mriapi.obj
 0002:00000e5c       ??_C@_06FHFOAHML@system?$AA@ 100abe5c     mriapi.obj
 0002:00000e64       ??_C@_1CC@DJGMBIBP@?$AAM?$AAr?$AAi?$AA?5?$AAD?$AAe?$AAb?$AAu?$AAg?$AA?5?$AAL?$AAe?$AAv?$AAe?$AAl?$AAs?$AA?$AA@ 100abe64     mriapi.obj
 0002:00000e88       ??_C@_1BE@LIPCDJGG@?$AAM?$AAr?$AAi?$AAM?$AAo?$AAd?$AAu?$AAl?$AAe?$AA?$AA@ 100abe88     mriapi.obj
 0002:00000ea0       ??_C@_1EG@GLDMGPLG@?$AAR?$AAe?$AAp?$AAo?$AAr?$AAt?$AAs?$AA?5?$AAF?$AAu?$AAn?$AAc?$AAt?$AAi?$AAo?$AAn?$AA?5?$AAE?$AAn?$AAt?$AAr?$AAy?$AA?5?$AAa?$AAn?$AAd?$AA?1?$AAo?$AAr?$AA?5?$AAE?$AAx@ 100abea0     mriapi.obj
 0002:00000ee8       ??_C@_1BA@BFBEPFAB@?$AAV?$AAe?$AAr?$AAb?$AAo?$AAs?$AAe?$AA?$AA@ 100abee8     mriapi.obj
 0002:00000ef8       ??_C@_1HC@OCACJAGE@?$AAT?$AAr?$AAa?$AAc?$AAk?$AAs?$AA?5?$AAA?$AAl?$AAl?$AA?5?$AAM?$AAe?$AAs?$AAs?$AAa?$AAg?$AAe?$AAs?$AA?5?$AAS?$AAe?$AAn?$AAt?$AA?5?$AAo?$AAr?$AA?5?$AAR?$AAe?$AAc?$AAe@ 100abef8     mriapi.obj
 0002:00000f6c       ??_C@_1BC@DFKICBKN@?$AAD?$AAa?$AAt?$AAa?$AAP?$AAa?$AAt?$AAh?$AA?$AA@ 100abf6c     mriapi.obj
 0002:00000f80       ??_C@_1FM@MHDDKGAP@?$AAR?$AAe?$AAp?$AAo?$AAr?$AAt?$AAs?$AA?5?$AAI?$AAn?$AAf?$AAr?$AAe?$AAq?$AAu?$AAe?$AAn?$AAt?$AA?0?$AA?5?$AAN?$AAo?$AAn?$AA?9?$AAd?$AAi?$AAs?$AAr?$AAu?$AAp?$AAt?$AAi@ 100abf80     mriapi.obj
 0002:00000fdc       ??_C@_1O@FKFMHEKL@?$AAI?$AAn?$AAf?$AAo?$AAr?$AAm?$AA?$AA@ 100abfdc     mriapi.obj
 0002:00000ff0       ??_C@_1EG@OKLLCMBJ@?$AAR?$AAe?$AAp?$AAo?$AAr?$AAt?$AAs?$AA?5?$AAN?$AAo?$AAn?$AA?9?$AAF?$AAa?$AAt?$AAa?$AAl?$AA?5?$AAE?$AAx?$AAc?$AAe?$AAc?$AAu?$AAt?$AAi?$AAo?$AAn?$AA?5?$AAE?$AAr?$AAr@ 100abff0     mriapi.obj
 0002:00001038       ??_C@_1BA@GLMCNLEM@?$AAW?$AAa?$AAr?$AAn?$AAi?$AAn?$AAg?$AA?$AA@ 100ac038     mriapi.obj
 0002:00001048       ??_C@_1DE@KBNLMGFO@?$AAR?$AAe?$AAp?$AAo?$AAr?$AAt?$AAs?$AA?5?$AAF?$AAa?$AAi?$AAl?$AAu?$AAr?$AAe?$AA?5?$AAC?$AAo?$AAn?$AAd?$AAi?$AAt?$AAi?$AAo?$AAn?$AA?$AA@ 100ac048     mriapi.obj
 0002:0000107c       ??_C@_1M@ILHOPKA@?$AAE?$AAr?$AAr?$AAo?$AAr?$AA?$AA@ 100ac07c     mriapi.obj
 0002:00001088       ??_C@_1EC@ONBGPBLN@?$AAT?$AAr?$AAa?$AAc?$AAk?$AAs?$AA?5?$AAb?$AAu?$AAf?$AAf?$AAe?$AAr?$AA?5?$AAa?$AAl?$AAl?$AAo?$AAc?$AAa?$AAt?$AAi?$AAo?$AAn?$AA?1?$AAr?$AAe?$AAl?$AAe?$AAa?$AAs?$AAe@ 100ac088     mriapi.obj
 0002:000010cc       ??_C@_1M@LDECHGGH@?$AAA?$AAl?$AAl?$AAo?$AAc?$AA?$AA@ 100ac0cc     mriapi.obj
 0002:000010d8       ??_C@_15MAOEGKJF@?$AA?$CF?$AAS?$AA?$AA@ 100ac0d8     mriapi.obj
 0002:000010e0       ??_C@_0O@DCBALEHP@?4?4?2mriapi?4cpp?$AA@ 100ac0e0     mriapi.obj
 0002:000010f0       ??_C@_1DO@LFBGBAMD@?$AAM?$AAr?$AAi?$AAM?$AAo?$AAd?$AAu?$AAl?$AAe?$AA?$DN?$AAW?$AAa?$AAr?$AAn?$AAi?$AAn?$AAg?$AA?0?$AAE?$AAr?$AAr?$AAo?$AAr?$AA?0?$AAI?$AAn?$AAf?$AAo?$AAr?$AAm?$AA?$AA@ 100ac0f0     mriapi.obj
 0002:00001130       ??_C@_1CC@MHGJOLDK@?$AAM?$AAr?$AAi?$AAM?$AAo?$AAd?$AAu?$AAl?$AAe?$AA?$DN?$AA?$CF?$AAp?$AAr?$AAi?$AAn?$AAt?$AA?$AA@ 100ac130     mriapi.obj
 0002:00001154       ??_C@_0DH@BOEKPMA@MRI?3?5Instantiate1?3Could?5Not?5Map?5@ 100ac154     mriapi.obj
 0002:0000118c       ??_C@_0DH@NCHPLDDL@MRI?3?5Instantiate2?3Could?5Not?5Map?5@ 100ac18c     mriapi.obj
 0002:000011c4       ??_C@_0CF@NIKGGNDJ@MRI?3?5Instantiate?5Successful?0?5m_s@ 100ac1c4     mriapi.obj
 0002:000011ec       ??_C@_0L@JCPHKADL@13?44?402?42?$AA?$AA@ 100ac1ec     mriapi.obj
 0002:000011f8       ??_C@_0BI@BJKNMHBL@MRI?5Version?5Level?5is?5?$CFs?$AA@ 100ac1f8     mriapi.obj
 0002:00001210       ??_C@_0BH@BCHJKHKK@MRI?3?5Entering?5MRI?5Open?$AA@ 100ac210     mriapi.obj
 0002:00001228       ??_C@_1O@PBKBLIMF@?$AAc?$AAa?$AAl?$AAl?$AAo?$AAc?$AA?$AA@ 100ac228     mriapi.obj
 0002:00001238       ??_C@_1BG@OHFIBPNE@?$AAZ?$AAe?$AAr?$AAo?$AAM?$AAe?$AAm?$AAo?$AAr?$AAy?$AA?$AA@ 100ac238     mriapi.obj
 0002:00001250       ??_C@_1CA@GKILEJO@?$AAO?$AAp?$AAe?$AAn?$AAF?$AAi?$AAl?$AAe?$AAM?$AAa?$AAp?$AAp?$AAi?$AAn?$AAg?$AA?$AA@ 100ac250     mriapi.obj
 0002:00001270       ??_C@_1CO@HBIGDBCH@?$AAM?$AAR?$AA_?$AAR?$AAO?$AAU?$AAT?$AAI?$AAN?$AAG?$AA_?$AAV?$AAE?$AAC?$AAT?$AAO?$AAR?$AA_?$AAF?$AAI?$AAL?$AAE?$AA?$AA@ 100ac270     mriapi.obj
 0002:000012a0       ??_C@_0BH@LGMLBGBM@Cant?5view?5RDS?0error?$DN?$CFx?$AA@ 100ac2a0     mriapi.obj
 0002:000012b8       ??_C@_1BM@LJMGGJM@?$AAM?$AAa?$AAp?$AAV?$AAi?$AAe?$AAw?$AAO?$AAf?$AAF?$AAi?$AAl?$AAe?$AA?$AA@ 100ac2b8     mriapi.obj
 0002:000012d4       ??_C@_1BE@BEHPNLAH@?$AAO?$AAp?$AAe?$AAn?$AAM?$AAu?$AAt?$AAe?$AAx?$AA?$AA@ 100ac2d4     mriapi.obj
 0002:000012e8       ??_C@_1CC@GGGEMONL@?$AAR?$AAD?$AAS?$AA_?$AAM?$AAU?$AAT?$AAE?$AAX?$AA?5?$AA?$CF?$AAd?$AA?0?$AA?5?$AA?$CF?$AAd?$AA?$AA@ 100ac2e8     mriapi.obj
 0002:0000130c       ??_C@_1CC@BBCPDBMF@?$AAC?$AAM?$AAM?$AA_?$AAG?$AAL?$AAO?$AAB?$AAA?$AAL?$AAS?$AA_?$AAF?$AAI?$AAL?$AAE?$AA?$AA@ 100ac30c     mriapi.obj
 0002:00001330       ??_C@_1CE@KLEPKKF@?$AAC?$AAM?$AAM?$AA_?$AAG?$AAL?$AAO?$AAB?$AAA?$AAL?$AAS?$AA_?$AAM?$AAU?$AAT?$AAE?$AAX?$AA?$AA@ 100ac330     mriapi.obj
 0002:00001358       ??_C@_1EA@HOPCMJCI@?$AAE?$AAx?$AAc?$AAe?$AAp?$AAt?$AAi?$AAo?$AAn?$AA?3?$AA?5?$AA0?$AAx?$AA?$CF?$AA0?$AA8?$AAx?$AA?5?$AAa?$AAd?$AAd?$AAr?$AA?3?$AA?5?$AA0?$AAx?$AA?$CF?$AA0?$AA8?$AAx?$AA?6?$AA?$AA@ 100ac358     mriapi.obj
 0002:00001398       ??_C@_1FK@PCJJCINN@?$AA?5?$AA?5?$AA?5?$AA?5?$AA?$CI?$AAA?$AAd?$AAd?$AAr?$AA?5?$AAe?$AAx?$AAc?$AAe?$AAp?$AAt?$AAi?$AAo?$AAn?$AA?$CJ?$AA?6?$AA?7?$AAs?$AAp?$AA?3?$AA?5?$AA0?$AAx?$AA?$CF?$AA0?$AA8?$AAx@ 100ac398     mriapi.obj
 0002:000013f4       ??_C@_1BM@ELDCPHKE@?$AA?4?$AA?4?$AA?2?$AAm?$AAr?$AAi?$AAa?$AAp?$AAi?$AA?4?$AAc?$AAp?$AAp?$AA?$AA@ 100ac3f4     mriapi.obj
 0002:00001410       ??_C@_0EF@FKPDIPC@MRI?3?5Open?5Request?3?5Exception?5Thr@ 100ac410     mriapi.obj
 0002:00001458       ??_C@_0CL@INPIPFDK@MRI?3?5Open?5Request?3?5Status?$DN?$CFx?0?5La@ 100ac458     mriapi.obj
 0002:00001484       ??_C@_0CP@JLNCNNFL@MRI?3?5Open?5Failed?5To?5Handle?5Statu@ 100ac484     mriapi.obj
 0002:000014b4       ??_C@_0CM@IIOAMIMF@MRI?3?5Problem?5in?5file?5?$CFs?0?5Line?5?$CFd@ 100ac4b4     mriapi.obj
 0002:000014e0       ??_C@_0CD@MGIIAJPO@MRI?3?5Open?5Request?3?5GetLastError?$DN@ 100ac4e0     mriapi.obj
 0002:00001504       ??_C@_0CN@DFPKFDLL@MRI?3?5Open?5Request?3?5Status?$DN?$CFx?5hFi@ 100ac504     mriapi.obj
 0002:00001534       ??_C@_0BO@MCAEIHID@MRI?3?5Close?5Request?3?5Status?$DN?$CFx?$AA@ 100ac534     mriapi.obj
 0002:00001558       ??_C@_0EC@MFAEGIJA@MRI?3?5AttachPort?5Failed?0?5Status?$DN?$CF@ 100ac558     mriapi.obj
 0002:0000159c       ??_C@_0DO@MKGKBMDJ@MRI?3?5Port?5Attached?0?5Status?$DN?$CFx?0?5P@ 100ac59c     mriapi.obj
 0002:000015e0       ??_C@_0EG@GLFLCEMB@MRI?3?5Detach?5Port?5Failure?0?5Status@ 100ac5e0     mriapi.obj
 0002:00001628       ??_C@_0EF@MHJEDJDK@MRI?3?5Detach?5Port?5Failure?0?5Status@ 100ac628     mriapi.obj
 0002:00001670       ??_C@_0DN@GBFGEJF@MRI?3?5Detach?5Port?0?5Status?$DN?$CFx?0?5hPo@ 100ac670     mriapi.obj
 0002:000016b0       ??_C@_0DC@FDEBOPP@MRI?3?5No?5Msg?5Retrieved?5From?5Non?9E@ 100ac6b0     mriapi.obj
 0002:000016e8       ??_C@_0EC@OJJPMONL@MRI?3?5GetMessageFromReceiveQueue?5@ 100ac6e8     mriapi.obj
 0002:00001730       ??_C@_0FJ@IPMGLNMI@Message_Routing_Interface?3?3GetMe@ 100ac730     mriapi.obj
 0002:0000178c       ??_C@_0DA@CIKDBKAL@MRI?3?5Receive?5Failure?5by?5Default?0@ 100ac78c     mriapi.obj
 0002:000017bc       ??_C@_0CJ@OOGJCDLA@MRI?3?5Receive?5Failure?0?5Status?$DN?$CFx?0@ 100ac7bc     mriapi.obj
 0002:000017e8       ??_C@_0EF@GLBOKMNI@TraceBitSet?5in?5Rcvd?5Msg?0?5OpClass@ 100ac7e8     mriapi.obj
 0002:00001830       ??_C@_0DK@EFHBGCDI@MRI?3?5Receive?5Message?0?5Status?$DN?$CFx?0@ 100ac830     mriapi.obj
 0002:00001870       ??_C@_1EE@GDJACLEL@?$AAM?$AAR?$AAI?$AA?3?$AA?3?$AAA?$AAl?$AAl?$AAo?$AAc?$AAa?$AAt?$AAe?$AAB?$AAu?$AAf?$AA?3?$AA?5?$AAr?$AAt?$AAn?$AAA?$AAd?$AAd?$AAr?$AA?3?$AA?5?$AA0?$AAx?$AA?$CF?$AA0?$AA8@ 100ac870     mriapi.obj
 0002:000018b4       ??_C@_0DG@HDNFALA@MRI?3?5AllocateBuf?5Failed?0?5Status?$DN@ 100ac8b4     mriapi.obj
 0002:000018ec       ??_C@_0BM@LDPMLOIM@MRI?3?5AllocateBuf?0?5Status?$DN?$CFx?$AA@ 100ac8ec     mriapi.obj
 0002:00001908       ??_C@_0CE@CANLBELH@MRI?3?5AllocateBuf?0?5Buff?5allocated@ 100ac908     mriapi.obj
 0002:00001930       ??_C@_1JA@JLBKGMPC@?$AAM?$AAR?$AAI?$AA?3?$AA?3?$AAD?$AAu?$AAm?$AAp?$AAH?$AAd?$AAr?$AA?$CI?$AAN?$AA?$CJ?$AA?3?$AA?$CI?$AA1?$AA?1?$AA2?$AA?5?$AAp?$AAM?$AAs?$AAg?$AA?3?$AA?$CF?$AA0?$AA8?$AAx?$AA?$CJ?$AA?5@ 100ac930     mriapi.obj
 0002:000019c0       ??_C@_1IK@KIOHJMBJ@?$AAM?$AAR?$AAI?$AA?3?$AA?3?$AAD?$AAu?$AAm?$AAp?$AAH?$AAd?$AAr?$AA?$CI?$AAN?$AA?$CJ?$AA?3?$AA?$CI?$AA2?$AA?1?$AA2?$AA?5?$AAp?$AAM?$AAs?$AAg?$AA?3?$AA?$CF?$AA0?$AA8?$AAx?$AA?5?$AA?$CL@ 100ac9c0     mriapi.obj
 0002:00001a4c       ??_C@_1CM@LIBGJNPP@?$AA?5?$AA?1?$AA?5?$AAl?$AAp?$AAv?$AAD?$AAa?$AAt?$AAa?$AA?3?$AA?5?$AA?$CF?$AA0?$AA8?$AAx?$AA?5?$AA?$CF?$AA0?$AA8?$AAx?$AA?$AA@ 100aca4c     mriapi.obj
 0002:00001a78       ??_C@_1CC@FBBOIJPJ@?$AA?5?$AA?1?$AA?5?$AAl?$AAp?$AAv?$AAD?$AAa?$AAt?$AAa?$AA?3?$AA?5?$AA?$CF?$AA0?$AA8?$AAx?$AA?$AA@ 100aca78     mriapi.obj
 0002:00001a9c       ??_C@_1CE@NEMHLKGP@?$AA?5?$AA?1?$AA?5?$AAl?$AAp?$AAv?$AAD?$AAa?$AAt?$AAa?$AA?3?$AA?5?$AAn?$AAo?$AAn?$AAe?$AA?5?$AA?$AA@ 100aca9c     mriapi.obj
 0002:00001ac0       ??_C@_1CC@MBABIJLJ@?$AA?5?$AA?1?$AA?5?$AAl?$AAp?$AAv?$AAD?$AAa?$AAt?$AAa?$AA?3?$AA?5?$AAb?$AAa?$AAd?$AA?5?$AA?$AA@ 100acac0     mriapi.obj
 0002:00001ae8       ??_C@_1FO@JHMGGIDO@?$AAM?$AAR?$AAI?$AA?3?$AA?3?$AAD?$AAu?$AAm?$AAp?$AAH?$AAd?$AAr?$AA?3?$AA?5?$AAp?$AAM?$AAs?$AAg?$AA?3?$AA?5?$AA?$CF?$AA0?$AA8?$AAx?$AA?5?$AA?9?$AA?5?$AAc?$AAa?$AAn?$AAn?$AAo@ 100acae8     mriapi.obj
 0002:00001b48       ??_C@_0CH@LJLMLLJG@MRI?3?5Freeing?5Buffer?0?5Return?5Addr@ 100acb48     mriapi.obj
 0002:00001b70       ??_C@_0EJ@MPHJFGEF@MRI?3?5Call?5To?5GetBufferBase?5Faile@ 100acb70     mriapi.obj
 0002:00001bc0       ??_C@_0EI@NHGDDAN@MRI?3?5Contiguous?5Buffer?5Has?5Bad?5L@ 100acbc0     mriapi.obj
 0002:00001c08       ??_C@_0FA@PJBNNCEN@MRI?3?5Call?51?5To?5BuffMgr?5Failed?0?5R@ 100acc08     mriapi.obj
 0002:00001c58       ??_C@_0BM@HGMNEPE@MRI?3FreeBuf?5Free?5msgdata?$DN?$CFx?$AA@ 100acc58     mriapi.obj
 0002:00001c78       ??_C@_0EP@EJFEKENC@MRI?3?5Call2?5To?5BuffMgr?5Failed?0?5Re@ 100acc78     mriapi.obj
 0002:00001cc8       ??_C@_0BJ@HANAMNII@MRI?3FreeBuf?5Free?5data?$DN?$CFx?$AA@ 100accc8     mriapi.obj
 0002:00001ce8       ??_C@_0EP@BADCJMLJ@MRI?3?5Call3?5To?5BuffMgr?5Failed?0?5Re@ 100acce8     mriapi.obj
 0002:00001d38       ??_C@_0BI@IENKJENB@MRI?3FreeBuf?5Free?5msg?$DN?$CFx?$AA@ 100acd38     mriapi.obj
 0002:00001d50       ??_C@_0CA@PKDNLMPG@MRI?3?5FreeBuff?5Failed?0?5Status?$DN?$CFx?$AA@ 100acd50     mriapi.obj
 0002:00001d70       ??_C@_0BJ@MBNJIFAC@MRI?3?5FreeBuff?0?5Status?$DN?$CFx?$AA@ 100acd70     mriapi.obj
 0002:00001d90       ??_C@_0EK@LHJHDFLN@MRI?3?5Call4?5To?5GetBufferBase?5Fail@ 100acd90     mriapi.obj
 0002:00001de0       ??_C@_0EP@FDEKAIFC@MRI?3?5Call5?5To?5BuffMgr?5Failed?0?5Re@ 100acde0     mriapi.obj
 0002:00001e30       ??_C@_0CB@DICLNEFH@MRI?3?5FreeBuff2?5Failed?0?5Status?$DN?$CFx@ 100ace30     mriapi.obj
 0002:00001e54       ??_C@_0BJ@CEPALLOA@MRI?3?5FreeBuff2?5Status?$DN?$CFx?$AA@ 100ace54     mriapi.obj
 0002:00001e70       ??_C@_0DP@OKPMLLGM@MRI?3?5CreateEqueue?0?5Could?5Not?5Map@ 100ace70     mriapi.obj
 0002:00001eb0       ??_C@_0EA@HEINOLBH@MRI?3?5CreateEqueue?0?5Could?5Not?5Map@ 100aceb0     mriapi.obj
 0002:00001ef0       ??_C@_1CA@KOKMLCMD@?$AAE?$AAV?$AAE?$AAN?$AAT?$AA_?$AAQ?$AA_?$AAF?$AAI?$AAL?$AAE?$AA?5?$AA?$CF?$AAd?$AA?$AA@ 100acef0     mriapi.obj
 0002:00001f10       ??_C@_1CA@GMPEECN@?$AAE?$AAV?$AAE?$AAN?$AAT?$AAQ?$AA_?$AAM?$AAU?$AAT?$AAE?$AAX?$AA?5?$AA?$CF?$AAd?$AA?$AA@ 100acf10     mriapi.obj
 0002:00001f30       ??_C@_1CI@NBELGIEN@?$AAE?$AAV?$AAE?$AAN?$AAT?$AAQ?$AA_?$AAS?$AAE?$AAM?$AAA?$AAP?$AAH?$AAO?$AAR?$AAE?$AA?5?$AA?$CF?$AAd?$AA?$AA@ 100acf30     mriapi.obj
 0002:00001f58       ??_C@_0CK@INAJPGAN@Create?5EQueue?5Failed?0?5Status?$DN?$CFx?0@ 100acf58     mriapi.obj
 0002:00001f84       ??_C@_0CM@HDAMGJBI@UnMap?5EventQ?5Failed?5in?5CreateEQu@ 100acf84     mriapi.obj
 0002:00001fb0       ??_C@_0DB@HFEPLAAH@Close?5Event?5Q?5MMF?5Failed?5in?5Crea@ 100acfb0     mriapi.obj
 0002:00001fe4       ??_C@_0CL@IHAOIADA@Close?5Mutex?5Failed?5in?5CreateEQue@ 100acfe4     mriapi.obj
 0002:00002010       ??_C@_0CP@CGKMELJA@Close?5Semaphore?5Failed?5in?5Create@ 100ad010     mriapi.obj
 0002:00002040       ??_C@_0DE@LDDIDHHF@Create?5EQueue?5Failed?5in?5Catch2?0?5@ 100ad040     mriapi.obj
 0002:00002074       ??_C@_0DG@OMNADHGN@MRI?3?5CreateEqueue?5Status?$DN?$CFx?0?5Ope@ 100ad074     mriapi.obj
 0002:000020ac       ??_C@_0CP@KCJHLDKL@MRI?3?5WaitEqueue?5Failure?0?5Status?$DN@ 100ad0ac     mriapi.obj
 0002:000020dc       ??_C@_0DP@EGKPKPGE@MRI?3?5WaitEqueue?5Failure?5in?5secon@ 100ad0dc     mriapi.obj
 0002:0000211c       ??_C@_0CG@MMNAKAIM@MRI?3?5WaitEqueue?5Status?$DN?$CFx?0?5hEque@ 100ad11c     mriapi.obj
 0002:00002148       ??_C@_0EB@PJJLPHBM@MRI?3?5DestroyEqueue?5Failure?5in?5fi@ 100ad148     mriapi.obj
 0002:00002190       ??_C@_0EC@LBOMPEML@MRI?3?5DestroyEqueue?5Failure?5in?5se@ 100ad190     mriapi.obj
 0002:000021d4       ??_C@_0CK@KFDPKBBH@MRI?3?5DestroyEqueue?0?5Status?$DN?$CFx?0?5h@ 100ad1d4     mriapi.obj
 0002:00002200       ??_C@_0EL@IFGPPIDI@MRI?3?5SendMRIMsg?5Received?5Message@ 100ad200     mriapi.obj
 0002:00002250       ??_C@_0FI@LMODMDBC@MRI?3?5SendMRIMsg?5HMS?5not?5availabl@ 100ad250     mriapi.obj
 0002:000022a8       ??_C@_0DI@MKCHJIOG@MRI?3?5SendMRIMsg?5Error?0?5Status?$DN?$CFx@ 100ad2a8     mriapi.obj
 0002:000022e0       ??_C@_0DD@FEFAGHJF@MRI?3?5Send?5Requested?0?5bufType?$DN?$CFx?0@ 100ad2e0     mriapi.obj
 0002:00002314       ??_C@_0DC@NCPIKHGP@MRI?3?5Send?5Error?0?5Status?$DN?$CFx?0?5OpCl@ 100ad314     mriapi.obj
 0002:00002348       ??_C@_0DN@BEHOODJL@MRI?3?5Send?5Error?5in?5Catch?52?0?5Stat@ 100ad348     mriapi.obj
 0002:00002388       ??_C@_0DO@MDCHOKDH@MRI?3?5Send?5Completed?5Status?$DN?$CFx?0?5O@ 100ad388     mriapi.obj
 0002:000023c8       ??_C@_15ENIGNDNG@?$AAS?$AAC?$AA?$AA@ 100ad3c8     mriapi.obj
 0002:000023d0       ??_C@_0DK@CNBGLOAH@MRI?3?5OpenFileMapping?5Failed?0?5Err@ 100ad3d0     mriapi.obj
 0002:0000240c       ??_C@_0DJ@EOGKHMBC@MRI?3?5MapViewOfFile?5Failed?0?5Err?$DN?$CF@ 100ad40c     mriapi.obj
 0002:00002448       ??_C@_0DN@BPBEGDEI@MRI?3?5OpenFileMapping?5Failed?0?5Err@ 100ad448     mriapi.obj
 0002:00002488       ??_C@_0CP@KAHJGAJM@MRI?3?5GetPortInfo?5Written?5route?$DN?$CF@ 100ad488     mriapi.obj
 0002:000024b8       ??_C@_0DA@KKBEKCHD@MRI?3?5GetPortInfo?5Failed?5Due?5To?5?$CF@ 100ad4b8     mriapi.obj
 0002:000024e8       ??_C@_0DN@FFCBAEPM@GetPortInfo?5Failed?5In?5Critical?5C@ 100ad4e8     mriapi.obj
 0002:00002528       ??_C@_0CJ@HCOJFNAO@MRI?3?5GetPortInfo?5Status?$DN?$CFx?5for?5p@ 100ad528     mriapi.obj
 0002:00002554       ??_C@_0DG@HFMLAAGM@MRI?3?5GetRouteInfo?5Failed?5Due?5to?5@ 100ad554     mriapi.obj
 0002:00002590       ??_C@_0ED@DBHENDPO@MRI?3?5GetRouteInfo?5Failed?5Unexpec@ 100ad590     mriapi.obj
 0002:000025d4       ??_C@_0BA@JFNIOLAK@string?5too?5long?$AA@ 100ad5d4     mriapi.obj
 0002:000025e4       ??_C@_0BI@CFPLBAOH@invalid?5string?5position?$AA@ 100ad5e4     mriapi.obj
 0002:00002600       ??_C@_0EE@NKOBAKLH@MRI?3?5TraceBitSet?5on?5IntraBoard?5S@ 100ad600     mriint.obj
 0002:00002644       ??_C@_0O@GJFMFJBM@?4?4?2mriint?4cpp?$AA@ 100ad644     mriint.obj
 0002:00002654       ??_C@_0CM@GOOIKMPE@Mri?3?5ProcessIntraBoardMsg?5failur@ 100ad654     mriint.obj
 0002:00002680       ??_C@_1BM@HLPONBF@?$AA?4?$AA?4?$AA?2?$AAm?$AAr?$AAi?$AAi?$AAn?$AAt?$AA?4?$AAc?$AAp?$AAp?$AA?$AA@ 100ad680     mriint.obj
 0002:0000269c       ??_C@_0DH@JPKIKMC@Mri?3?5ProcessIntraBoardMsg?5unexpe@ 100ad69c     mriint.obj
 0002:000026d4       ??_C@_0CF@OHOMEGDI@Mri?3?5ProcessIntraBoardMsg?0?5statu@ 100ad6d4     mriint.obj
 0002:000026fc       ??_C@_0BP@EIINOPDG@Mri?3?5CopyMsg?5failure?5status?$DN?$CFx?$AA@ 100ad6fc     mriint.obj
 0002:0000271c       ??_C@_0BI@BLCPFCKA@Mri?3?5CopyMsg?0?5status?$DN?$CFx?$AA@ 100ad71c     mriint.obj
 0002:00002734       ??_C@_0CJ@PBJOMCBI@Mri?3?5UpdateActiveBoard?5failure?5s@ 100ad734     mriint.obj
 0002:00002760       ??_C@_0DE@JOOCJDGD@Mri?3?5UpdateActiveBoard?5unexpecte@ 100ad760     mriint.obj
 0002:00002794       ??_C@_0CC@GDMAIDFA@Mri?3?5UpdateActiveBoard?0?5status?$DN?$CF@ 100ad794     mriint.obj
 0002:000027b8       ??_C@_0ED@IBCFLFFO@m_MRIGlobal?5is?5null?5when?5process@ 100ad7b8     mriint.obj
 0002:000027fc       ??_C@_0CF@LCGEDINN@Mri?3?5ProcessMRIMsg?5failure?5statu@ 100ad7fc     mriint.obj
 0002:00002824       ??_C@_0DA@ONLIIDAL@Mri?3?5ProcessMRIMsg?5unexpected?5fa@ 100ad824     mriint.obj
 0002:00002854       ??_C@_0BO@PDBBNINK@Mri?3?5ProcessMRIMsg?0?5status?$DN?$CFx?$AA@ 100ad854     mriint.obj
 0002:00002878       ??_7THR_Semaphore@@6B@     100ad878     mrishared.obj
 0002:00002884       ??_C@_0BB@JHOIOBFG@?4?4?2mrishared?4cpp?$AA@ 100ad884     mrishared.obj
 0002:00002898       ??_C@_0DE@KKNFIKAG@MRI?3?5GetLock?5Failed?5due?5to?5Statu@ 100ad898     mrishared.obj
 0002:000028cc       ??_C@_1CC@LCJMOHID@?$AA?4?$AA?4?$AA?2?$AAm?$AAr?$AAi?$AAs?$AAh?$AAa?$AAr?$AAe?$AAd?$AA?4?$AAc?$AAp?$AAp?$AA?$AA@ 100ad8cc     mrishared.obj
 0002:000028f0       ??_C@_0DP@NOJGDDB@MriSharedInternals?3?3GetLock?$CI?$CJ?5Fa@ 100ad8f0     mrishared.obj
 0002:00002930       ??_C@_0EL@NJHMPPDL@SwitchSendBoard?5Message?5Received@ 100ad930     mrishared.obj
 0002:00002980       ??_C@_0EB@GGPPBLAN@OP_SET_SEND_BOARD?5has?5bad?5Send?5I@ 100ad980     mrishared.obj
 0002:000029c4       ??_C@_0DL@PFBDCLGF@ScHandleHotInsertion?5Failed?5To?5G@ 100ad9c4     mrishared.obj
 0002:00002a00       ??_C@_0FD@JCNDDGEO@IOMgr?5Switchover?5occuring?5from?5B@ 100ada00     mrishared.obj
 0002:00002a54       ??_C@_0DN@JOMMCDLI@ProcessSwitchSendBoard?5Failed?0?5R@ 100ada54     mrishared.obj
 0002:00002a98       ??_C@_0EA@LEOLKHOO@ProcessSwitchSendBoard?5Completed@ 100ada98     mrishared.obj
 0002:00002ad8       ??_C@_0ED@LAIJNNMD@Send?5Q?5is?5half?5full?5and?5will?5ove@ 100adad8     mrishared.obj
 0002:00002b1c       ??_C@_0BH@MKPBDLFG@MRI?5Dispatch1?5Error?$DN?$CFx?$AA@ 100adb1c     mrishared.obj
 0002:00002b38       ??_C@_0EJ@NLGLAAPK@MRI?3?5Unable?5To?5Place?5Msg?5in?5Q?0?5M@ 100adb38     mrishared.obj
 0002:00002b84       ??_C@_0BH@FDBDFNFH@MRI?5Dispatch2?5Error?$DN?$CFx?$AA@ 100adb84     mrishared.obj
 0002:00002b9c       ??_C@_0BH@JCJNICJH@MRI?5Dispatch3?5Error?$DN?$CFx?$AA@ 100adb9c     mrishared.obj
 0002:00002bb8       ??_C@_0EF@IHBFDMCJ@MRI?3?5Rcvd?5Msg?5Placed?5in?5Q?0?5MsgPt@ 100adbb8     mrishared.obj
 0002:00002c00       ??_C@_0BH@IPHEMBOI@MRI?5Dispatch?5Status?$DN?$CFx?$AA@ 100adc00     mrishared.obj
 0002:00002c18       ??_C@_0EH@DPAHABAL@FindMRCB?3?5No?5OpenHandle?5for?5this@ 100adc18     mrishared.obj
 0002:00002c60       ??_C@_0FD@IKMMLAGL@FindMRCB?3?5Target?5MRCB?5Null?5in?5ML@ 100adc60     mrishared.obj
 0002:00002cb8       ??_C@_0EJ@PBFKPEL@FindMRCB?3?5MRCB?5found?5in?5MLIST?0?5S@ 100adcb8     mrishared.obj
 0002:00002d08       ??_C@_0EJ@KPCDMALO@Port?5Not?5Registered?3?5MRCB?5Bad?0?5S@ 100add08     mrishared.obj
 0002:00002d58       ??_C@_0FA@NONDNLLG@FindMRCB?3?5MRCB?5NOT?5found?5in?5MLIS@ 100add58     mrishared.obj
 0002:00002da8       ??_C@_0EP@CPJDIHPG@Port?5Not?5Registered?3?5error?5in?5ML@ 100adda8     mrishared.obj
 0002:00002df8       ??_C@_0EG@LKCCCBGL@FindMRCB?3?5Mapped?5Routing?5Vector?5@ 100addf8     mrishared.obj
 0002:00002e40       ??_C@_0EG@IOJPLOEO@Port?5Not?5Registered?3?5Null?5PortIn@ 100ade40     mrishared.obj
 0002:00002e88       ??_C@_0EH@BMPBKFDN@Port?5Not?5Registered?3?5Null?5PortVe@ 100ade88     mrishared.obj
 0002:00002ed0       ??_C@_0DP@CFHOGJLG@Port?5Not?5Registered?3?5No?5MRCB?0?5St@ 100aded0     mrishared.obj
 0002:00002f10       ??_C@_0EG@EAJKGLLM@PortNot?5Registered?3?5Can?8t?5view?5M@ 100adf10     mrishared.obj
 0002:00002f58       ??_C@_0EP@DDMHFGMC@FindMRCB?3?5MRCB?5Put?5in?5MLIST?0?5pPo@ 100adf58     mrishared.obj
 0002:00002fa8       ??_C@_0EH@KDGBPOII@Port?5Not?5Registered?3?5FindMRCB?5ca@ 100adfa8     mrishared.obj
 0002:00002ff0       ??_C@_0EH@MHIBIFHG@Port?5Not?5Registered?3?5FindMRCB?5ca@ 100adff0     mrishared.obj
 0002:00003038       ??_C@_0DJ@DDOJHDGE@MRI?3?5FindMRCB?0?5Status?$DN?$CFx?0?5PortId@ 100ae038     mrishared.obj
 0002:00003078       ??_C@_0EN@LHHBHGHE@ProcessInterBoardMsg?3SendMRI?5mes@ 100ae078     mrishared.obj
 0002:000030c8       ??_C@_0DA@GGEICMAH@MRI?3?5IBCM?5Failure?5on?5Interboard?5@ 100ae0c8     mrishared.obj
 0002:000030f8       ??_C@_1CK@IPLCNHBA@?$AAU?$AAn?$AAe?$AAx?$AAp?$AAe?$AAc?$AAt?$AAe?$AAd?$AA?5?$AAE?$AAx?$AAc?$AAe?$AAp?$AAt?$AAi?$AAo?$AAn?$AA?$AA@ 100ae0f8     mrishared.obj
 0002:00003128       ??_C@_0EE@ENPMGNMO@MRI?3?5ProcessInterBoardMsg?5failur@ 100ae128     mrishared.obj
 0002:0000316c       ??_C@_0CF@BAHFLLON@MRI?3?5ProcessInterBoardMsg?0?5retva@ 100ae16c     mrishared.obj
 0002:00003194       ??_C@_0CI@HOIBINDB@MRI?3?5ReturnSendStatus?5Failed?0?5st@ 100ae194     mrishared.obj
 0002:000031bc       ??_C@_0BI@JDBEKNKJ@MRI?3ReturnSendStatus?$DN?$CFx?$AA@ 100ae1bc     mrishared.obj
 0002:000031d4       ??_C@_0DA@EDFMFLIO@Event?5Q?5full?3?5RClass?$DN?$CFx?0?5OpClass@ 100ae1d4     mrishared.obj
 0002:00003204       ??_C@_0CH@BJHPJHJI@Signal?5Equeue?5failure?0?5error?5sta@ 100ae204     mrishared.obj
 0002:0000322c       ??_C@_0BN@NKMLIDCO@MRI?3?5SignalEqueue?0?5status?5?$CFx?$AA@ 100ae22c     mrishared.obj
 0002:0000324c       ??_C@_0CJ@NMFIGJAL@System?5is?5running?5as?5a?5Signaling@ 100ae24c     mrishared.obj
 0002:00003278       ??_C@_0CF@KLCENPOC@System?5is?5running?5as?5a?5Media?5Ser@ 100ae278     mrishared.obj
 0002:000032a0       ??_C@_0CI@DEGPJFAC@MRI?3?5System?5is?5running?5as?5Media?5@ 100ae2a0     mrishared.obj
 0002:000032c8       ??_C@_0EP@OPGOCDGD@MRI?3?5Failed?5to?5get?5Server?5Type?5a@ 100ae2c8     mrishared.obj
 0002:00003318       ??_C@_0DP@LMCFKIOC@Failure?5attempting?5to?5obtain?5SC?5@ 100ae318     mrishared.obj
 0002:00003358       ??_C@_0DL@JCHHNCKO@MRI?5ValidateMd?0?5Message?5Contiguo@ 100ae358     mrishared.obj
 0002:00003394       ??_C@_0DO@NJKMCF@MRI?5ValidateMd?0?5Message?5NonConti@ 100ae394     mrishared.obj
 0002:000033d4       ??_C@_0DB@DIAGJLLH@MRI?5ValidateMd?5Status?$DN?$CFx?0?5datale@ 100ae3d4     mrishared.obj
 0002:00003408       ??_C@_0CB@NMAKDMKO@MRI?5ValidateMd?5Error?$DN?$CFx?0?5pMsg?$DN?$CFx@ 100ae408     mrishared.obj
 0002:0000342c       ??_C@_0CC@KOMCGNNM@MRI?5ValidateMd?5Status?$DN?$CFx?0?5pMsg?$DN?$CF@ 100ae42c     mrishared.obj
 0002:00003450       ??_C@_0BJ@FPKADCGJ@MRI?5ValidateMd?5Status?$DN?$CFx?$AA@ 100ae450     mrishared.obj
 0002:0000346c       ??_C@_0DK@OBJLGFNI@Reinit?5blocked?5while?5CMM?5in?5non?9@ 100ae46c     mrishared.obj
 0002:000034a8       ??_C@_0DP@LCKAPIJN@CMM?5Inquiry?5blocked?5while?5CMM?5in@ 100ae4a8     mrishared.obj
 0002:000034e8       ??_C@_0EA@NJLKEEJL@Exception?5encountered?5in?5Process@ 100ae4e8     mrishared.obj
 0002:00003528       ??_C@_0CI@NGDHHLOB@MRI?5DeleteRcvQueueStructures?5Fai@ 100ae528     mrishared.obj
 0002:00003550       ??_C@_0CH@DBPLKLAM@MRI?5DeleteRcvQueueStructures?5Sta@ 100ae550     mrishared.obj
 0002:00003578       ??_C@_0CE@LNADBHPG@MRI?5DestroyPort?5Status?$DN?$CFx?0?5hMRCB@ 100ae578     mrishared.obj
 0002:0000359c       ??_C@_0DL@KDHNCFLL@MRI?5DestroyPort?5Status?$DN?$CFx?0?5hMRCB@ 100ae59c     mrishared.obj
 0002:000035d8       ??_C@_0BJ@BINAEMDD@MRI?5DeleteMRCB?5Status?$DN?$CFx?$AA@ 100ae5d8     mrishared.obj
 0002:000035f4       ??_C@_0CD@KMDKLLEI@MRI?5DeleteMRCB?5Status?$DN?$CFx?0?5pMRCB?$DN@ 100ae5f4     mrishared.obj
 0002:00003618       ??_C@_0FA@FNHLONDI@MRI?3?5Application?5Attempting?5To?5R@ 100ae618     mrishared.obj
 0002:00003668       ??_C@_0GM@GJGJLGNO@MRI?3?5Detaching?5Existing?5Port?5fro@ 100ae668     mrishared.obj
 0002:000036d8       ??_C@_0FI@KBHJICGB@MRI?3?5Couldn?8t?5Detach?5Stale?5MRCB?5@ 100ae6d8     mrishared.obj
 0002:00003730       ??_C@_0EP@NKHKMHNK@MRI?3?5ProcessApplicationFailure?0?5@ 100ae730     mrishared.obj
 0002:00003780       ??_C@_0DM@LIFOJGON@MRI?5MapVNMSRouteId?5Failed?5to?5get@ 100ae780     mrishared.obj
 0002:000037bc       ??_C@_17OLBAJDCJ@?$AAS?$AAC?$AAA?$AA?$AA@ 100ae7bc     mrishared.obj
 0002:000037c4       ??_C@_17LFPIFLHH@?$AAs?$AAc?$AAa?$AA?$AA@ 100ae7c4     mrishared.obj
 0002:000037cc       ??_C@_17PJKFDMMH@?$AAS?$AAC?$AAB?$AA?$AA@ 100ae7cc     mrishared.obj
 0002:000037d4       ??_C@_17KHENPEJJ@?$AAs?$AAc?$AAb?$AA?$AA@ 100ae7d4     mrishared.obj
 0002:000037e0       ??_C@_0EB@ENMLPEDK@MRI?5MapVNMSRouteId?5Failed?5Due?5to@ 100ae7e0     mrishared.obj
 0002:00003824       ??_C@_0DM@DBIJMPHA@MRI?5MapVNMSRouteId?5Failed?0?5Board@ 100ae824     mrishared.obj
 0002:00003860       ??_C@_0DC@JIAMCFG@MRI?5Mapped?5VNMS?5Attach?5to?5RouteI@ 100ae860     mrishared.obj
 0002:00003894       ??_C@_0BL@IMAGJKCC@MRI?5CreateMMF?0?5FileName?$DN?$CFs?$AA@ 100ae894     mrishared.obj
 0002:000038b0       ??_C@_1CE@GNDPCEIL@?$AAR?$AAC?$AAV?$AA_?$AAQ?$AA_?$AAF?$AAI?$AAL?$AAE?$AA?5?$AA?$CF?$AAd?$AA?0?$AA?5?$AA?$CF?$AAd?$AA?$AA@ 100ae8b0     mrishared.obj
 0002:000038d4       ??_C@_1CE@DCPMLFJI@?$AAR?$AAC?$AAV?$AAQ?$AA_?$AAM?$AAU?$AAT?$AAE?$AAX?$AA?5?$AA?$CF?$AAd?$AA?0?$AA?5?$AA?$CF?$AAd?$AA?$AA@ 100ae8d4     mrishared.obj
 0002:000038f8       ??_C@_1CM@PNDKFOGB@?$AAR?$AAC?$AAV?$AAQ?$AA_?$AAS?$AAE?$AAM?$AAA?$AAP?$AAH?$AAO?$AAR?$AAE?$AA?5?$AA?$CF?$AAd?$AA?0?$AA?5?$AA?$CF?$AAd?$AA?$AA@ 100ae8f8     mrishared.obj
 0002:00003924       ??_C@_0DI@GOCJLMN@MRI?5CreateRcvQ?5Failed?0?5Status?$DN?$CFx@ 100ae924     mrishared.obj
 0002:0000395c       ??_C@_0DB@PLJIKDKL@MRI?5CreateRcvQ?0?5Status?$DN?$CFx?0?5PortI@ 100ae95c     mrishared.obj
 0002:00003990       ??_C@_1CI@IPJFCEHC@?$AAP?$AAO?$AAR?$AAT?$AA_?$AAV?$AAE?$AAC?$AAT?$AAO?$AAR?$AA_?$AAF?$AAI?$AAL?$AAE?$AA?5?$AA?$CF?$AAd?$AA?$AA@ 100ae990     mrishared.obj
 0002:000039b8       ??_C@_0DD@BAHLHJBN@MRI?5CreatePortVector?5Failed?0?5Sta@ 100ae9b8     mrishared.obj
 0002:000039ec       ??_C@_0CM@MDIPPIEP@MRI?5CreatePortVector?0?5Status?$DN?$CFx?0@ 100ae9ec     mrishared.obj
 0002:00003a18       ??_C@_1CC@JALCLJAK@?$AAM?$AAR?$AAC?$AAB?$AA_?$AAF?$AAI?$AAL?$AAE?$AA?5?$AA?$CF?$AAd?$AA?0?$AA?5?$AA?$CF?$AAd?$AA?$AA@ 100aea18     mrishared.obj
 0002:00003a40       ??_C@_0EE@LELEIIAL@MRI?3?5CreateMRCB?5Failed?0?5Status?$DN?$CF@ 100aea40     mrishared.obj
 0002:00003a84       ??_C@_0DN@DHDNDCE@MRI?3?5CreateMRCB?0?5Status?$DN?$CFx?0?5Rout@ 100aea84     mrishared.obj
 0002:00003ac4       ??_C@_0DP@OLPOKGLJ@MRI?5AssignRcvQToMRCB?5Failed?0?5Sta@ 100aeac4     mrishared.obj
 0002:00003b04       ??_C@_0DI@KHFLGBKF@MRI?5AssignRcvQToMRCB?0?5Status?$DN?$CFx?0@ 100aeb04     mrishared.obj
 0002:00003b3c       ??_C@_0CL@EOAMICAE@MRI?3?5LinkMrcbToList?0?5hOpen?$DN?$CFp?0?5h@ 100aeb3c     mrishared.obj
 0002:00003b68       ??_C@_0EJ@DACBKCGF@MRI?3?5AttachThisPort?5Reattaching?0@ 100aeb68     mrishared.obj
 0002:00003bb4       ??_C@_0DP@JAKCDCNJ@MRI?3?5AttachThisPort?5?0RouteId?$DN?$CFx?0@ 100aebb4     mrishared.obj
 0002:00003bf8       ??_C@_0EF@NNLHMCCO@MRI?3?5AttachThisPort?5Failed?0Route@ 100aebf8     mrishared.obj
 0002:00003c40       ??_C@_0DP@CAAAHGLG@MRI?3?5AttachThisPort?0?5RouteId?$DN?$CFx?0@ 100aec40     mrishared.obj
 0002:00003c80       ??_C@_0DK@EPIJPCOI@Could?5Not?5Allocate?5Memory?5to?5Sen@ 100aec80     mrishared.obj
 0002:00003cbc       ??_C@_0DE@BDFBFGCO@BuildSetSendReply?5Successful?0?5Ms@ 100aecbc     mrishared.obj
 0002:00003cf0       ??_C@_0DG@DCAGJNLD@ProcessSendBoardUpdated?5Msg?5Rece@ 100aecf0     mrishared.obj
 0002:00003d28       ??_C@_0DO@NKOPPKBO@Globals?5is?5null?5when?5processing?5@ 100aed28     mrishared.obj
 0002:00003d68       ??_C@_0FH@HFJLAJOK@ProcessSendBoardUpdated?5Failed?5D@ 100aed68     mrishared.obj
 0002:00003dc0       ??_C@_0DN@BJAGPDNL@Dead?5MDP?5?$CFx?5has?5?$HLresponded?$HN?5to?5S@ 100aedc0     mrishared.obj
 0002:00003e00       ??_C@_0DI@GLOPDPGC@Board?5?$CFx?5has?5responded?5to?5SetSen@ 100aee00     mrishared.obj
 0002:00003e38       ??_C@_0FL@OJGKBIMD@ProcessSendBoardUpdated?5Failed?5D@ 100aee38     mrishared.obj
 0002:00003e94       ??_C@_0DO@EICPCKOF@SwitchComplete?5Notification?5Sent@ 100aee94     mrishared.obj
 0002:00003ed4       ??_C@_0CK@BHIAKEFC@ProcessSendBoardUpdated?5Failed?0?5@ 100aeed4     mrishared.obj
 0002:00003f00       ??_C@_0EB@HJGOEPHP@MRI?3?5SendInterBoard?0?5RouteId?$DN?$CFx?0@ 100aef00     mrishared.obj
 0002:00003f48       ??_C@_0FL@KBKLOGEM@MRI?3?5SendInterBoardNotification?5@ 100aef48     mrishared.obj
 0002:00003fa8       ??_C@_0FA@NDJMCNCO@MRI?3?5SendInterBoardNotification?5@ 100aefa8     mrishared.obj
 0002:00003ff8       ??_C@_0FG@NLPFFIHI@MRI?3?5SendInterBoardNotification?5@ 100aeff8     mrishared.obj
 0002:00004050       ??_C@_0DH@JNMPKPLL@MRI?3?5SendInterBoard?0?5MsgType?$DN?$CFx?0@ 100af050     mrishared.obj
 0002:00004088       ??_C@_0DP@ENJILJHB@MRI?3?5SendInterBoardNotification?5@ 100af088     mrishared.obj
 0002:000040c8       ??_C@_0EJ@OFMJMEEF@MRI?3?5SendInterBoardNotification?5@ 100af0c8     mrishared.obj
 0002:00004118       ??_C@_0EE@JJGLAOMB@MRI?3?5SendInterBoardNotification?0@ 100af118     mrishared.obj
 0002:0000415c       ??_C@_0DO@FKAKHONL@MriSharedInternals?3?3InitGlobals?5@ 100af15c     mrishared.obj
 0002:000041a0       ??_C@_0EF@NGOAEFLK@MriSharedInternals?3?3InitGlobals?5@ 100af1a0     mrishared.obj
 0002:000041e8       ??_C@_0EF@HFJPCNII@MriSharedInternals?3?3InitGlobals?5@ 100af1e8     mrishared.obj
 0002:00004230       ??_C@_1BK@MAIPCHHO@?$AA?4?$AA?4?$AA?2?$AAQ?$AAu?$AAe?$AAu?$AAe?$AA?4?$AAc?$AAp?$AAp?$AA?$AA@ 100af230     Queue.obj
 0002:0000424c       ??_C@_0CA@MDEKFIGO@MRI?3?5Enq?5Error?$DN?$CFx?0?5msgOffset?$DN?$CFx?$AA@ 100af24c     Queue.obj
 0002:0000426c       ??_C@_0N@IEJLMFEF@?4?4?2Queue?4cpp?$AA@ 100af26c     Queue.obj
 0002:0000427c       ??_C@_0CC@PHLEGAGD@MRI?3?5Enq?5Successful?0?5msgOffset?$DN?$CF@ 100af27c     Queue.obj
 0002:000042a0       ??_C@_0BL@DCIAMDIO@MRI?3?5Enq?5Error?$DN?$CFx?0?5pMsg?$DN?$CFp?$AA@ 100af2a0     Queue.obj
 0002:000042bc       ??_C@_0BN@IJEBDDGH@MRI?3?5Enq?5Successful?0?5pMsg?$DN?$CFp?$AA@ 100af2bc     Queue.obj
 0002:000042dc       ??_C@_0CA@KLIIDGL@MRI?3?5Deq?5Error?$DN?$CFx?0?5msgOffset?$DN?$CFx?$AA@ 100af2dc     Queue.obj
 0002:000042fc       ??_C@_0BC@EBJOBGFD@MRI?3?5DeQ?5Error?$DN?$CFx?$AA@ 100af2fc     Queue.obj
 0002:00004310       ??_C@_1CC@HCEKBDGP@?$AAE?$AAM?$AA_?$AAA?$AAs?$AAs?$AAe?$AAr?$AAt?$AAF?$AAa?$AAi?$AAl?$AAe?$AAd?$AA1?$AA?$AA@ 100af310     TR_Trace:emEvents.obj
 0002:00004338       ??_C@_1EM@BCFHFBCJ@?$AA?$CF?$AA2?$AA?$CI?$AA?$CF?$AA3?$AA?$CJ?$AA?3?$AA?5?$AAv?$AAa?$AAl?$AAu?$AAe?$AA?5?$AA?$CF?$AA4?$AA?5?$AAf?$AAa?$AAi?$AAl?$AAe?$AAd?$AA?5?$AAa?$AAs?$AAs?$AAe?$AAr?$AAt?$AAi?$AAo@ 100af338     TR_Trace:emEvents.obj
 0002:00004384       ??_C@_1CC@GAPPLMIB@?$AAE?$AAM?$AA_?$AAA?$AAs?$AAs?$AAe?$AAr?$AAt?$AAF?$AAa?$AAi?$AAl?$AAe?$AAd?$AA2?$AA?$AA@ 100af384     TR_Trace:emEvents.obj
 0002:000043a8       ??_C@_1GE@CNLLLBED@?$AA?$CF?$AA2?$AA?$CI?$AA?$CF?$AA3?$AA?$CJ?$AA?3?$AA?5?$AAv?$AAa?$AAl?$AAu?$AAe?$AA1?$AA?5?$AA?$CF?$AA4?$AA?0?$AA?5?$AAv?$AAa?$AAl?$AAu?$AAe?$AA2?$AA?5?$AA?$CF?$AA5?$AA?5?$AAf?$AAa?$AAi@ 100af3a8     TR_Trace:emEvents.obj
 0002:0000440c       ??_C@_1CM@FINKCMDJ@?$AAE?$AAM?$AA_?$AAP?$AAr?$AAe?$AAc?$AAo?$AAn?$AAd?$AAi?$AAt?$AAi?$AAo?$AAn?$AAF?$AAa?$AAi?$AAl?$AAe?$AAd?$AA?$AA@ 100af40c     TR_Trace:emEvents.obj
 0002:00004438       ??_C@_1EA@HMMBIGKD@?$AA?$CF?$AA2?$AA?$CI?$AA?$CF?$AA3?$AA?$CJ?$AA?3?$AA?5?$AAf?$AAa?$AAi?$AAl?$AAe?$AAd?$AA?5?$AAp?$AAr?$AAe?$AAc?$AAo?$AAn?$AAd?$AAi?$AAt?$AAi?$AAo?$AAn?$AA?3?$AA?5?$AA?$CF?$AA1?$AA?$AA@ 100af438     TR_Trace:emEvents.obj
 0002:00004478       ??_C@_1CO@HEMLCGEH@?$AAE?$AAM?$AA_?$AAP?$AAr?$AAe?$AAc?$AAo?$AAn?$AAd?$AAi?$AAt?$AAi?$AAo?$AAn?$AAF?$AAa?$AAi?$AAl?$AAe?$AAd?$AA1?$AA?$AA@ 100af478     TR_Trace:emEvents.obj
 0002:000044a8       ??_C@_1FC@MFBJGFMP@?$AA?$CF?$AA2?$AA?$CI?$AA?$CF?$AA3?$AA?$CJ?$AA?3?$AA?5?$AAv?$AAa?$AAl?$AAu?$AAe?$AA?5?$AA?$CF?$AA4?$AA?5?$AAf?$AAa?$AAi?$AAl?$AAe?$AAd?$AA?5?$AAp?$AAr?$AAe?$AAc?$AAo?$AAn?$AAd?$AAi@ 100af4a8     TR_Trace:emEvents.obj
 0002:000044fc       ??_C@_1CO@GGHOIJKJ@?$AAE?$AAM?$AA_?$AAP?$AAr?$AAe?$AAc?$AAo?$AAn?$AAd?$AAi?$AAt?$AAi?$AAo?$AAn?$AAF?$AAa?$AAi?$AAl?$AAe?$AAd?$AA2?$AA?$AA@ 100af4fc     TR_Trace:emEvents.obj
 0002:00004530       ??_C@_1GK@PHDMNCAB@?$AA?$CF?$AA2?$AA?$CI?$AA?$CF?$AA3?$AA?$CJ?$AA?3?$AA?5?$AAv?$AAa?$AAl?$AAu?$AAe?$AA1?$AA?5?$AA?$CF?$AA4?$AA?0?$AA?5?$AAv?$AAa?$AAl?$AAu?$AAe?$AA2?$AA?5?$AA?$CF?$AA5?$AA?5?$AAf?$AAa?$AAi@ 100af530     TR_Trace:emEvents.obj
 0002:0000459c       ??_C@_1CK@INJOFCDL@?$AAE?$AAM?$AA_?$AAU?$AAn?$AAe?$AAx?$AAp?$AAe?$AAc?$AAt?$AAe?$AAd?$AAF?$AAa?$AAi?$AAl?$AAu?$AAr?$AAe?$AA?$AA@ 100af59c     TR_Trace:emEvents.obj
 0002:000045c8       ??_C@_1EG@HPCDPMDL@?$AA?$CF?$AA2?$AA?$CI?$AA?$CF?$AA3?$AA?$CJ?$AA?3?$AA?5?$AAu?$AAn?$AAe?$AAx?$AAp?$AAe?$AAc?$AAt?$AAe?$AAd?$AA?5?$AAf?$AAa?$AAi?$AAl?$AAu?$AAr?$AAe?$AA?5?$AAo?$AAf?$AA?5?$AA?8?$AA?$CF@ 100af5c8     TR_Trace:emEvents.obj
 0002:00004610       ??_C@_1DE@KFKNBHMP@?$AAE?$AAM?$AA_?$AAE?$AAx?$AAc?$AAe?$AAp?$AAt?$AAi?$AAo?$AAn?$AAW?$AAh?$AAi?$AAl?$AAe?$AAH?$AAa?$AAn?$AAd?$AAl?$AAi?$AAn?$AAg?$AA?$AA@ 100af610     TR_Trace:emEvents.obj
 0002:00004648       ??_C@_1GA@EDDGFOMC@?$AA?$DN?$AA?$DN?$AA?$DN?$AA?5?$AAe?$AAx?$AAc?$AAe?$AAp?$AAt?$AAi?$AAo?$AAn?$AA?5?$AAw?$AAh?$AAi?$AAl?$AAe?$AA?5?$AAh?$AAa?$AAn?$AAd?$AAl?$AAi?$AAn?$AAg?$AA?5?$AAe?$AAx?$AAc@ 100af648     TR_Trace:emEvents.obj
 0002:000046a8       ??_C@_1CO@PHHMLOID@?$AAE?$AAM?$AA_?$AAU?$AAn?$AAe?$AAx?$AAp?$AAe?$AAc?$AAt?$AAe?$AAd?$AAE?$AAx?$AAc?$AAe?$AAp?$AAt?$AAi?$AAo?$AAn?$AA?$AA@ 100af6a8     TR_Trace:emEvents.obj
 0002:000046d8       ??_C@_1DG@JIJABNIP@?$AAu?$AAn?$AAe?$AAx?$AAp?$AAe?$AAc?$AAt?$AAe?$AAd?$AA?5?$AAe?$AAx?$AAc?$AAe?$AAp?$AAt?$AAi?$AAo?$AAn?$AA?3?$AA?5?$AA?8?$AA?$CF?$AA1?$AA?8?$AA?$AA@ 100af6d8     TR_Trace:emEvents.obj
 0002:00004710       ??_C@_1CG@INPMPCGI@?$AAE?$AAM?$AA_?$AAR?$AAe?$AAm?$AAo?$AAt?$AAe?$AAE?$AAx?$AAc?$AAe?$AAp?$AAt?$AAi?$AAo?$AAn?$AA?$AA@ 100af710     TR_Trace:emEvents.obj
 0002:00004738       ??_C@_1BE@MIFJMAJB@?$AA?$CF?$AA1?$AA?5?$AA?$CF?$AA2?$AA?3?$AA?5?$AA?$CF?$AA3?$AA?$AA@ 100af738     TR_Trace:emEvents.obj
 0002:0000474c       ??_C@_1CC@PKDEGEFI@?$AAE?$AAM?$AA_?$AAV?$AAa?$AAl?$AAu?$AAe?$AAT?$AAo?$AAo?$AAS?$AAm?$AAa?$AAl?$AAl?$AA?$AA@ 100af74c     TR_Trace:emEvents.obj
 0002:00004770       ??_C@_1HE@IDHBIOGL@?$AAV?$AAa?$AAl?$AAu?$AAe?$AA?5?$AAo?$AAf?$AA?5?$AA?$CF?$AA1?$AA?5?$AAi?$AAs?$AA?5?$AAt?$AAo?$AAo?$AA?5?$AAs?$AAm?$AAa?$AAl?$AAl?$AA?4?$AA?5?$AAI?$AAt?$AA?5?$AAm?$AAu?$AAs@ 100af770     TR_Trace:emEvents.obj
 0002:000047e4       ??_C@_1CC@HLHPHPNK@?$AAE?$AAM?$AA_?$AAV?$AAa?$AAl?$AAu?$AAe?$AAT?$AAo?$AAo?$AAL?$AAa?$AAr?$AAg?$AAe?$AA?$AA@ 100af7e4     TR_Trace:emEvents.obj
 0002:00004808       ??_C@_1HC@CHBAHOIM@?$AAV?$AAa?$AAl?$AAu?$AAe?$AA?5?$AAo?$AAf?$AA?5?$AA?$CF?$AA1?$AA?5?$AAi?$AAs?$AA?5?$AAt?$AAo?$AAo?$AA?5?$AAl?$AAa?$AAr?$AAg?$AAe?$AA?4?$AA?5?$AAI?$AAt?$AA?5?$AAm?$AAu?$AAs@ 100af808     TR_Trace:emEvents.obj
 0002:0000487c       ??_C@_1CE@GFBMKLHJ@?$AAE?$AAM?$AA_?$AAS?$AAt?$AAr?$AAi?$AAn?$AAg?$AAT?$AAo?$AAo?$AAS?$AAh?$AAo?$AAr?$AAt?$AA?$AA@ 100af87c     TR_Trace:emEvents.obj
 0002:000048a0       ??_C@_1KE@MIJOGMHA@?$AAS?$AAt?$AAr?$AAi?$AAn?$AAg?$AA?5?$AA?8?$AA?$CF?$AA1?$AA?8?$AA?5?$AAo?$AAf?$AA?5?$AAl?$AAe?$AAn?$AAg?$AAt?$AAh?$AA?5?$AA?$CF?$AA2?$AA?5?$AAi?$AAs?$AA?5?$AAt?$AAo?$AAo?$AA?5@ 100af8a0     TR_Trace:emEvents.obj
 0002:00004944       ??_C@_1CC@PFOOADKN@?$AAE?$AAM?$AA_?$AAS?$AAt?$AAr?$AAi?$AAn?$AAg?$AAT?$AAo?$AAo?$AAL?$AAo?$AAn?$AAg?$AA?$AA@ 100af944     TR_Trace:emEvents.obj
 0002:00004968       ??_C@_1KA@GJOAGNAL@?$AAS?$AAt?$AAr?$AAi?$AAn?$AAg?$AA?5?$AA?8?$AA?$CF?$AA1?$AA?8?$AA?5?$AAo?$AAf?$AA?5?$AAl?$AAe?$AAn?$AAg?$AAt?$AAh?$AA?5?$AA?$CF?$AA2?$AA?5?$AAi?$AAs?$AA?5?$AAt?$AAo?$AAo?$AA?5@ 100af968     TR_Trace:emEvents.obj
 0002:00004a08       ??_C@_1CG@DGODPDKJ@?$AAE?$AAM?$AA_?$AAW?$AAi?$AAn?$AA3?$AA2?$AAC?$AAa?$AAl?$AAl?$AAF?$AAa?$AAi?$AAl?$AAe?$AAd?$AA?$AA@ 100afa08     TR_Trace:emEvents.obj
 0002:00004a30       ??_C@_1EM@EAKGAJBA@?$AAC?$AAa?$AAl?$AAl?$AA?5?$AAt?$AAo?$AA?5?$AA?$CF?$AA1?$AA?5?$AAf?$AAa?$AAi?$AAl?$AAe?$AAd?$AA?5?$AAw?$AAi?$AAt?$AAh?$AA?5?$AAW?$AAi?$AAn?$AA3?$AA2?$AA?5?$AAe?$AAr?$AAr@ 100afa30     TR_Trace:emEvents.obj
 0002:00004a7c       ??_C@_1BK@DJPJNEAN@?$AAE?$AAv?$AAe?$AAn?$AAt?$AAM?$AAa?$AAn?$AAa?$AAg?$AAe?$AAr?$AA?$AA@ 100afa7c     TR_Trace:emEvents.obj
 0002:00004a98       ??_C@_1DA@FGKHNOGA@?$AAE?$AAM?$AA_?$AAI?$AAn?$AAv?$AAa?$AAl?$AAi?$AAd?$AAE?$AAx?$AAc?$AAe?$AAp?$AAt?$AAi?$AAo?$AAn?$AAD?$AAa?$AAt?$AAa?$AA?$AA@ 100afa98     TR_Trace:emEvents.obj
 0002:00004ac8       ??_C@_1IG@KGDJPNKE@?$AAI?$AAn?$AAv?$AAa?$AAl?$AAi?$AAd?$AA?5?$AAs?$AAe?$AAr?$AAi?$AAa?$AAl?$AAi?$AAz?$AAe?$AAd?$AA?5?$AAe?$AAx?$AAc?$AAe?$AAp?$AAt?$AAi?$AAo?$AAn?$AA?5?$AAd?$AAa?$AAt@ 100afac8     TR_Trace:emEvents.obj
 0002:00004b50       ??_C@_1CM@PBEAMNLK@?$AAE?$AAM?$AA_?$AAU?$AAn?$AAe?$AAx?$AAp?$AAe?$AAc?$AAt?$AAe?$AAd?$AAF?$AAa?$AAi?$AAl?$AAu?$AAr?$AAe?$AA1?$AA?$AA@ 100afb50     TR_Trace:emEvents.obj
 0002:00004b7c       ??_C@_1CO@NFPPOHH@?$AAE?$AAM?$AA_?$AAW?$AAi?$AAn?$AA3?$AA2?$AAF?$AAi?$AAl?$AAe?$AAC?$AAa?$AAl?$AAl?$AAF?$AAa?$AAi?$AAl?$AAe?$AAd?$AA?$AA@ 100afb7c     TR_Trace:emEvents.obj
 0002:00004bb0       ??_C@_1GE@IFEBBIIH@?$AAC?$AAa?$AAl?$AAl?$AA?5?$AAt?$AAo?$AA?5?$AA?$CF?$AA1?$AA?5?$AAf?$AAa?$AAi?$AAl?$AAe?$AAd?$AA?5?$AAf?$AAo?$AAr?$AA?5?$AAf?$AAi?$AAl?$AAe?$AA?5?$AA?$CF?$AA2?$AA?5?$AAw?$AAi@ 100afbb0     TR_Trace:emEvents.obj
 0002:00004c14       ??_C@_1CA@NGJJNC@?$AAE?$AAM?$AA_?$AAA?$AAs?$AAs?$AAe?$AAr?$AAt?$AAF?$AAa?$AAi?$AAl?$AAe?$AAd?$AA?$AA@ 100afc14     TR_Trace:emEvents.obj
 0002:00004c34       ??_C@_1DK@FMPNPIAN@?$AA?$CF?$AA2?$AA?$CI?$AA?$CF?$AA3?$AA?$CJ?$AA?3?$AA?5?$AAf?$AAa?$AAi?$AAl?$AAe?$AAd?$AA?5?$AAa?$AAs?$AAs?$AAe?$AAr?$AAt?$AAi?$AAo?$AAn?$AA?3?$AA?5?$AA?$CF?$AA1?$AA?$AA@ 100afc34     TR_Trace:emEvents.obj
 0002:00004c70       ?npos@?$basic_string@_WU?$char_traits@_W@std@@V?$allocator@_W@2@@std@@2IB 100afc70     TR_Trace:emEvents.obj
 0002:00004c78       ??_7EM_Event@@6B@          100afc78     TR_Trace:emEvents.obj
 0002:00004c88       ??_7EM_Win32CallFailed@@6B@ 100afc88     TR_Trace:emEvents.obj
 0002:00004ca4       ??_7EM_Win32FileCallFailed@@6B@ 100afca4     TR_Trace:emEvents.obj
 0002:00004cc0       ??_7EM_AssertFailed@@6B@   100afcc0     TR_Trace:emEvents.obj
 0002:00004cdc       ??_7EM_AssertFailed1@@6B@  100afcdc     TR_Trace:emEvents.obj
 0002:00004cf8       ??_7EM_AssertFailed2@@6B@  100afcf8     TR_Trace:emEvents.obj
 0002:00004d14       ??_7EM_PreconditionFailed@@6B@ 100afd14     TR_Trace:emEvents.obj
 0002:00004d30       ??_7EM_PreconditionFailed1@@6B@ 100afd30     TR_Trace:emEvents.obj
 0002:00004d4c       ??_7EM_PreconditionFailed2@@6B@ 100afd4c     TR_Trace:emEvents.obj
 0002:00004d68       ??_7EM_UnexpectedFailure@@6B@ 100afd68     TR_Trace:emEvents.obj
 0002:00004d84       ??_7EM_ExceptionWhileHandling@@6B@ 100afd84     TR_Trace:emEvents.obj
 0002:00004da0       ??_7EM_UnexpectedException@@6B@ 100afda0     TR_Trace:emEvents.obj
 0002:00004dbc       ??_7EM_RemoteException@@6B@ 100afdbc     TR_Trace:emEvents.obj
 0002:00004dd8       ??_7EM_ValueTooSmall@@6B@  100afdd8     TR_Trace:emEvents.obj
 0002:00004df4       ??_7EM_ValueTooLarge@@6B@  100afdf4     TR_Trace:emEvents.obj
 0002:00004e10       ??_7EM_StringTooShort@@6B@ 100afe10     TR_Trace:emEvents.obj
 0002:00004e2c       ??_7EM_StringTooLong@@6B@  100afe2c     TR_Trace:emEvents.obj
 0002:00004e48       ??_7EM_InvalidExceptionData@@6B@ 100afe48     TR_Trace:emEvents.obj
 0002:00004e64       ??_7EM_UnexpectedFailure1@@6B@ 100afe64     TR_Trace:emEvents.obj
 0002:00004e7c       ??_C@_17OADJODNB@?$AA?$CF?$AAl?$AAd?$AA?$AA@ 100afe7c     TR_Trace:nestedException.obj
 0002:00004e84       ??_C@_17IJMNDCL@?$AA?$CF?$AAl?$AAu?$AA?$AA@ 100afe84     TR_Trace:nestedException.obj
 0002:00004e90       ??_7EM_NestedException@@6B@ 100afe90     TR_Trace:nestedException.obj
 0002:00004ea8       ??_C@_1BA@KLJFELIK@?$AA0?$AAx?$AA?$CF?$AAI?$AA6?$AA4?$AAx?$AA?$AA@ 100afea8     TR_Trace:nestedException.obj
 0002:00004eb8       ??_C@_1O@NIKDLKBK@?$AA0?$AA?$CF?$AAI?$AA6?$AA4?$AAo?$AA?$AA@ 100afeb8     TR_Trace:nestedException.obj
 0002:00004ec8       ??_C@_15DAMPJCDE@?$AA?$CF?$AAc?$AA?$AA@ 100afec8     TR_Trace:nestedException.obj
 0002:00004ed0       ??_C@_19PCNJIDGC@?$AA0?$AAx?$AA?$CF?$AAx?$AA?$AA@ 100afed0     TR_Trace:nestedException.obj
 0002:00004edc       ??_C@_17CLDEAADL@?$AA0?$AA?$CF?$AAo?$AA?$AA@ 100afedc     TR_Trace:nestedException.obj
 0002:00004ee8       ??_C@_1GO@PFKCMEEM@?$AAe?$AA?3?$AA?2?$AAc?$AAo?$AAm?$AAm?$AAs?$AA_?$AAn?$AAi?$AAu?$AA?2?$AAf?$AAc?$AAc?$AA?2?$AAf?$AAc?$AAc?$AA_?$AAf?$AAc?$AA_?$AAs?$AAr?$AAc?$AA?2?$AAs?$AAr?$AAc?$AA?2@ 100afee8     TR_Trace:nestedException.obj
 0002:00004f58       ??_C@_1BO@EFBGENGH@?$AAN?$AAE?$AAl?$AAi?$AAs?$AAt?$AA?5?$AA?$DN?$AA?$DN?$AA?5?$AAN?$AAU?$AAL?$AAL?$AA?$AA@ 100aff58     TR_Trace:nestedException.obj
 0002:00004f78       ??_C@_1M@HLGKFCJM@?$AAf?$AAa?$AAl?$AAs?$AAe?$AA?$AA@ 100aff78     TR_Trace:nestedException.obj
 0002:00004f84       ??_C@_13LBAGMAIH@?$AA?6?$AA?$AA@ 100aff84     TR_Trace:nestedException.obj
 0002:00004f88       ??_C@_1CA@LDLPBMGD@?$AAE?$AAM?$AA_?$AAB?$AAE?$AAG?$AAI?$AAN?$AA_?$AAM?$AAA?$AAR?$AAK?$AAE?$AAR?$AA?$AA@ 100aff88     TR_Trace:nestedException.obj
 0002:00004fa8       ??_C@_1BM@DBJKNOL@?$AAE?$AAM?$AA_?$AAE?$AAN?$AAD?$AA_?$AAM?$AAA?$AAR?$AAK?$AAE?$AAR?$AA?$AA@ 100affa8     TR_Trace:nestedException.obj
 0002:00004fc4       ??_C@_1CG@NOFMMGFH@?$AAp?$AAE?$AAv?$AAe?$AAn?$AAt?$AAI?$AAn?$AAf?$AAo?$AA?5?$AA?$CB?$AA?$DN?$AA?5?$AAN?$AAU?$AAL?$AAL?$AA?$AA@ 100affc4     TR_Trace:nestedException.obj
 0002:00004fec       ??_C@_0BB@MOGOBHAF@list?$DMT?$DO?5too?5long?$AA@ 100affec     TR_Trace:nestedException.obj
 0002:00005000       ??_C@_15KNBIKKIN@?$AA?$CF?$AAd?$AA?$AA@ 100b0000     TR_Trace:eventLog.obj
 0002:0000500c       ??_7EM_EventLog@@6B@       100b000c     TR_Trace:eventLog.obj
 0002:00005014       ??_7EM_FileEventLog@@6B@   100b0014     TR_Trace:eventLog.obj
 0002:0000501c       ??_7EM_LocalEventLog@@6B@  100b001c     TR_Trace:eventLog.obj
 0002:00005028       ??_7EM_IRemoteException@@6B@ 100b0028     TR_Trace:eventLog.obj
 0002:00005040       ??_C@_17OHHHHMMK@?$AAC?$AAM?$AAM?$AA?$AA@ 100b0040     TR_Trace:eventLog.obj
 0002:00005048       ??_C@_1BA@LEPJIIOK@?$AAU?$AAn?$AAk?$AAn?$AAo?$AAw?$AAn?$AA?$AA@ 100b0048     TR_Trace:eventLog.obj
 0002:00005058       ??_C@_1BI@LLMKJFCM@?$AAE?$AAM?$AA_?$AAL?$AAo?$AAc?$AAa?$AAl?$AAL?$AAo?$AAg?$AA?$AA@ 100b0058     TR_Trace:eventLog.obj
 0002:00005070       ??_C@_1GA@PCMFCKLP@?$AAe?$AA?3?$AA?2?$AAc?$AAo?$AAm?$AAm?$AAs?$AA_?$AAn?$AAi?$AAu?$AA?2?$AAf?$AAc?$AAc?$AA?2?$AAf?$AAc?$AAc?$AA_?$AAf?$AAc?$AA_?$AAs?$AAr?$AAc?$AA?2?$AAs?$AAr?$AAc?$AA?2@ 100b0070     TR_Trace:eventLog.obj
 0002:000050d0       ??_C@_1DG@DMGCMMJA@?$AAe?$AAr?$AAr?$AAo?$AAr?$AAC?$AAo?$AAd?$AAe?$AA?5?$AA?$DN?$AA?$DN?$AA?5?$AAE?$AAR?$AAR?$AAO?$AAR?$AA_?$AAS?$AAU?$AAC?$AAC?$AAE?$AAS?$AAS?$AA?$AA@ 100b00d0     TR_Trace:eventLog.obj
 0002:00005108       ??_C@_1CE@MIEAOGND@?$AAE?$AAM?$AA_?$AAL?$AAo?$AAg?$AAP?$AAt?$AAr?$AA?5?$AA?$CB?$AA?$DN?$AA?5?$AAN?$AAU?$AAL?$AAL?$AA?$AA@ 100b0108     TR_Trace:eventLog.obj
 0002:0000512c       ??_C@_1BE@MGBOFOPD@?$AAL?$AAo?$AAc?$AAa?$AAl?$AAH?$AAo?$AAs?$AAt?$AA?$AA@ 100b012c     TR_Trace:eventLog.obj
 0002:00005140       ??_C@_1BC@BAKKEFNK@?$AAA?$AAD?$AAV?$AAI?$AAS?$AAO?$AAR?$AAY?$AA?$AA@ 100b0140     TR_Trace:eventLog.obj
 0002:00005154       ??_C@_1BC@JBLGDMG@?$AAM?$AAI?$AAN?$AAO?$AAR?$AA?5?$AA?5?$AA?5?$AA?$AA@ 100b0154     TR_Trace:eventLog.obj
 0002:00005168       ??_C@_1BC@GDKEHDJC@?$AAM?$AAA?$AAJ?$AAO?$AAR?$AA?5?$AA?5?$AA?5?$AA?$AA@ 100b0168     TR_Trace:eventLog.obj
 0002:0000517c       ??_C@_1BC@IHPPMOFN@?$AAC?$AAR?$AAI?$AAT?$AAI?$AAC?$AAA?$AAL?$AA?$AA@ 100b017c     TR_Trace:eventLog.obj
 0002:00005190       ??_C@_1BC@GBACMOPH@?$AA?$DP?$AA?$DP?$AA?$DP?$AA?$DP?$AA?$DP?$AA?$DP?$AA?$DP?$AA?$DP?$AA?$AA@ 100b0190     TR_Trace:eventLog.obj
 0002:000051a4       ??_C@_1CG@FGEFPNLF@?$AAE?$AAM?$AA_?$AAA?$AAd?$AAv?$AAi?$AAs?$AAo?$AAr?$AAy?$AAM?$AAe?$AAs?$AAs?$AAa?$AAg?$AAe?$AA?$AA@ 100b01a4     TR_Trace:eventLog.obj
 0002:000051cc       ??_C@_1BK@EACLAGME@?$AAL?$AAo?$AAc?$AAa?$AAl?$AAM?$AAa?$AAc?$AAh?$AAi?$AAn?$AAe?$AA?$AA@ 100b01cc     TR_Trace:eventLog.obj
 0002:000051e8       ??_C@_1BE@MKBFNNJK@?$AA?$CK?$AA?$CK?$AA?$CK?$AA?$CK?$AA?$CK?$AA?$CK?$AA?$CK?$AA?$CK?$AA?5?$AA?$AA@ 100b01e8     TR_Trace:eventLog.obj
 0002:000051fc       ??_C@_13HOIJIPNN@?$AA?5?$AA?$AA@ 100b01fc     TR_Trace:eventLog.obj
 0002:00005200       ??_C@_15HEEKGCFC@?$AA?3?$AA?3?$AA?$AA@ 100b0200     TR_Trace:eventLog.obj
 0002:00005208       ??_C@_1BE@PCLNJNMA@?$AA?5?$AA?$CK?$AA?$CK?$AA?$CK?$AA?$CK?$AA?$CK?$AA?$CK?$AA?$CK?$AA?$CK?$AA?$AA@ 100b0208     TR_Trace:eventLog.obj
 0002:0000521c       ??_C@_15JNBOKNOG@?$AA?$AN?$AA?6?$AA?$AA@ 100b021c     TR_Trace:eventLog.obj
 0002:00005224       ??_C@_1BC@EFNEPEHO@?$AA?$CF?$AAd?$AA?4?$AA?$CF?$AAd?$AA?5?$AA?$CF?$AAs?$AA?$AA@ 100b0224     TR_Trace:eventLog.obj
 0002:00005238       ??_C@_1BA@CIPEGBAI@?$AA?$CF?$AA?9?$AA3?$AA0?$AAs?$AA?3?$AA?5?$AA?$AA@ 100b0238     TR_Trace:eventLog.obj
 0002:00005248       ??_C@_1DC@LILNCAPF@?$AAU?$AAN?$AAA?$AAB?$AAL?$AAE?$AA?5?$AAT?$AAO?$AA?5?$AAF?$AAO?$AAR?$AAM?$AAA?$AAT?$AA?5?$AAM?$AAE?$AAS?$AAS?$AAA?$AAG?$AAE?$AA?$AA@ 100b0248     TR_Trace:eventLog.obj
 0002:0000527c       ??_C@_1M@NDGNLFMH@?$AA?$CF?$AAd?$AA?4?$AA?$CF?$AAd?$AA?$AA@ 100b027c     TR_Trace:eventLog.obj
 0002:00005288       ??_C@_1FK@IAJDHEEH@?$AAC?$AA?3?$AA?2?$AAP?$AAr?$AAo?$AAg?$AAr?$AAa?$AAm?$AA?5?$AAF?$AAi?$AAl?$AAe?$AAs?$AA?5?$AA?$CI?$AAx?$AA8?$AA6?$AA?$CJ?$AA?2?$AAU?$AAn?$AAi?$AAs?$AAy?$AAs?$AA?2?$AAC?$AAM@ 100b0288     TR_Trace:eventLog.obj
 0002:000052e4       ??_C@_1CE@OCMBOCPI@?$AAG?$AAe?$AAt?$AAM?$AAo?$AAd?$AAu?$AAl?$AAe?$AAF?$AAi?$AAl?$AAe?$AAN?$AAa?$AAm?$AAe?$AA?$AA@ 100b02e4     TR_Trace:eventLog.obj
 0002:00005308       ??_C@_1CC@KNPIHNLE@?$AA?4?$AAs?$AAt?$AAo?$AAp?$AA_?$AAo?$AAn?$AA_?$AAs?$AAt?$AAa?$AAr?$AAt?$AAu?$AAp?$AA?$AA@ 100b0308     TR_Trace:eventLog.obj
 0002:00005330       ??_C@_1IK@IFDNDNFM@?$AAA?$AAp?$AAp?$AAl?$AAi?$AAc?$AAa?$AAt?$AAi?$AAo?$AAn?$AA?5?$AAs?$AAt?$AAa?$AAr?$AAt?$AAu?$AAp?$AA?5?$AAh?$AAa?$AAl?$AAt?$AAe?$AAd?$AA?4?$AA?5?$AAD?$AAe?$AAl?$AAe@ 100b0330     TR_Trace:eventLog.obj
 0002:000053ba       ??_C@_00CNPNBAHC@?$AA@     100b03ba     TR_Trace:stringConversion.obj
 0002:000053bc       ??_C@_1BE@OLININMD@?$AA?5?$AA?5?$AAE?$AAr?$AAr?$AAo?$AAr?$AA?3?$AA?5?$AA?$AA@ 100b03bc     TR_Trace:ExcTF.obj
 0002:000053d0       ??_C@_1EG@CJOJPAKB@?$AAI?$AAn?$AAi?$AAt?$AAi?$AAa?$AAl?$AAi?$AAz?$AAe?$AA?5?$AAC?$AAr?$AAi?$AAt?$AAi?$AAc?$AAa?$AAl?$AA?5?$AAS?$AAe?$AAc?$AAt?$AAi?$AAo?$AAn?$AA?5?$AAf?$AAa?$AAi?$AAl@ 100b03d0     TR_Trace:ExcTF.obj
 0002:00005418       ??_C@_1CM@OPAIDCEH@?$AAS?$AAy?$AAm?$AAi?$AAn?$AAi?$AAt?$AAi?$AAa?$AAl?$AAi?$AAz?$AAe?$AA?5?$AAf?$AAa?$AAi?$AAl?$AAe?$AAd?$AA?3?$AA?$AA@ 100b0418     TR_Trace:ExcTF.obj
 0002:00005444       ??_C@_1DA@NGDDKOBC@?$AAS?$AAy?$AAm?$AAi?$AAn?$AAi?$AAt?$AAi?$AAa?$AAl?$AAi?$AAz?$AAe?$AA?5?$AAs?$AAu?$AAc?$AAc?$AAe?$AAe?$AAd?$AAe?$AAd?$AA?$AA@ 100b0444     TR_Trace:ExcTF.obj
 0002:00005474       ??_C@_01ICJEACDI@?$DL?$AA@ 100b0474     TR_Trace:ExcTF.obj
 0002:00005478       ??_C@_15GANGMFKL@?$AA?$CF?$AAs?$AA?$AA@ 100b0478     TR_Trace:ExcTF.obj
 0002:00005480       ??_C@_19NMAFMAH@?$AA?5?$AA?5?$AA?5?$AA?5?$AA?$AA@ 100b0480     TR_Trace:ExcTF.obj
 0002:0000548c       ??_C@_13LLDNKHDC@?$AA?$CI?$AA?$AA@ 100b048c     TR_Trace:ExcTF.obj
 0002:00005490       ??_C@_13DIBMAFH@?$AA?$CJ?$AA?$AA@ 100b0490     TR_Trace:ExcTF.obj
 0002:00005494       ??_C@_1BE@NMAKOCCH@?$AA?$CF?$AAS?$AA?5?$AA?$CL?$AA?5?$AA0?$AAx?$AA?$CF?$AAx?$AA?$AA@ 100b0494     TR_Trace:ExcTF.obj
 0002:000054a8       ??_C@_1DO@MODBKLJO@?$AA?6?$AA?5?$AA?5?$AA?5?$AA?5?$AA?$CF?$AAS?$AA?3?$AA?6?$AA?5?$AA?5?$AA?5?$AA?5?$AA?5?$AA?5?$AAl?$AAi?$AAn?$AAe?$AA?5?$AA?$CF?$AAd?$AA?5?$AA?$CL?$AA?5?$AA0?$AAx?$AA?$CF?$AAx?$AA?6?$AA?$AA@ 100b04a8     TR_Trace:ExcTF.obj
 0002:000054e8       ??_C@_1CG@EKMPBLIM@?$AA?6?$AA?6?$AAW?$AAa?$AAl?$AAk?$AAi?$AAn?$AAg?$AA?5?$AAs?$AAt?$AAa?$AAc?$AAk?$AA?3?$AA?5?$AA?6?$AA?$AA@ 100b04e8     TR_Trace:ExcTF.obj
 0002:00005510       ??_C@_1DE@GHDOONJD@?$AA?5?$AA?5?$AAs?$AAa?$AA?3?$AA?5?$AA0?$AAx?$AA?$CF?$AA0?$AA8?$AAx?$AA?5?$AA?5?$AAr?$AAa?$AA?3?$AA?5?$AA0?$AAx?$AA?$CF?$AA0?$AA8?$AAx?$AA?6?$AA?$AA@ 100b0510     TR_Trace:ExcTF.obj
 0002:00005548       ??_C@_1FI@IEKBELIL@?$AA?4?$AA?4?$AA?4?$AAS?$AAt?$AAa?$AAc?$AAk?$AA?5?$AAt?$AAo?$AAo?$AA?5?$AAd?$AAe?$AAe?$AAp?$AA?5?$AAo?$AAr?$AA?5?$AAr?$AAe?$AAc?$AAu?$AAr?$AAs?$AAi?$AAn?$AAg?$AA?0?$AA?5@ 100b0548     TR_Trace:ExcTF.obj
 0002:000055a0       ??_C@_1EA@ODECKMLD@?$AA?4?$AA?4?$AA?4?$AAS?$AAt?$AAa?$AAc?$AAk?$AA?5?$AAc?$AAo?$AAr?$AAr?$AAu?$AAp?$AAt?$AAe?$AAd?$AA?0?$AA?5?$AAw?$AAa?$AAl?$AAk?$AA?5?$AAe?$AAn?$AAd?$AAe?$AAd?$AA?6?$AA?$AA@ 100b05a0     TR_Trace:ExcTF.obj
 0002:000055e0       ??_C@_1CI@HLBLDCDK@?$AAS?$AAt?$AAa?$AAc?$AAk?$AA?5?$AAw?$AAa?$AAl?$AAk?$AA?5?$AAb?$AAl?$AAe?$AAw?$AA?5?$AAu?$AAp?$AA?6?$AA?$AA@ 100b05e0     TR_Trace:ExcTF.obj
 0002:00005608       ??_C@_1JG@LJHHMNMH@?$AAB?$AAa?$AAd?$AA?5?$AAe?$AAx?$AAc?$AAe?$AAp?$AAt?$AAi?$AAo?$AAn?$AA?5?$AAi?$AAn?$AAf?$AAo?$AAr?$AAm?$AAa?$AAt?$AAi?$AAo?$AAn?$AA?5?$AA?$CI?$AAE?$AAX?$AAC?$AAE?$AAP@ 100b0608     TR_Trace:ExcTF.obj
 0002:000056a0       ??_C@_1JC@PGOLPHNI@?$AAB?$AAa?$AAd?$AA?5?$AAe?$AAx?$AAc?$AAe?$AAp?$AAt?$AAi?$AAo?$AAn?$AA?5?$AAi?$AAn?$AAf?$AAo?$AAr?$AAm?$AAa?$AAt?$AAi?$AAo?$AAn?$AA?5?$AA?$CI?$AAE?$AAX?$AAC?$AAE?$AAP@ 100b06a0     TR_Trace:ExcTF.obj
 0002:00005734       ??_C@_1CG@GEMGONBM@?$AAA?$AAc?$AAc?$AAe?$AAs?$AAs?$AA?5?$AAV?$AAi?$AAo?$AAl?$AAa?$AAt?$AAi?$AAo?$AAn?$AA?4?$AA?5?$AA?$AA@ 100b0734     TR_Trace:ExcTF.obj
 0002:00005760       ??_C@_1FA@OFMBHNPE@?$AAR?$AAe?$AAa?$AAd?$AA?5?$AAa?$AAc?$AAc?$AAe?$AAs?$AAs?$AA?5?$AAt?$AAo?$AA?5?$AAa?$AAd?$AAd?$AAr?$AAe?$AAs?$AAs?$AA?5?$AA0?$AAx?$AA?$CF?$AA8?$AA?4?$AA8?$AAx?$AA?5?$AAf@ 100b0760     TR_Trace:ExcTF.obj
 0002:000057b0       ??_C@_1FC@MEPFFFPG@?$AAW?$AAr?$AAi?$AAt?$AAe?$AA?5?$AAa?$AAc?$AAc?$AAe?$AAs?$AAs?$AA?5?$AAt?$AAo?$AA?5?$AAa?$AAd?$AAd?$AAr?$AAe?$AAs?$AAs?$AA?5?$AA0?$AAx?$AA?$CF?$AA8?$AA?4?$AA8?$AAx?$AA?5@ 100b07b0     TR_Trace:ExcTF.obj
 0002:00005808       ??_C@_1BCK@NBNIEJNL@?$AAA?$AAr?$AAr?$AAa?$AAy?$AA?5?$AAe?$AAl?$AAe?$AAm?$AAe?$AAn?$AAt?$AA?5?$AAo?$AAu?$AAt?$AA?5?$AAo?$AAf?$AA?5?$AAb?$AAo?$AAu?$AAn?$AAd?$AAs?$AA?4?$AA?5?$AAT?$AAh?$AAe@ 100b0808     TR_Trace:ExcTF.obj
 0002:00005934       ??_C@_1DO@PPABFJKE@?$AAA?$AA?5?$AAb?$AAr?$AAe?$AAa?$AAk?$AA?5?$AAp?$AAo?$AAi?$AAn?$AAt?$AA?5?$AAw?$AAa?$AAs?$AA?5?$AAe?$AAn?$AAc?$AAo?$AAu?$AAn?$AAt?$AAe?$AAr?$AAe?$AAd?$AA?4?$AA?$AA@ 100b0934     TR_Trace:ExcTF.obj
 0002:00005978       ??_C@_1BNC@KMKDFKAP@?$AAD?$AAa?$AAt?$AAa?$AA?5?$AAm?$AAi?$AAs?$AAl?$AAi?$AAg?$AAn?$AAm?$AAe?$AAn?$AAt?$AA?4?$AA?5?$AAT?$AAh?$AAe?$AA?5?$AAt?$AAh?$AAr?$AAe?$AAa?$AAd?$AA?5?$AAt?$AAr?$AAi@ 100b0978     TR_Trace:ExcTF.obj
 0002:00005b50       ??_C@_1BGI@OFBINOLF@?$AAF?$AAl?$AAo?$AAa?$AAt?$AAi?$AAn?$AAg?$AA?5?$AAp?$AAo?$AAi?$AAn?$AAt?$AA?5?$AAe?$AAx?$AAc?$AAe?$AAp?$AAt?$AAi?$AAo?$AAn?$AA?4?$AA?5?$AAO?$AAn?$AAe?$AA?5?$AAo?$AAf@ 100b0b50     TR_Trace:ExcTF.obj
 0002:00005cb8       ??_C@_1OC@KIJOIJGJ@?$AAF?$AAl?$AAo?$AAa?$AAt?$AAi?$AAn?$AAg?$AA?5?$AAp?$AAo?$AAi?$AAn?$AAt?$AA?5?$AAe?$AAx?$AAc?$AAe?$AAp?$AAt?$AAi?$AAo?$AAn?$AA?4?$AA?5?$AAT?$AAh?$AAe?$AA?5?$AAt?$AAh@ 100b0cb8     TR_Trace:ExcTF.obj
 0002:00005da0       ??_C@_1PA@BCOHEEOD@?$AAF?$AAl?$AAo?$AAa?$AAt?$AAi?$AAn?$AAg?$AA?5?$AAp?$AAo?$AAi?$AAn?$AAt?$AA?5?$AAe?$AAx?$AAc?$AAe?$AAp?$AAt?$AAi?$AAo?$AAn?$AA?4?$AA?5?$AAT?$AAh?$AAe?$AA?5?$AAr?$AAe@ 100b0da0     TR_Trace:ExcTF.obj
 0002:00005e90       ??_C@_1FM@EKCJFMIO@?$AAF?$AAl?$AAo?$AAa?$AAt?$AAi?$AAn?$AAg?$AA?5?$AAp?$AAo?$AAi?$AAn?$AAt?$AA?5?$AAe?$AAx?$AAc?$AAe?$AAp?$AAt?$AAi?$AAo?$AAn?$AA?4?$AA?5?$AA?5?$AAI?$AAn?$AAv?$AAa?$AAl@ 100b0e90     TR_Trace:ExcTF.obj
 0002:00005ef0       ??_C@_1BAO@KKDOKOAM@?$AAF?$AAl?$AAo?$AAa?$AAt?$AAi?$AAn?$AAg?$AA?5?$AAp?$AAo?$AAi?$AAn?$AAt?$AA?5?$AAe?$AAx?$AAc?$AAe?$AAp?$AAt?$AAi?$AAo?$AAn?$AA?4?$AA?5?$AA?5?$AAT?$AAh?$AAe?$AA?5?$AAe@ 100b0ef0     TR_Trace:ExcTF.obj
 0002:00006000       ??_C@_1NG@KAIFMADL@?$AAF?$AAl?$AAo?$AAa?$AAt?$AAi?$AAn?$AAg?$AA?5?$AAp?$AAo?$AAi?$AAn?$AAt?$AA?5?$AAe?$AAx?$AAc?$AAe?$AAp?$AAt?$AAi?$AAo?$AAn?$AA?4?$AA?5?$AAT?$AAh?$AAe?$AA?5?$AAs?$AAt@ 100b1000     TR_Trace:ExcTF.obj
 0002:000060d8       ??_C@_1BAG@NOKNEFPH@?$AAF?$AAl?$AAo?$AAa?$AAt?$AAi?$AAn?$AAg?$AA?5?$AAp?$AAo?$AAi?$AAn?$AAt?$AA?5?$AAe?$AAx?$AAc?$AAe?$AAp?$AAt?$AAi?$AAo?$AAn?$AA?4?$AA?5?$AAT?$AAh?$AAe?$AA?5?$AAe?$AAx@ 100b10d8     TR_Trace:ExcTF.obj
 0002:000061e0       ??_C@_1DM@ENOIMGMG@?$AAI?$AAl?$AAe?$AAg?$AAa?$AAl?$AA?5?$AAi?$AAn?$AAs?$AAt?$AAr?$AAu?$AAc?$AAt?$AAi?$AAo?$AAn?$AA?5?$AAe?$AAx?$AAe?$AAc?$AAu?$AAt?$AAi?$AAo?$AAn?$AA?4?$AA?$AA@ 100b11e0     TR_Trace:ExcTF.obj
 0002:00006220       ??_C@_1BME@FACDDBEM@?$AAP?$AAa?$AAg?$AAe?$AA?5?$AAe?$AAr?$AAr?$AAo?$AAr?$AA?4?$AA?5?$AAT?$AAh?$AAe?$AA?5?$AAt?$AAh?$AAr?$AAe?$AAa?$AAd?$AA?5?$AAt?$AAr?$AAi?$AAe?$AAd?$AA?5?$AAt?$AAo?$AA?5@ 100b1220     TR_Trace:ExcTF.obj
 0002:000063e8       ??_C@_1LM@CBGGGNAM@?$AAI?$AAn?$AAt?$AAe?$AAg?$AAe?$AAr?$AA?5?$AAe?$AAx?$AAc?$AAe?$AAp?$AAt?$AAi?$AAo?$AAn?$AA?4?$AA?5?$AAT?$AAh?$AAe?$AA?5?$AAt?$AAh?$AAr?$AAe?$AAa?$AAd?$AA?5?$AAt?$AAr@ 100b13e8     TR_Trace:ExcTF.obj
 0002:000064a8       ??_C@_1OG@KDJCBCO@?$AAI?$AAn?$AAt?$AAe?$AAg?$AAe?$AAr?$AA?5?$AAe?$AAx?$AAc?$AAe?$AAp?$AAt?$AAi?$AAo?$AAn?$AA?4?$AA?5?$AAT?$AAh?$AAe?$AA?5?$AAr?$AAe?$AAs?$AAu?$AAl?$AAt?$AA?5?$AAo?$AAf@ 100b14a8     TR_Trace:ExcTF.obj
 0002:00006590       ??_C@_1BFG@LNLEAIBI@?$AAA?$AAn?$AA?5?$AAe?$AAx?$AAc?$AAe?$AAp?$AAt?$AAi?$AAo?$AAn?$AA?5?$AAh?$AAa?$AAn?$AAd?$AAl?$AAe?$AAr?$AA?5?$AAr?$AAe?$AAt?$AAu?$AAr?$AAn?$AAe?$AAd?$AA?5?$AAa?$AAn@ 100b1590     TR_Trace:ExcTF.obj
 0002:000066e8       ??_C@_1KE@IOPGPKEO@?$AAT?$AAh?$AAe?$AA?5?$AAt?$AAh?$AAr?$AAe?$AAa?$AAd?$AA?5?$AAt?$AAr?$AAi?$AAe?$AAd?$AA?5?$AAt?$AAo?$AA?5?$AAc?$AAo?$AAn?$AAt?$AAi?$AAn?$AAu?$AAe?$AA?5?$AAe?$AAx?$AAe@ 100b16e8     TR_Trace:ExcTF.obj
 0002:00006790       ??_C@_1BAA@CJKEPLGD@?$AAP?$AAr?$AAi?$AAv?$AAi?$AAl?$AAe?$AAd?$AAg?$AAe?$AAd?$AA?5?$AAI?$AAn?$AAs?$AAt?$AAr?$AAu?$AAc?$AAt?$AAi?$AAo?$AAn?$AA?4?$AA?5?$AAT?$AAh?$AAe?$AA?5?$AAt?$AAh?$AAr@ 100b1790     TR_Trace:ExcTF.obj
 0002:00006890       ??_C@_1MI@ENLPNBFP@?$AAA?$AA?5?$AAt?$AAr?$AAa?$AAc?$AAe?$AA?5?$AAt?$AAr?$AAa?$AAp?$AA?5?$AAo?$AAr?$AA?5?$AAo?$AAt?$AAh?$AAe?$AAr?$AA?5?$AAs?$AAi?$AAn?$AAg?$AAl?$AAe?$AA?9?$AAi?$AAn?$AAs@ 100b1890     TR_Trace:ExcTF.obj
 0002:00006958       ??_C@_1CA@JDNEMMDE@?$AAS?$AAt?$AAa?$AAc?$AAk?$AA?5?$AAO?$AAv?$AAe?$AAr?$AAf?$AAl?$AAo?$AAw?$AA?4?$AA?$AA@ 100b1958     TR_Trace:ExcTF.obj
 0002:00006978       ??_C@_1CG@GPAKCFMC@?$AAU?$AAn?$AAk?$AAn?$AAo?$AAw?$AAn?$AA?5?$AAE?$AAx?$AAc?$AAe?$AAp?$AAt?$AAi?$AAo?$AAn?$AA?4?$AA?$AA@ 100b1978     TR_Trace:ExcTF.obj
 0002:000069a0       ??_C@_1DI@GBDFEN@?$AAE?$AAr?$AAr?$AAo?$AAr?$AA?5?$AAg?$AAe?$AAt?$AAt?$AAi?$AAn?$AAg?$AA?5?$AAf?$AAa?$AAu?$AAl?$AAt?$AA?5?$AAs?$AAt?$AAr?$AAi?$AAn?$AAg?$AA?$CB?$AA?$AA@ 100b19a0     TR_Trace:ExcTF.obj
 0002:000069d8       ??_C@_1BA@CEMEAOLH@?$AAM?$AAu?$AAt?$AAe?$AAx?$AA?$CF?$AAi?$AA?$AA@ 100b19d8     TR_Trace:ExcTF.obj
 0002:000069e8       ??_C@_1EO@PPMHHCCJ@?$AAS?$AAy?$AAm?$AA_?$AAI?$AAn?$AAi?$AAt?$AA?5?$AAm?$AAu?$AAt?$AAe?$AAx?$AA?5?$AAn?$AAo?$AAt?$AA?5?$AAc?$AAr?$AAe?$AAa?$AAt?$AAe?$AAd?$AA?0?$AA?5?$AAe?$AAr?$AAr?$AAo@ 100b19e8     TR_Trace:ExcTF.obj
 0002:00006a38       ??_C@_1FK@LDKEMJMI@?$AAe?$AA?3?$AA?2?$AAc?$AAo?$AAm?$AAm?$AAs?$AA_?$AAn?$AAi?$AAu?$AA?2?$AAf?$AAc?$AAc?$AA?2?$AAf?$AAc?$AAc?$AA_?$AAf?$AAc?$AA_?$AAs?$AAr?$AAc?$AA?2?$AAs?$AAr?$AAc?$AA?2@ 100b1a38     TR_Trace:ExcTF.obj
 0002:00006a98       ??_C@_1FA@JIKPJEOP@?$AAS?$AAy?$AAm?$AA_?$AAI?$AAn?$AAi?$AAt?$AA?5?$AAm?$AAu?$AAt?$AAe?$AAx?$AA?5?$AAn?$AAo?$AAt?$AA?5?$AAr?$AAe?$AAl?$AAe?$AAa?$AAs?$AAe?$AAd?$AA?0?$AA?5?$AAe?$AAr?$AAr@ 100b1a98     TR_Trace:ExcTF.obj
 0002:00006ae8       ??_C@_1GI@JOACDLND@?$AAS?$AAy?$AAm?$AA_?$AAI?$AAn?$AAi?$AAt?$AA?5?$AAn?$AAo?$AAt?$AA?5?$AAi?$AAn?$AAs?$AAt?$AAa?$AAn?$AAt?$AAi?$AAa?$AAt?$AAe?$AAd?$AA?$DL?$AA?5?$AAc?$AAa?$AAu?$AAg?$AAh@ 100b1ae8     TR_Trace:ExcTF.obj
 0002:00006b50       ??_C@_1FO@KMDLECM@?$AAE?$AA?3?$AA?2?$AAc?$AAo?$AAm?$AAm?$AAs?$AA_?$AAn?$AAi?$AAu?$AA?2?$AAf?$AAc?$AAc?$AA?2?$AAF?$AAC?$AAC?$AA_?$AAF?$AAC?$AA_?$AAs?$AAr?$AAc?$AA?2?$AAs?$AAr?$AAc?$AA?2@ 100b1b50     TR_Trace:trace.obj
 0002:00006bb0       ??_C@_1BG@BHPJCBAI@?$AA?$CB?$AAI?$AAs?$AAE?$AAm?$AAp?$AAt?$AAy?$AA?$CI?$AA?$CJ?$AA?$AA@ 100b1bb0     TR_Trace:trace.obj
 0002:00006bc8       ??_C@_1GG@BNFFEHP@?$AAE?$AA?3?$AA?2?$AAc?$AAo?$AAm?$AAm?$AAs?$AA_?$AAn?$AAi?$AAu?$AA?2?$AAf?$AAc?$AAc?$AA?2?$AAF?$AAC?$AAC?$AA_?$AAF?$AAC?$AA_?$AAs?$AAr?$AAc?$AA?2?$AAs?$AAr?$AAc?$AA?2@ 100b1bc8     TR_Trace:trace.obj
 0002:00006c34       ??_7TR_StreamBase@@6B@     100b1c34     TR_Trace:trace.obj
 0002:00006c40       ??_7TR_Stream@@6B@         100b1c40     TR_Trace:trace.obj
 0002:00006c4c       ??_7TR_BinStream@@6B@      100b1c4c     TR_Trace:trace.obj
 0002:00006c5c       ??_7?$basic_filebuf@DU?$char_traits@D@std@@@std@@6B@ 100b1c5c     TR_Trace:trace.obj
 0002:00006c9c       ??_7?$basic_ofstream@DU?$char_traits@D@std@@@std@@6B@ 100b1c9c     TR_Trace:trace.obj
 0002:00006ca8       ??_8?$basic_ofstream@DU?$char_traits@D@std@@@std@@7B@ 100b1ca8     TR_Trace:trace.obj
 0002:00006cb4       ??_7?$basic_filebuf@_WU?$char_traits@_W@std@@@std@@6B@ 100b1cb4     TR_Trace:trace.obj
 0002:00006cf4       ??_7?$basic_ofstream@_WU?$char_traits@_W@std@@@std@@6B@ 100b1cf4     TR_Trace:trace.obj
 0002:00006d00       ??_8?$basic_ofstream@_WU?$char_traits@_W@std@@@std@@7B@ 100b1d00     TR_Trace:trace.obj
 0002:00006d0c       ??_7TR_AltFileStream@@6B@  100b1d0c     TR_Trace:trace.obj
 0002:00006d14       ??_C@_1BE@FDALPEC@?$AAt?$AAr?$AAa?$AAc?$AAe?$AA?4?$AAc?$AAp?$AAp?$AA?$AA@ 100b1d14     TR_Trace:trace.obj
 0002:00006d28       ??_C@_1BA@NAFHFLCF@?$AAp?$AAS?$AAt?$AAr?$AAe?$AAa?$AAm?$AA?$AA@ 100b1d28     TR_Trace:trace.obj
 0002:00006d38       ??_C@_1OO@JMNIOKLM@?$AAi?$AAd?$AAe?$AAn?$AAt?$AAi?$AAf?$AAi?$AAe?$AAr?$AAF?$AAo?$AAr?$AAm?$AAa?$AAt?$AA?5?$AA?$DN?$AA?$DN?$AA?5?$AAT?$AAR?$AA_?$AAn?$AAo?$AAn?$AAe?$AA?5?$AA?$HM?$AA?$HM?$AA?5?$AAi@ 100b1d38     TR_Trace:trace.obj
 0002:00006e28       ??_C@_15IALCAGAM@?$AA?$DL?$AA?5?$AA?$AA@ 100b1e28     TR_Trace:trace.obj
 0002:00006e30       ??_C@_1BI@HFFJKEJD@?$AA?8?$AA?5?$AA?9?$AA?9?$AAu?$AAs?$AAe?$AA?5?$AA?8?$AA?$DL?$AA?8?$AA?$AA@ 100b1e30     TR_Trace:trace.obj
 0002:00006e48       ??_C@_1FA@PNBJBDOB@?$AAT?$AAR?$AA_?$AAS?$AAt?$AAr?$AAe?$AAa?$AAm?$AAB?$AAa?$AAs?$AAe?$AA?3?$AA?3?$AAS?$AAe?$AAt?$AA?3?$AA?5?$AAu?$AAn?$AAk?$AAn?$AAo?$AAw?$AAn?$AA?5?$AAs?$AAe?$AAp?$AAa@ 100b1e48     TR_Trace:trace.obj
 0002:00006e98       ??_C@_1HK@LODLFPII@?$AAT?$AAR?$AA_?$AAS?$AAt?$AAr?$AAe?$AAa?$AAm?$AAB?$AAa?$AAs?$AAe?$AA?3?$AA?3?$AAS?$AAi?$AAm?$AAp?$AAl?$AAe?$AAC?$AAo?$AAm?$AAm?$AAa?$AAn?$AAd?$AA?3?$AA?5?$AA?8?$AA?$CK@ 100b1e98     TR_Trace:trace.obj
 0002:00006f18       ??_C@_1GA@CKCLOILF@?$AAT?$AAR?$AA_?$AAS?$AAt?$AAr?$AAe?$AAa?$AAm?$AAB?$AAa?$AAs?$AAe?$AA?3?$AA?3?$AAS?$AAi?$AAm?$AAp?$AAl?$AAe?$AAC?$AAo?$AAm?$AAm?$AAa?$AAn?$AAd?$AA?3?$AA?5?$AAe?$AAm@ 100b1f18     TR_Trace:trace.obj
 0002:00006f78       ??_C@_13ODFOLHGE@?$AA?8?$AA?$AA@ 100b1f78     TR_Trace:trace.obj
 0002:00006f80       ??_C@_1IC@HDKEBGKO@?$AAT?$AAR?$AA_?$AAS?$AAt?$AAr?$AAe?$AAa?$AAm?$AAB?$AAa?$AAs?$AAe?$AA?3?$AA?3?$AAS?$AAi?$AAm?$AAp?$AAl?$AAe?$AAC?$AAo?$AAm?$AAm?$AAa?$AAn?$AAd?$AA?3?$AA?5?$AAn?$AAo@ 100b1f80     TR_Trace:trace.obj
 0002:00007004       ??_C@_1BM@MCODGLIC@?$AA?8?$AA?5?$AAf?$AAo?$AAr?$AA?5?$AAm?$AAo?$AAd?$AAu?$AAl?$AAe?$AA?5?$AA?$AA@ 100b2004     TR_Trace:trace.obj
 0002:00007020       ??_C@_1GC@IACECGPF@?$AAT?$AAR?$AA_?$AAS?$AAt?$AAr?$AAe?$AAa?$AAm?$AAB?$AAa?$AAs?$AAe?$AA?3?$AA?3?$AAS?$AAi?$AAm?$AAp?$AAl?$AAe?$AAC?$AAo?$AAm?$AAm?$AAa?$AAn?$AAd?$AA?3?$AA?5?$AAu?$AAn@ 100b2020     TR_Trace:trace.obj
 0002:00007084       ??_C@_1BM@GLPGLHPG@?$AA?8?$AA?5?$AAt?$AAo?$AA?5?$AAm?$AAo?$AAd?$AAu?$AAl?$AAe?$AA?5?$AA?8?$AA?$AA@ 100b2084     TR_Trace:trace.obj
 0002:000070a0       ??_C@_1HA@EPCOPPMO@?$AAT?$AAR?$AA_?$AAS?$AAt?$AAr?$AAe?$AAa?$AAm?$AAB?$AAa?$AAs?$AAe?$AA?3?$AA?3?$AAS?$AAi?$AAm?$AAp?$AAl?$AAe?$AAC?$AAo?$AAm?$AAm?$AAa?$AAn?$AAd?$AA?3?$AA?5?$AAf?$AAa@ 100b20a0     TR_Trace:trace.obj
 0002:00007110       ??_C@_1FO@JLCEHOLH@?$AAT?$AAR?$AA_?$AAS?$AAt?$AAr?$AAe?$AAa?$AAm?$AAB?$AAa?$AAs?$AAe?$AA?3?$AA?3?$AAS?$AAi?$AAm?$AAp?$AAl?$AAe?$AAC?$AAo?$AAm?$AAm?$AAa?$AAn?$AAd?$AA?3?$AA?5?$AAu?$AAn@ 100b2110     TR_Trace:trace.obj
 0002:00007170       ??_C@_1FK@FPDGCHKD@?$AAT?$AAR?$AA_?$AAS?$AAt?$AAr?$AAe?$AAa?$AAm?$AAB?$AAa?$AAs?$AAe?$AA?3?$AA?3?$AAE?$AAn?$AAt?$AAe?$AAr?$AAC?$AAr?$AAi?$AAt?$AAi?$AAc?$AAa?$AAl?$AAS?$AAe?$AAc?$AAt@ 100b2170     TR_Trace:trace.obj
 0002:000071d0       ??_C@_1FE@FICAHFBD@?$AA?$CK?$AA?$CK?$AA?$CK?$AA?$CK?$AA?$CK?$AA?$CK?$AA?$CK?$AA?$CK?$AA?$CK?$AA?$CK?$AA?$CK?$AA?$CK?$AA?$CK?$AA?$CK?$AA?$CK?$AA?$CK?$AA?$CK?$AA?$CK?$AA?$CK?$AA?$CK?$AA?$CK?$AA?$CK?$AA?$CK?$AA?$CK?$AA?$CK?$AA?$CK?$AA?$CK?$AA?$CK?$AA?$CK?$AA?$CK?$AA?$CK?$AA?$CK@ 100b21d0     TR_Trace:trace.obj
 0002:00007224       ??_C@_1BE@MAHMHPEN@?$AAt?$AAe?$AAm?$AAp?$AA?4?$AAm?$AAb?$AAi?$AA?$AA?$AA?$AA@ 100b2224     TR_Trace:trace.obj
 0002:00007238       ??_C@_03JDMLODLP@NUL?$AA@  100b2238     TR_Trace:trace.obj
 0002:0000723c       ??_C@_1BK@OMOABDAO@?$AA?5?$AAi?$AAs?$AA?5?$AAi?$AAn?$AAv?$AAa?$AAl?$AAi?$AAd?$AA?4?$AA?$AA@ 100b223c     TR_Trace:trace.obj
 0002:00007258       ??_C@_1BK@PEKDFAMI@?$AAM?$AAo?$AAd?$AAu?$AAl?$AAe?$AA?5?$AAn?$AAa?$AAm?$AAe?$AA?5?$AA?$AA@ 100b2258     TR_Trace:trace.obj
 0002:00007274       ??_C@_13NMPKAAJP@?$AA?$DN?$AA?$AA@ 100b2274     TR_Trace:trace.obj
 0002:00007278       ??_C@_13DEFPDAGF@?$AA?0?$AA?$AA@ 100b2278     TR_Trace:trace.obj
 0002:0000727c       ??_C@_1O@KIHCKGKN@?$AA?$CF?$AAp?$AAr?$AAi?$AAn?$AAt?$AA?$AA@ 100b227c     TR_Trace:trace.obj
 0002:0000728c       ??_C@_1BO@OODABHHN@?$AA?8?$AA?5?$AAf?$AAo?$AAr?$AA?5?$AAm?$AAo?$AAd?$AAu?$AAl?$AAe?$AA?5?$AA?8?$AA?$AA@ 100b228c     TR_Trace:trace.obj
 0002:000072b0       ??_C@_1FG@DHMJJGMJ@?$AAT?$AAR?$AA_?$AAM?$AAo?$AAd?$AAu?$AAl?$AAe?$AA?3?$AA?3?$AAA?$AAp?$AAp?$AAl?$AAy?$AAS?$AAp?$AAe?$AAc?$AAi?$AAa?$AAl?$AA?3?$AA?5?$AAu?$AAn?$AAk?$AAn?$AAo?$AAw?$AAn@ 100b22b0     TR_Trace:trace.obj
 0002:00007308       ??_C@_1HE@ENPPFEBD@?$AAT?$AAR?$AA_?$AAM?$AAo?$AAd?$AAu?$AAl?$AAe?$AA?3?$AA?3?$AAA?$AAp?$AAp?$AAl?$AAy?$AAO?$AAp?$AAe?$AAr?$AAa?$AAt?$AAi?$AAo?$AAn?$AAT?$AAo?$AAA?$AAl?$AAl?$AAL?$AAe@ 100b2308     TR_Trace:trace.obj
 0002:00007380       ??_C@_1GO@DFJMDEJM@?$AAT?$AAR?$AA_?$AAM?$AAo?$AAd?$AAu?$AAl?$AAe?$AA?3?$AA?3?$AAA?$AAp?$AAp?$AAl?$AAy?$AAC?$AAo?$AAm?$AAm?$AAa?$AAn?$AAd?$AA?3?$AA?5?$AAe?$AAm?$AAp?$AAt?$AAy?$AA?5?$AAl@ 100b2380     TR_Trace:trace.obj
 0002:000073f0       ??_C@_1FC@LFGHGGIF@?$AAT?$AAR?$AA_?$AAM?$AAo?$AAd?$AAu?$AAl?$AAe?$AA?3?$AA?3?$AAA?$AAp?$AAp?$AAl?$AAy?$AAC?$AAo?$AAm?$AAm?$AAa?$AAn?$AAd?$AA?3?$AA?5?$AAu?$AAn?$AAk?$AAn?$AAo?$AAw?$AAn@ 100b23f0     TR_Trace:trace.obj
 0002:00007444       ??_C@_1BK@JNKMHBLB@?$AAG?$AAe?$AAt?$AAL?$AAe?$AAv?$AAe?$AAl?$AAI?$AAn?$AAf?$AAo?$AA?$AA@ 100b2444     TR_Trace:trace.obj
 0002:00007460       ??_C@_1BI@JPMFDGGH@?$AAL?$AAe?$AAv?$AAe?$AAl?$AA?5?$AAn?$AAa?$AAm?$AAe?$AA?5?$AA?$AA@ 100b2460     TR_Trace:trace.obj
 0002:00007478       ??_C@_13EBCNDICG@?$AA?3?$AA?$AA@ 100b2478     TR_Trace:trace.obj
 0002:0000747c       ??_C@_1DA@DHGDIGNB@?$AA?$CB?$AAi?$AAd?$AAe?$AAn?$AAt?$AAi?$AAf?$AAi?$AAe?$AAr?$AAL?$AAi?$AAs?$AAt?$AA?4?$AAe?$AAm?$AAp?$AAt?$AAy?$AA?$CI?$AA?$CJ?$AA?$AA@ 100b247c     TR_Trace:trace.obj
 0002:000074ac       ??_C@_1M@JIPEKBDC@?$AA?$CF?$AA0?$AA2?$AAd?$AA?5?$AA?$AA@ 100b24ac     TR_Trace:trace.obj
 0002:000074b8       ??_C@_1CI@JIECHPIF@?$AA?$CF?$AA0?$AA2?$AAd?$AA?3?$AA?$CF?$AA0?$AA2?$AAd?$AA?3?$AA?$CF?$AA0?$AA2?$AAd?$AA?4?$AA?$CF?$AA0?$AA3?$AAd?$AA?$AA@ 100b24b8     TR_Trace:trace.obj
 0002:000074e0       ??_C@_19MJBBNNIE@?$AA?5?$AA?$CF?$AA4?$AAd?$AA?$AA@ 100b24e0     TR_Trace:trace.obj
 0002:000074ec       ??_C@_19MNANAHIA@?$AA?5?$AA?$CF?$AA?$CD?$AAx?$AA?$AA@ 100b24ec     TR_Trace:trace.obj
 0002:000074f8       ??_C@_17IAIOLGBB@?$AA?5?$AA?$CF?$AAd?$AA?$AA@ 100b24f8     TR_Trace:trace.obj
 0002:00007500       ??_C@_17BNFJIOKI@?$AA?5?$AA?$CF?$AAc?$AA?$AA@ 100b2500     TR_Trace:trace.obj
 0002:00007508       ??_C@_15ELOONFKJ@?$AA?3?$AA?5?$AA?$AA@ 100b2508     TR_Trace:trace.obj
 0002:00007510       ??_C@_1HM@GMHNBAJO@?$AAn?$AAu?$AAm?$AAb?$AAe?$AAr?$AAO?$AAf?$AAF?$AAi?$AAl?$AAe?$AAs?$AAL?$AAi?$AAm?$AAi?$AAt?$AAP?$AAa?$AAr?$AAa?$AAm?$AA?5?$AA?$DO?$AA?$DN?$AA?5?$AA2?$AA?5?$AA?$CG?$AA?$CG?$AA?5@ 100b2510     TR_Trace:trace.obj
 0002:0000758c       ??_C@_19MNDKMKJC@?$AA?$CF?$AA0?$AA2?$AAd?$AA?$AA@ 100b258c     TR_Trace:trace.obj
 0002:00007598       ??_C@_19GGNHIDOH@?$AA?4?$AAt?$AAx?$AAt?$AA?$AA@ 100b2598     TR_Trace:trace.obj
 0002:000075a4       ??_C@_1BG@BBGBBMDA@?$AAD?$AAe?$AAl?$AAe?$AAt?$AAe?$AAF?$AAi?$AAl?$AAe?$AA?$AA@ 100b25a4     TR_Trace:trace.obj
 0002:000075bc       ??_C@_1BC@OLPLICAI@?$AAM?$AAo?$AAv?$AAe?$AAF?$AAi?$AAl?$AAe?$AA?$AA@ 100b25bc     TR_Trace:trace.obj
 0002:000075d0       ??_C@_1BC@DAGHLEK@?$AAC?$AAo?$AAp?$AAy?$AAF?$AAi?$AAl?$AAe?$AA?$AA@ 100b25d0     TR_Trace:trace.obj
 0002:000075e8       ??_C@_1GE@CLMIDCMN@?$AAT?$AAR?$AA_?$AAS?$AAt?$AAr?$AAe?$AAa?$AAm?$AAS?$AAe?$AAr?$AAi?$AAa?$AAl?$AAi?$AAz?$AAe?$AAr?$AA?3?$AA?3?$AAT?$AAR?$AA_?$AAS?$AAt?$AAr?$AAe?$AAa?$AAm?$AAS?$AAe@ 100b25e8     TR_Trace:trace.obj
 0002:0000764c       ??_C@_0BM@PAPJHAGI@invalid?5map?1set?$DMT?$DO?5iterator?$AA@ 100b264c     TR_Trace:trace.obj
 0002:00007668       ??_C@_08EPJLHIJG@bad?5cast?$AA@ 100b2668     TR_Trace:trace.obj
 0002:00007674       ??_C@_0BD@IPGJINKL@list?$DMT?$DO?5bad?5splice?$AA@ 100b2674     TR_Trace:trace.obj
 0002:00007688       ??_C@_0BE@JONHPENG@map?1set?$DMT?$DO?5too?5long?$AA@ 100b2688     TR_Trace:trace.obj
 0002:000076a0       ??_7THR_Synchronizer@@6B@  100b26a0     TR_Trace:ThreadSynchronizer.obj
 0002:000076ac       ??_C@_1CO@KEAFJKDP@?$AAT?$AAh?$AAr?$AAe?$AAa?$AAd?$AAS?$AAy?$AAn?$AAc?$AAh?$AAr?$AAo?$AAn?$AAi?$AAz?$AAe?$AAr?$AA?4?$AAc?$AAp?$AAp?$AA?$AA@ 100b26ac     TR_Trace:ThreadSynchronizer.obj
 0002:000076dc       ??_C@_1CE@KFIAMFOC@?$AAm?$AA_?$AAh?$AAO?$AAb?$AAj?$AAe?$AAc?$AAt?$AA?5?$AA?$CB?$AA?$DN?$AA?5?$AAN?$AAU?$AAL?$AAL?$AA?$AA@ 100b26dc     TR_Trace:ThreadSynchronizer.obj
 0002:00007700       ??_C@_1CI@BFAABFCI@?$AAT?$AAh?$AAr?$AAe?$AAa?$AAd?$AAS?$AAe?$AAm?$AAa?$AAp?$AAh?$AAo?$AAr?$AAe?$AA?4?$AAc?$AAp?$AAp?$AA?$AA@ 100b2700     TR_Trace:ThreadSemaphore.obj
 0002:00007728       ??_C@_1BK@GBGOLHHH@?$AAM?$AAa?$AAx?$AAC?$AAo?$AAu?$AAn?$AAt?$AA?5?$AA?$DO?$AA?5?$AA0?$AA?$AA@ 100b2728     TR_Trace:ThreadSemaphore.obj
 0002:00007744       ??_C@_1DC@MBJBBINJ@?$AAI?$AAn?$AAi?$AAt?$AAi?$AAa?$AAl?$AAC?$AAo?$AAu?$AAn?$AAt?$AA?5?$AA?$DM?$AA?$DN?$AA?5?$AAM?$AAa?$AAx?$AAC?$AAo?$AAu?$AAn?$AAt?$AA?$AA@ 100b2744     TR_Trace:ThreadSemaphore.obj
 0002:00007778       ??_C@_1CA@GBOIMAKA@?$AAC?$AAr?$AAe?$AAa?$AAt?$AAe?$AAS?$AAe?$AAm?$AAa?$AAp?$AAh?$AAo?$AAr?$AAe?$AA?$AA@ 100b2778     TR_Trace:ThreadSemaphore.obj
 0002:00007798       ??_C@_1BE@IMJLAELI@?$AAc?$AAo?$AAu?$AAn?$AAt?$AA?5?$AA?$DO?$AA?5?$AA0?$AA?$AA@ 100b2798     TR_Trace:ThreadSemaphore.obj
 0002:000077ac       ??_C@_1M@PHNCLBLI@?$AA?5?$AA?$CI?$AA?$CF?$AAu?$AA?$CJ?$AA?$AA@ 100b27ac     TR_Trace:win32Error.obj
 0002:000077b8       ??_C@_1GE@FANFPDDB@?$AAe?$AA?3?$AA?2?$AAc?$AAo?$AAm?$AAm?$AAs?$AA_?$AAn?$AAi?$AAu?$AA?2?$AAf?$AAc?$AAc?$AA?2?$AAf?$AAc?$AAc?$AA_?$AAf?$AAc?$AA_?$AAs?$AAr?$AAc?$AA?2?$AAs?$AAr?$AAc?$AA?2@ 100b27b8     TR_Trace:ntEventLog.obj
 0002:00007820       ??_C@_1FI@NJLKLECI@?$AAS?$AAY?$AAS?$AAT?$AAE?$AAM?$AA?2?$AAC?$AAu?$AAr?$AAr?$AAe?$AAn?$AAt?$AAC?$AAo?$AAn?$AAt?$AAr?$AAo?$AAl?$AAS?$AAe?$AAt?$AA?2?$AAS?$AAe?$AAr?$AAv?$AAi?$AAc?$AAe@ 100b2820     TR_Trace:ntEventLog.obj
 0002:00007878       ??_C@_1BA@LHCAPAJO@?$AAS?$AAy?$AAs?$AAt?$AAe?$AAm?$AA?2?$AA?$AA@ 100b2878     TR_Trace:ntEventLog.obj
 0002:00007888       ??_C@_1BE@JHKGCMMJ@?$AAS?$AAe?$AAc?$AAu?$AAr?$AAi?$AAt?$AAy?$AA?2?$AA?$AA@ 100b2888     TR_Trace:ntEventLog.obj
 0002:0000789c       ??_C@_1BK@GNGCLDLJ@?$AAA?$AAp?$AAp?$AAl?$AAi?$AAc?$AAa?$AAt?$AAi?$AAo?$AAn?$AA?2?$AA?$AA@ 100b289c     TR_Trace:ntEventLog.obj
 0002:000078b8       ??_C@_1CC@JONFAEOP@?$AAE?$AAv?$AAe?$AAn?$AAt?$AAM?$AAe?$AAs?$AAs?$AAa?$AAg?$AAe?$AAF?$AAi?$AAl?$AAe?$AA?$AA@ 100b28b8     TR_Trace:ntEventLog.obj
 0002:000078dc       ??_C@_1BO@CHOLPGLN@?$AAT?$AAy?$AAp?$AAe?$AAs?$AAS?$AAu?$AAp?$AAp?$AAo?$AAr?$AAt?$AAe?$AAd?$AA?$AA@ 100b28dc     TR_Trace:ntEventLog.obj
 0002:000078fc       ??_C@_1CC@BNIFIIEJ@?$AAp?$AAL?$AAo?$AAg?$AAN?$AAa?$AAm?$AAe?$AA?5?$AA?$CB?$AA?$DN?$AA?5?$AAN?$AAU?$AAL?$AAL?$AA?$AA@ 100b28fc     TR_Trace:ntEventLog.obj
 0002:00007920       ??_C@_1CC@GBGIBNNL@?$AAO?$AAp?$AAe?$AAn?$AAP?$AAr?$AAo?$AAc?$AAe?$AAs?$AAs?$AAT?$AAo?$AAk?$AAe?$AAn?$AA?$AA@ 100b2920     TR_Trace:ntEventLog.obj
 0002:00007944       ??_C@_1CI@EODHFOHP@?$AAS?$AAe?$AAS?$AAe?$AAc?$AAu?$AAr?$AAi?$AAt?$AAy?$AAP?$AAr?$AAi?$AAv?$AAi?$AAl?$AAe?$AAg?$AAe?$AA?$AA@ 100b2944     TR_Trace:ntEventLog.obj
 0002:0000796c       ??_C@_1CK@MPPPBOPG@?$AAL?$AAo?$AAo?$AAk?$AAu?$AAp?$AAP?$AAr?$AAi?$AAv?$AAi?$AAl?$AAe?$AAg?$AAe?$AAV?$AAa?$AAl?$AAu?$AAe?$AA?$AA@ 100b296c     TR_Trace:ntEventLog.obj
 0002:00007998       ??_C@_1CM@GJFNELAO@?$AAA?$AAd?$AAj?$AAu?$AAs?$AAt?$AAT?$AAo?$AAk?$AAe?$AAn?$AAP?$AAr?$AAi?$AAv?$AAi?$AAl?$AAe?$AAg?$AAe?$AAs?$AA?$AA@ 100b2998     TR_Trace:ntEventLog.obj
 0002:000079c4       ??_C@_19NJJBIICL@?$AA?2?$AAb?$AAi?$AAn?$AA?$AA@ 100b29c4     TR_Trace:cmmStdPaths.obj
 0002:000079d0       ??_C@_19JOHGEIKK@?$AA?2?$AAe?$AAt?$AAc?$AA?$AA@ 100b29d0     TR_Trace:cmmStdPaths.obj
 0002:000079dc       ??_C@_19IGMNCFKB@?$AA?2?$AAl?$AAi?$AAb?$AA?$AA@ 100b29dc     TR_Trace:cmmStdPaths.obj
 0002:000079e8       ??_C@_1O@GIJDOJEG@?$AA?2?$AAt?$AAr?$AAa?$AAc?$AAe?$AA?$AA@ 100b29e8     TR_Trace:cmmStdPaths.obj
 0002:000079f8       ??_C@_1DA@DOPJOCOJ@?$AAT?$AAR?$AA_?$AAS?$AAe?$AAt?$AAF?$AAi?$AAl?$AAe?$AAP?$AAo?$AAi?$AAn?$AAt?$AAe?$AAr?$AAF?$AAa?$AAi?$AAl?$AAe?$AAd?$AA?$AA@ 100b29f8     TR_Trace:trEvents.obj
 0002:00007a28       ??_C@_1EE@LCOLOOAE@?$AAS?$AAe?$AAt?$AAF?$AAi?$AAl?$AAe?$AAP?$AAo?$AAi?$AAn?$AAt?$AAe?$AAr?$AA?5?$AAf?$AAa?$AAi?$AAl?$AAe?$AAd?$AA?5?$AAo?$AAn?$AA?5?$AA?8?$AA?$CF?$AA1?$AA?8?$AA?4?$AA?5?$AA?$CF@ 100b2a28     TR_Trace:trEvents.obj
 0002:00007a6c       ??_C@_1CE@HMFCKLCN@?$AAT?$AAR?$AA_?$AAR?$AAe?$AAa?$AAd?$AAF?$AAi?$AAl?$AAe?$AAF?$AAa?$AAi?$AAl?$AAe?$AAd?$AA?$AA@ 100b2a6c     TR_Trace:trEvents.obj
 0002:00007a90       ??_C@_1DI@CEPENADH@?$AAR?$AAe?$AAa?$AAd?$AAF?$AAi?$AAl?$AAe?$AA?5?$AAf?$AAa?$AAi?$AAl?$AAe?$AAd?$AA?5?$AAo?$AAn?$AA?5?$AA?8?$AA?$CF?$AA1?$AA?8?$AA?4?$AA?5?$AA?$CF?$AA2?$AA?$AA@ 100b2a90     TR_Trace:trEvents.obj
 0002:00007ac8       ??_C@_1DA@FJNDLGNB@?$AAT?$AAR?$AA_?$AAC?$AAa?$AAn?$AAn?$AAo?$AAt?$AAR?$AAe?$AAo?$AAp?$AAe?$AAn?$AAT?$AAa?$AAi?$AAl?$AAF?$AAi?$AAl?$AAe?$AA?$AA@ 100b2ac8     TR_Trace:trEvents.obj
 0002:00007af8       ??_C@_1EC@FFFFOCIC@?$AAC?$AAa?$AAn?$AAn?$AAo?$AAt?$AA?5?$AAr?$AAe?$AAo?$AAp?$AAe?$AAn?$AA?5?$AAt?$AAa?$AAi?$AAl?$AA?5?$AAf?$AAi?$AAl?$AAe?$AA?5?$AA?8?$AA?$CF?$AA1?$AA?8?$AA?4?$AA?5?$AA?$CF?$AA2@ 100b2af8     TR_Trace:trEvents.obj
 0002:00007b3c       ??_C@_1CO@MJOOFCDD@?$AAT?$AAR?$AA_?$AAC?$AAa?$AAn?$AAn?$AAo?$AAt?$AAO?$AAp?$AAe?$AAn?$AAD?$AAi?$AAr?$AAe?$AAc?$AAt?$AAo?$AAr?$AAy?$AA?$AA@ 100b2b3c     TR_Trace:trEvents.obj
 0002:00007b6c       ??_C@_1DO@IBACBNBJ@?$AAC?$AAa?$AAn?$AAn?$AAo?$AAt?$AA?5?$AAo?$AAp?$AAe?$AAn?$AA?5?$AAd?$AAi?$AAr?$AAe?$AAc?$AAt?$AAo?$AAr?$AAy?$AA?5?$AA?8?$AA?$CF?$AA1?$AA?8?$AA?4?$AA?5?$AA?$CF?$AA2?$AA?$AA@ 100b2b6c     TR_Trace:trEvents.obj
 0002:00007bac       ??_C@_1DK@BHICIAO@?$AAT?$AAR?$AA_?$AAR?$AAe?$AAa?$AAd?$AAD?$AAi?$AAr?$AAe?$AAc?$AAt?$AAo?$AAr?$AAy?$AAC?$AAh?$AAa?$AAn?$AAg?$AAe?$AAF?$AAa?$AAi?$AAl?$AAe?$AAd?$AA?$AA@ 100b2bac     TR_Trace:trEvents.obj
 0002:00007be8       ??_C@_1FA@KDHCBHNB@?$AAR?$AAe?$AAa?$AAd?$AAD?$AAi?$AAr?$AAe?$AAc?$AAt?$AAo?$AAr?$AAy?$AAC?$AAh?$AAa?$AAn?$AAg?$AAe?$AAW?$AA?5?$AAf?$AAa?$AAi?$AAl?$AAe?$AAd?$AA?5?$AAo?$AAn?$AA?5?$AA?8@ 100b2be8     TR_Trace:trEvents.obj
 0002:00007c38       ??_C@_1CK@IJHBPF@?$AAT?$AAR?$AA_?$AAG?$AAe?$AAt?$AAF?$AAi?$AAl?$AAe?$AAT?$AAi?$AAm?$AAe?$AAF?$AAa?$AAi?$AAl?$AAe?$AAd?$AA?$AA@ 100b2c38     TR_Trace:trEvents.obj
 0002:00007c64       ??_C@_1DO@JCKHEPCJ@?$AAG?$AAe?$AAt?$AAF?$AAi?$AAl?$AAe?$AAT?$AAi?$AAm?$AAe?$AA?5?$AAf?$AAa?$AAi?$AAl?$AAe?$AAd?$AA?5?$AAo?$AAn?$AA?5?$AA?8?$AA?$CF?$AA1?$AA?8?$AA?4?$AA?5?$AA?$CF?$AA2?$AA?$AA@ 100b2c64     TR_Trace:trEvents.obj
 0002:00007ca4       ??_C@_1CI@HNDLFPJ@?$AAT?$AAR?$AA_?$AAU?$AAn?$AAa?$AAb?$AAl?$AAe?$AAT?$AAo?$AAO?$AAp?$AAe?$AAn?$AAF?$AAi?$AAl?$AAe?$AA?$AA@ 100b2ca4     TR_Trace:trEvents.obj
 0002:00007cd0       ??_C@_1FC@BKBBOEAD@?$AAU?$AAn?$AAa?$AAb?$AAl?$AAe?$AA?5?$AAt?$AAo?$AA?5?$AAo?$AAp?$AAe?$AAn?$AA?5?$AAf?$AAi?$AAl?$AAe?$AA?5?$AA?8?$AA?$CF?$AA1?$AA?8?$AA?5?$AAd?$AAu?$AAe?$AA?5?$AAt?$AAo?$AA?5@ 100b2cd0     TR_Trace:trEvents.obj
 0002:00007d24       ??_C@_1M@NHDCNHKG@?$AAT?$AAr?$AAa?$AAc?$AAe?$AA?$AA@ 100b2d24     TR_Trace:trEvents.obj
 0002:00007d30       ??_C@_1CK@IAMPNAO@?$AAT?$AAR?$AA_?$AAU?$AAn?$AAa?$AAb?$AAl?$AAe?$AAT?$AAo?$AAC?$AAl?$AAo?$AAs?$AAe?$AAF?$AAi?$AAl?$AAe?$AA?$AA@ 100b2d30     TR_Trace:trEvents.obj
 0002:00007d60       ??_C@_1FE@EHIENHOA@?$AAU?$AAn?$AAa?$AAb?$AAl?$AAe?$AA?5?$AAt?$AAo?$AA?5?$AAc?$AAl?$AAo?$AAs?$AAe?$AA?5?$AAf?$AAi?$AAl?$AAe?$AA?5?$AA?8?$AA?$CF?$AA1?$AA?8?$AA?5?$AAd?$AAu?$AAe?$AA?5?$AAt?$AAo@ 100b2d60     TR_Trace:trEvents.obj
 0002:00007db4       ??_C@_1CI@BILDKGH@?$AAT?$AAR?$AA_?$AAU?$AAn?$AAa?$AAb?$AAl?$AAe?$AAT?$AAo?$AAM?$AAo?$AAv?$AAe?$AAF?$AAi?$AAl?$AAe?$AA?$AA@ 100b2db4     TR_Trace:trEvents.obj
 0002:00007de0       ??_C@_1GM@PDAICLGA@?$AAU?$AAn?$AAa?$AAb?$AAl?$AAe?$AA?5?$AAt?$AAo?$AA?5?$AAm?$AAo?$AAv?$AAe?$AA?5?$AAf?$AAi?$AAl?$AAe?$AA?5?$AA?8?$AA?$CF?$AA1?$AA?8?$AA?5?$AAt?$AAo?$AA?5?$AAf?$AAi?$AAl?$AAe@ 100b2de0     TR_Trace:trEvents.obj
 0002:00007e4c       ??_C@_1CM@PHAAPOPM@?$AAT?$AAR?$AA_?$AAU?$AAn?$AAa?$AAb?$AAl?$AAe?$AAT?$AAo?$AAR?$AAe?$AAm?$AAo?$AAv?$AAe?$AAF?$AAi?$AAl?$AAe?$AA?$AA@ 100b2e4c     TR_Trace:trEvents.obj
 0002:00007e78       ??_C@_1FO@JDLAPNNK@?$AAU?$AAn?$AAa?$AAb?$AAl?$AAe?$AA?5?$AAt?$AAo?$AA?5?$AAr?$AAe?$AAm?$AAo?$AAv?$AAe?$AA?5?$AAf?$AAi?$AAl?$AAe?$AA?5?$AA?8?$AA?$CF?$AA1?$AA?8?$AA?5?$AAd?$AAu?$AAe?$AA?5?$AAt@ 100b2e78     TR_Trace:trEvents.obj
 0002:00007ed8       ??_C@_1CM@BEIONCLE@?$AAT?$AAR?$AA_?$AAU?$AAn?$AAa?$AAb?$AAl?$AAe?$AAT?$AAo?$AAR?$AAe?$AAn?$AAa?$AAm?$AAe?$AAF?$AAi?$AAl?$AAe?$AA?$AA@ 100b2ed8     TR_Trace:trEvents.obj
 0002:00007f08       ??_C@_1HA@DPDALKOB@?$AAU?$AAn?$AAa?$AAb?$AAl?$AAe?$AA?5?$AAt?$AAo?$AA?5?$AAr?$AAe?$AAn?$AAa?$AAm?$AAe?$AA?5?$AAf?$AAi?$AAl?$AAe?$AA?5?$AA?8?$AA?$CF?$AA1?$AA?8?$AA?5?$AAt?$AAo?$AA?5?$AAf?$AAi@ 100b2f08     TR_Trace:trEvents.obj
 0002:00007f78       ??_C@_1CK@OECLKJJC@?$AAT?$AAR?$AA_?$AAM?$AAi?$AAs?$AAs?$AAi?$AAn?$AAg?$AAI?$AAd?$AAe?$AAn?$AAt?$AAi?$AAf?$AAi?$AAe?$AAr?$AA?$AA@ 100b2f78     TR_Trace:trEvents.obj
 0002:00007fa8       ??_C@_1FK@BBAKPKD@?$AAM?$AAi?$AAs?$AAs?$AAi?$AAn?$AAg?$AA?5?$AAi?$AAd?$AAe?$AAn?$AAt?$AAi?$AAf?$AAi?$AAe?$AAr?$AA?5?$AAa?$AAf?$AAt?$AAe?$AAr?$AA?5?$AA?8?$AA?$CF?$AA1?$AA?8?$AA?5?$AAi?$AAn@ 100b2fa8     TR_Trace:trEvents.obj
 0002:00008004       ??_C@_1DC@NOBJJBA@?$AAT?$AAR?$AA_?$AAI?$AAd?$AAe?$AAn?$AAt?$AAi?$AAf?$AAi?$AAe?$AAr?$AAs?$AAO?$AAu?$AAt?$AAO?$AAf?$AAR?$AAa?$AAn?$AAg?$AAe?$AA?$AA@ 100b3004     TR_Trace:trEvents.obj
 0002:00008038       ??_C@_1HK@MGKDAKOF@?$AAI?$AAd?$AAe?$AAn?$AAt?$AAi?$AAf?$AAi?$AAe?$AAr?$AAs?$AA?5?$AAc?$AAa?$AAn?$AA?8?$AAt?$AA?5?$AAr?$AAa?$AAn?$AAg?$AAe?$AA?5?$AAf?$AAr?$AAo?$AAm?$AA?5?$AA?8?$AA?$CF?$AA1@ 100b3038     TR_Trace:trEvents.obj
 0002:000080b4       ??_C@_1CM@NIDBKKNH@?$AAT?$AAR?$AA_?$AAC?$AAa?$AAn?$AAn?$AAo?$AAt?$AAO?$AAp?$AAe?$AAn?$AAT?$AAa?$AAi?$AAl?$AAF?$AAi?$AAl?$AAe?$AA?$AA@ 100b30b4     TR_Trace:trEvents.obj
 0002:000080e0       ??_C@_1DO@MLEJMADE@?$AAC?$AAa?$AAn?$AAn?$AAo?$AAt?$AA?5?$AAo?$AAp?$AAe?$AAn?$AA?5?$AAt?$AAa?$AAi?$AAl?$AA?5?$AAf?$AAi?$AAl?$AAe?$AA?5?$AA?8?$AA?$CF?$AA1?$AA?8?$AA?4?$AA?5?$AA?$CF?$AA2?$AA?$AA@ 100b30e0     TR_Trace:trEvents.obj
 0002:00008120       ??_C@_1CO@BLLICINO@?$AAT?$AAR?$AA_?$AAC?$AAa?$AAn?$AAn?$AAo?$AAt?$AAC?$AAr?$AAe?$AAa?$AAt?$AAe?$AAF?$AAi?$AAl?$AAe?$AAM?$AAa?$AAp?$AA?$AA@ 100b3120     TR_Trace:trEvents.obj
 0002:00008150       ??_C@_1DK@INEEHAKN@?$AAC?$AAr?$AAe?$AAa?$AAt?$AAe?$AAF?$AAi?$AAl?$AAe?$AAM?$AAa?$AAp?$AAp?$AAi?$AAn?$AAg?$AA?5?$AAf?$AAa?$AAi?$AAl?$AAe?$AAd?$AA?4?$AA?5?$AA?$CF?$AA1?$AA?$AA@ 100b3150     TR_Trace:trEvents.obj
 0002:0000818c       ??_C@_1CC@HGLKAHNC@?$AAT?$AAR?$AA_?$AAC?$AAa?$AAn?$AAn?$AAo?$AAt?$AAM?$AAa?$AAp?$AAF?$AAi?$AAl?$AAe?$AA?$AA@ 100b318c     TR_Trace:trEvents.obj
 0002:000081b0       ??_C@_1DC@PFBKCCLP@?$AAM?$AAa?$AAp?$AAV?$AAi?$AAe?$AAw?$AAO?$AAf?$AAF?$AAi?$AAl?$AAe?$AA?5?$AAf?$AAa?$AAi?$AAl?$AAe?$AAd?$AA?4?$AA?5?$AA?$CF?$AA1?$AA?$AA@ 100b31b0     TR_Trace:trEvents.obj
 0002:000081e4       ??_C@_1CK@KKNNBJMJ@?$AAT?$AAR?$AA_?$AAG?$AAe?$AAt?$AAF?$AAi?$AAl?$AAe?$AAS?$AAi?$AAz?$AAe?$AAF?$AAa?$AAi?$AAl?$AAe?$AAd?$AA?$AA@ 100b31e4     TR_Trace:trEvents.obj
 0002:00008210       ??_C@_1CO@KAGODJFG@?$AAG?$AAe?$AAt?$AAF?$AAi?$AAl?$AAe?$AAS?$AAi?$AAz?$AAe?$AA?5?$AAf?$AAa?$AAi?$AAl?$AAe?$AAd?$AA?4?$AA?5?$AA?$CF?$AA1?$AA?$AA@ 100b3210     TR_Trace:trEvents.obj
 0002:00008244       ??_7TR_UnableToOpenFile@@6B@ 100b3244     TR_Trace:trEvents.obj
 0002:00008260       ??_7TR_UnableToCloseFile@@6B@ 100b3260     TR_Trace:trEvents.obj
 0002:0000827c       ??_7TR_UnableToMoveFile@@6B@ 100b327c     TR_Trace:trEvents.obj
 0002:00008298       ??_7TR_UnableToRemoveFile@@6B@ 100b3298     TR_Trace:trEvents.obj
 0002:000082b4       ??_7TR_UnableToRenameFile@@6B@ 100b32b4     TR_Trace:trEvents.obj
 0002:000082d0       ??_7TR_MissingIdentifier@@6B@ 100b32d0     TR_Trace:trEvents.obj
 0002:000082ec       ??_7TR_IdentifiersOutOfRange@@6B@ 100b32ec     TR_Trace:trEvents.obj
 0002:00008308       ??_7TR_CannotOpenTailFile@@6B@ 100b3308     TR_Trace:trEvents.obj
 0002:00008324       ??_7TR_CannotCreateFileMap@@6B@ 100b3324     TR_Trace:trEvents.obj
 0002:00008340       ??_7TR_CannotMapFile@@6B@  100b3340     TR_Trace:trEvents.obj
 0002:0000835c       ??_7TR_GetFileSizeFailed@@6B@ 100b335c     TR_Trace:trEvents.obj
 0002:00008378       ??_7TR_SetFilePointerFailed@@6B@ 100b3378     TR_Trace:trEvents.obj
 0002:00008394       ??_7TR_ReadFileFailed@@6B@ 100b3394     TR_Trace:trEvents.obj
 0002:000083b0       ??_7TR_CannotReopenTailFile@@6B@ 100b33b0     TR_Trace:trEvents.obj
 0002:000083cc       ??_7TR_CannotOpenDirectory@@6B@ 100b33cc     TR_Trace:trEvents.obj
 0002:000083e8       ??_7TR_ReadDirectoryChangeFailed@@6B@ 100b33e8     TR_Trace:trEvents.obj
 0002:00008404       ??_7TR_GetFileTimeFailed@@6B@ 100b3404     TR_Trace:trEvents.obj
 0002:0000841c       ??_C@_1CI@JIIJEJDA@?$AAD?$AAu?$AAm?$AAm?$AAy?$AA?5?$AAt?$AAo?$AA?5?$AAm?$AAa?$AAt?$AAc?$AAh?$AA?5?$AAe?$AAn?$AAu?$AAm?$AA?$AA@ 100b341c     TR_Trace:DateTime.obj
 0002:00008444       ??_C@_1BC@HEIHMMAL@?$AAE?$AAN?$AAI?$AAW?$AAE?$AAT?$AAO?$AAK?$AA?$AA@ 100b3444     TR_Trace:DateTime.obj
 0002:00008458       ??_C@_1BC@KHFINPNI@?$AAE?$AAn?$AAi?$AAw?$AAe?$AAt?$AAo?$AAk?$AA?$AA@ 100b3458     TR_Trace:DateTime.obj
 0002:0000846c       ??_C@_1BM@LJPHPAAO@?$AAM?$AAI?$AAD?$AAW?$AAA?$AAY?$AA_?$AAI?$AAS?$AAL?$AAA?$AAN?$AAD?$AA?$AA@ 100b346c     TR_Trace:DateTime.obj
 0002:00008488       ??_C@_1BM@FPNJAAGI@?$AAM?$AAi?$AAd?$AAw?$AAa?$AAy?$AA?5?$AAI?$AAs?$AAl?$AAa?$AAn?$AAd?$AA?$AA@ 100b3488     TR_Trace:DateTime.obj
 0002:000084a4       ??_C@_1O@IHNGIHDB@?$AAH?$AAA?$AAW?$AAA?$AAI?$AAI?$AA?$AA@ 100b34a4     TR_Trace:DateTime.obj
 0002:000084b4       ??_C@_1O@IOFCJHEH@?$AAH?$AAa?$AAw?$AAa?$AAi?$AAi?$AA?$AA@ 100b34b4     TR_Trace:DateTime.obj
 0002:000084c4       ??_C@_1O@CLHNDHIC@?$AAA?$AAL?$AAA?$AAS?$AAK?$AAA?$AA?$AA@ 100b34c4     TR_Trace:DateTime.obj
 0002:000084d4       ??_C@_1CM@KLANBLDN@?$AAA?$AAl?$AAa?$AAs?$AAk?$AAa?$AA?$CI?$AAN?$AAo?$AAr?$AAt?$AAh?$AA?5?$AAA?$AAm?$AAe?$AAr?$AAi?$AAc?$AAa?$AA?$CJ?$AA?$AA@ 100b34d4     TR_Trace:DateTime.obj
 0002:00008500       ??_C@_1BA@GMPNEEDO@?$AAP?$AAA?$AAC?$AAI?$AAF?$AAI?$AAC?$AA?$AA@ 100b3500     TR_Trace:DateTime.obj
 0002:00008510       ??_C@_1CO@KOAGJJOJ@?$AAP?$AAa?$AAc?$AAi?$AAf?$AAi?$AAc?$AA?$CI?$AAN?$AAo?$AAr?$AAt?$AAh?$AA?5?$AAA?$AAm?$AAe?$AAr?$AAi?$AAc?$AAa?$AA?$CJ?$AA?$AA@ 100b3510     TR_Trace:DateTime.obj
 0002:00008540       ??_C@_1BA@LAIMMDBE@?$AAA?$AAR?$AAI?$AAZ?$AAO?$AAN?$AAA?$AA?$AA@ 100b3540     TR_Trace:DateTime.obj
 0002:00008550       ??_C@_1BK@ODNBGLFP@?$AAA?$AAr?$AAi?$AAz?$AAo?$AAn?$AAa?$AA?$CI?$AAU?$AAS?$AAA?$AA?$CJ?$AA?$AA@ 100b3550     TR_Trace:DateTime.obj
 0002:0000856c       ??_C@_1BC@NPIEPAM@?$AAM?$AAO?$AAU?$AAN?$AAT?$AAA?$AAI?$AAN?$AA?$AA@ 100b356c     TR_Trace:DateTime.obj
 0002:00008580       ??_C@_1DA@MCEJBMIP@?$AAM?$AAo?$AAu?$AAn?$AAt?$AAa?$AAi?$AAn?$AA?$CI?$AAN?$AAo?$AAr?$AAt?$AAh?$AA?5?$AAA?$AAm?$AAe?$AAr?$AAi?$AAc?$AAa?$AA?$CJ?$AA?$AA@ 100b3580     TR_Trace:DateTime.obj
 0002:000085b0       ??_C@_1BA@LKIAOHBF@?$AAC?$AAE?$AAN?$AAT?$AAR?$AAA?$AAL?$AA?$AA@ 100b35b0     TR_Trace:DateTime.obj
 0002:000085c0       ??_C@_1CO@DJGJAJCA@?$AAC?$AAe?$AAn?$AAt?$AAr?$AAa?$AAl?$AA?$CI?$AAN?$AAo?$AAr?$AAt?$AAh?$AA?5?$AAA?$AAm?$AAe?$AAr?$AAi?$AAc?$AAa?$AA?$CJ?$AA?$AA@ 100b35c0     TR_Trace:DateTime.obj
 0002:000085f0       ??_C@_1BI@PHFBMCHJ@?$AAM?$AAE?$AAX?$AAI?$AAC?$AAO?$AA_?$AAC?$AAI?$AAT?$AAY?$AA?$AA@ 100b35f0     TR_Trace:DateTime.obj
 0002:00008608       ??_C@_1DG@IAKJNDBI@?$AAC?$AAe?$AAn?$AAt?$AAr?$AAa?$AAl?$AA?5?$AAa?$AAn?$AAd?$AA?5?$AAe?$AAa?$AAs?$AAt?$AAe?$AAr?$AAn?$AA?5?$AAM?$AAe?$AAx?$AAi?$AAc?$AAo?$AA?$AA@ 100b3608     TR_Trace:DateTime.obj
 0002:00008640       ??_C@_1BK@OMMBGBOO@?$AAS?$AAA?$AAS?$AAK?$AAA?$AAT?$AAC?$AAH?$AAE?$AAW?$AAA?$AAN?$AA?$AA@ 100b3640     TR_Trace:DateTime.obj
 0002:0000865c       ??_C@_1CK@OCJKFFNB@?$AAS?$AAa?$AAs?$AAk?$AAa?$AAt?$AAc?$AAh?$AAe?$AAw?$AAa?$AAn?$AA?$CI?$AAC?$AAa?$AAn?$AAa?$AAd?$AAa?$AA?$CJ?$AA?$AA@ 100b365c     TR_Trace:DateTime.obj
 0002:00008688       ??_C@_1O@PEAICEME@?$AAB?$AAO?$AAG?$AAO?$AAT?$AAA?$AA?$AA@ 100b3688     TR_Trace:DateTime.obj
 0002:00008698       ??_C@_1BC@JJBMHMIC@?$AAC?$AAo?$AAl?$AAo?$AAm?$AAb?$AAi?$AAa?$AA?$AA@ 100b3698     TR_Trace:DateTime.obj
 0002:000086ac       ??_C@_1BA@DLDPGNHE@?$AAE?$AAA?$AAS?$AAT?$AAE?$AAR?$AAN?$AA?$AA@ 100b36ac     TR_Trace:DateTime.obj
 0002:000086bc       ??_C@_1CO@HHKDMCEA@?$AAE?$AAa?$AAs?$AAt?$AAe?$AAr?$AAn?$AA?$CI?$AAN?$AAo?$AAr?$AAt?$AAh?$AA?5?$AAA?$AAm?$AAe?$AAr?$AAi?$AAc?$AAa?$AA?$CJ?$AA?$AA@ 100b36bc     TR_Trace:DateTime.obj
 0002:000086ec       ??_C@_1BA@MIGENICN@?$AAI?$AAN?$AAD?$AAI?$AAA?$AAN?$AAA?$AA?$AA@ 100b36ec     TR_Trace:DateTime.obj
 0002:000086fc       ??_C@_1BK@NGBALOJJ@?$AAI?$AAn?$AAd?$AAi?$AAa?$AAn?$AAa?$AA?$CI?$AAU?$AAS?$AAA?$AA?$CJ?$AA?$AA@ 100b36fc     TR_Trace:DateTime.obj
 0002:00008718       ??_C@_1CA@FKBHECML@?$AAA?$AAT?$AAL?$AAA?$AAN?$AAT?$AAI?$AAC?$AA_?$AAC?$AAA?$AAN?$AAA?$AAD?$AAA?$AA?$AA@ 100b3718     TR_Trace:DateTime.obj
 0002:00008738       ??_C@_1DA@MNAKANLP@?$AAA?$AAt?$AAl?$AAa?$AAn?$AAt?$AAi?$AAc?$AA?$CI?$AAN?$AAo?$AAr?$AAt?$AAh?$AA?5?$AAA?$AAm?$AAe?$AAr?$AAi?$AAc?$AAa?$AA?$CJ?$AA?$AA@ 100b3738     TR_Trace:DateTime.obj
 0002:00008768       ??_C@_1BA@NDNCPEKD@?$AAC?$AAA?$AAR?$AAA?$AAC?$AAA?$AAS?$AA?$AA@ 100b3768     TR_Trace:DateTime.obj
 0002:00008778       ??_C@_1BE@JABBHJK@?$AAV?$AAe?$AAn?$AAe?$AAz?$AAu?$AAe?$AAl?$AAa?$AA?$AA@ 100b3778     TR_Trace:DateTime.obj
 0002:0000878c       ??_C@_1BK@IAFKNDIE@?$AAN?$AAE?$AAW?$AAF?$AAO?$AAU?$AAN?$AAD?$AAL?$AAA?$AAN?$AAD?$AA?$AA@ 100b378c     TR_Trace:DateTime.obj
 0002:000087a8       ??_C@_1CG@NIJKOOFF@?$AAf?$AAa?$AAr?$AA?5?$AAe?$AAa?$AAs?$AAt?$AAe?$AAr?$AAn?$AA?5?$AAC?$AAa?$AAn?$AAa?$AAd?$AAa?$AA?$AA@ 100b37a8     TR_Trace:DateTime.obj
 0002:000087d0       ??_C@_1BO@IEHFKCII@?$AAR?$AAI?$AAO?$AA_?$AAD?$AAE?$AA_?$AAJ?$AAA?$AAN?$AAE?$AAI?$AAR?$AAO?$AA?$AA@ 100b37d0     TR_Trace:DateTime.obj
 0002:000087f0       ??_C@_1O@BLFMFODA@?$AAB?$AAr?$AAa?$AAz?$AAi?$AAl?$AA?$AA@ 100b37f0     TR_Trace:DateTime.obj
 0002:00008800       ??_C@_1BK@BJGLODCP@?$AAB?$AAU?$AAE?$AAN?$AAO?$AAS?$AA_?$AAA?$AAI?$AAR?$AAE?$AAS?$AA?$AA@ 100b3800     TR_Trace:DateTime.obj
 0002:0000881c       ??_C@_1BE@OAMOELHH@?$AAA?$AAr?$AAg?$AAe?$AAn?$AAt?$AAi?$AAn?$AAa?$AA?$AA@ 100b381c     TR_Trace:DateTime.obj
 0002:00008830       ??_C@_1BK@DPAHOKJL@?$AAM?$AAI?$AAD?$AA_?$AAA?$AAT?$AAL?$AAA?$AAN?$AAT?$AAI?$AAC?$AA?$AA@ 100b3830     TR_Trace:DateTime.obj
 0002:0000884c       ??_C@_1DC@EPFJGFEJ@?$AAt?$AAh?$AAe?$AA?5?$AAm?$AAi?$AAd?$AA?9?$AAA?$AAt?$AAl?$AAa?$AAn?$AAt?$AAi?$AAc?$AA?5?$AAi?$AAs?$AAl?$AAa?$AAn?$AAd?$AAs?$AA?$AA@ 100b384c     TR_Trace:DateTime.obj
 0002:00008880       ??_C@_1O@NKCBLBNH@?$AAA?$AAZ?$AAO?$AAR?$AAE?$AAS?$AA?$AA@ 100b3880     TR_Trace:DateTime.obj
 0002:00008890       ??_C@_1BG@LLGBPFKG@?$AAt?$AAh?$AAe?$AA?5?$AAA?$AAz?$AAo?$AAr?$AAe?$AAs?$AA?$AA@ 100b3890     TR_Trace:DateTime.obj
 0002:000088a8       ??_C@_17EOCMGKCF@?$AAG?$AAM?$AAT?$AA?$AA@ 100b38a8     TR_Trace:DateTime.obj
 0002:000088b0       ??_C@_1CI@CBILDLLB@?$AAG?$AAr?$AAe?$AAe?$AAn?$AAw?$AAi?$AAc?$AAh?$AA?5?$AAM?$AAe?$AAa?$AAn?$AA?5?$AAT?$AAi?$AAm?$AAe?$AA?$AA@ 100b38b0     TR_Trace:DateTime.obj
 0002:000088d8       ??_C@_17JJKFGAAG@?$AAU?$AAT?$AAC?$AA?$AA@ 100b38d8     TR_Trace:DateTime.obj
 0002:000088e0       ??_C@_1DG@EIIAEIKO@?$AAC?$AAo?$AAo?$AAr?$AAd?$AAi?$AAn?$AAa?$AAt?$AAe?$AAd?$AA?5?$AAU?$AAn?$AAi?$AAv?$AAe?$AAr?$AAs?$AAa?$AAl?$AA?5?$AAT?$AAi?$AAm?$AAe?$AA?$AA@ 100b38e0     TR_Trace:DateTime.obj
 0002:00008918       ??_C@_1O@FEJMACOJ@?$AAL?$AAI?$AAS?$AAB?$AAO?$AAN?$AA?$AA@ 100b3918     TR_Trace:DateTime.obj
 0002:00008928       ??_C@_1BC@OPDKEICO@?$AAP?$AAo?$AAr?$AAt?$AAu?$AAg?$AAa?$AAl?$AA?$AA@ 100b3928     TR_Trace:DateTime.obj
 0002:0000893c       ??_C@_1BC@NMDDLKIL@?$AAM?$AAO?$AAN?$AAR?$AAO?$AAV?$AAI?$AAA?$AA?$AA@ 100b393c     TR_Trace:DateTime.obj
 0002:00008950       ??_C@_1BA@MLCEDB@?$AAL?$AAi?$AAb?$AAa?$AAr?$AAi?$AAa?$AA?$AA@ 100b3950     TR_Trace:DateTime.obj
 0002:00008960       ??_C@_1O@LGBMIAPJ@?$AAB?$AAE?$AAR?$AAL?$AAI?$AAN?$AA?$AA@ 100b3960     TR_Trace:DateTime.obj
 0002:00008970       ??_C@_1BA@BMFNOKND@?$AAG?$AAe?$AAr?$AAm?$AAa?$AAn?$AAy?$AA?$AA@ 100b3970     TR_Trace:DateTime.obj
 0002:00008980       ??_C@_1M@CPMFAAFB@?$AAP?$AAA?$AAR?$AAI?$AAS?$AA?$AA@ 100b3980     TR_Trace:DateTime.obj
 0002:0000898c       ??_C@_1O@CGJCICBG@?$AAF?$AAr?$AAa?$AAn?$AAc?$AAe?$AA?$AA@ 100b398c     TR_Trace:DateTime.obj
 0002:0000899c       ??_C@_1O@HLKGBPBH@?$AAP?$AAR?$AAA?$AAG?$AAU?$AAE?$AA?$AA@ 100b399c     TR_Trace:DateTime.obj
 0002:000089ac       ??_C@_1BO@PACNHNAE@?$AAC?$AAz?$AAe?$AAc?$AAh?$AAo?$AAs?$AAl?$AAo?$AAv?$AAa?$AAk?$AAi?$AAa?$AA?$AA@ 100b39ac     TR_Trace:DateTime.obj
 0002:000089cc       ??_C@_1O@MNHFLBEB@?$AAA?$AAT?$AAH?$AAE?$AAN?$AAS?$AA?$AA@ 100b39cc     TR_Trace:DateTime.obj
 0002:000089dc       ??_C@_1O@OPBMNPEM@?$AAG?$AAr?$AAe?$AAe?$AAc?$AAe?$AA?$AA@ 100b39dc     TR_Trace:DateTime.obj
 0002:000089ec       ??_C@_1M@GEMAIFP@?$AAC?$AAA?$AAI?$AAR?$AAO?$AA?$AA@ 100b39ec     TR_Trace:DateTime.obj
 0002:000089f8       ??_C@_1M@EDLBFGMI@?$AAE?$AAg?$AAy?$AAp?$AAt?$AA?$AA@ 100b39f8     TR_Trace:DateTime.obj
 0002:00008a04       ??_C@_1BO@BNIDNOEB@?$AAE?$AAA?$AAS?$AAT?$AAE?$AAR?$AAN?$AA_?$AAE?$AAU?$AAR?$AAO?$AAP?$AAE?$AA?$AA@ 100b3a04     TR_Trace:DateTime.obj
 0002:00008a24       ??_C@_1DO@BACMBNIC@?$AAL?$AAa?$AAt?$AAv?$AAi?$AAa?$AA?0?$AA?5?$AAL?$AAi?$AAt?$AAh?$AAu?$AAa?$AAn?$AAi?$AAa?$AA?0?$AA?5?$AAa?$AAn?$AAd?$AA?5?$AAR?$AAo?$AAm?$AAa?$AAn?$AAi?$AAa?$AA?$AA@ 100b3a24     TR_Trace:DateTime.obj
 0002:00008a64       ??_C@_1O@ECDIABJF@?$AAH?$AAA?$AAR?$AAA?$AAR?$AAE?$AA?$AA@ 100b3a64     TR_Trace:DateTime.obj
 0002:00008a74       ??_C@_1BC@LDAPKFDJ@?$AAZ?$AAi?$AAm?$AAb?$AAa?$AAb?$AAw?$AAe?$AA?$AA@ 100b3a74     TR_Trace:DateTime.obj
 0002:00008a88       ??_C@_1O@FMMPOOCJ@?$AAI?$AAS?$AAR?$AAA?$AAE?$AAL?$AA?$AA@ 100b3a88     TR_Trace:DateTime.obj
 0002:00008a98       ??_C@_1O@FFELPOFP@?$AAI?$AAs?$AAr?$AAa?$AAe?$AAl?$AA?$AA@ 100b3a98     TR_Trace:DateTime.obj
 0002:00008aa8       ??_C@_1BA@NCBPLCCL@?$AAB?$AAA?$AAG?$AAH?$AAD?$AAA?$AAD?$AA?$AA@ 100b3aa8     TR_Trace:DateTime.obj
 0002:00008ab8       ??_C@_19IAIEDGAI@?$AAI?$AAr?$AAa?$AAq?$AA?$AA@ 100b3ab8     TR_Trace:DateTime.obj
 0002:00008ac4       ??_C@_1O@MHBFFOPE@?$AAM?$AAO?$AAS?$AAC?$AAO?$AAW?$AA?$AA@ 100b3ac4     TR_Trace:DateTime.obj
 0002:00008ad4       ??_C@_1BO@KPPKJOBD@?$AAW?$AAe?$AAs?$AAt?$AAe?$AAr?$AAn?$AA?5?$AAR?$AAu?$AAs?$AAs?$AAi?$AAa?$AA?$AA@ 100b3ad4     TR_Trace:DateTime.obj
 0002:00008af4       ??_C@_1O@JNICEHHG@?$AAT?$AAE?$AAH?$AAR?$AAA?$AAN?$AA?$AA@ 100b3af4     TR_Trace:DateTime.obj
 0002:00008b04       ??_C@_19IIPOHBMB@?$AAI?$AAr?$AAa?$AAn?$AA?$AA@ 100b3b04     TR_Trace:DateTime.obj
 0002:00008b10       ??_C@_1BE@CDMADLKA@?$AAA?$AAB?$AAU?$AA_?$AAD?$AAH?$AAA?$AAB?$AAI?$AA?$AA@ 100b3b10     TR_Trace:DateTime.obj
 0002:00008b24       ??_C@_1DC@EHLHOCO@?$AAt?$AAh?$AAe?$AA?5?$AAU?$AAn?$AAi?$AAt?$AAe?$AAd?$AA?5?$AAA?$AAr?$AAa?$AAb?$AA?5?$AAE?$AAm?$AAi?$AAr?$AAa?$AAt?$AAe?$AAs?$AA?$AA@ 100b3b24     TR_Trace:DateTime.obj
 0002:00008b58       ??_C@_1M@FCJKPNKB@?$AAK?$AAA?$AAB?$AAU?$AAL?$AA?$AA@ 100b3b58     TR_Trace:DateTime.obj
 0002:00008b64       ??_C@_1BI@LNJMBMAD@?$AAA?$AAf?$AAg?$AAh?$AAa?$AAn?$AAi?$AAs?$AAt?$AAa?$AAn?$AA?$AA@ 100b3b64     TR_Trace:DateTime.obj
 0002:00008b7c       ??_C@_1BE@HCFCOCIM@?$AAI?$AAS?$AAL?$AAA?$AAM?$AAA?$AAB?$AAA?$AAD?$AA?$AA@ 100b3b7c     TR_Trace:DateTime.obj
 0002:00008b90       ??_C@_1BC@MAMIBPLP@?$AAP?$AAa?$AAk?$AAi?$AAs?$AAt?$AAa?$AAn?$AA?$AA@ 100b3b90     TR_Trace:DateTime.obj
 0002:00008ba4       ??_C@_1O@LOJJENIE@?$AAB?$AAO?$AAM?$AAB?$AAA?$AAY?$AA?$AA@ 100b3ba4     TR_Trace:DateTime.obj
 0002:00008bb4       ??_C@_1M@BOAOOAIH@?$AAI?$AAn?$AAd?$AAi?$AAa?$AA?$AA@ 100b3bb4     TR_Trace:DateTime.obj
 0002:00008bc0       ??_C@_1O@GIPCCOGE@?$AAA?$AAL?$AAM?$AAA?$AAT?$AAY?$AA?$AA@ 100b3bc0     TR_Trace:DateTime.obj
 0002:00008bd0       ??_C@_1BG@FDBFKBNN@?$AAk?$AAa?$AAz?$AAa?$AAk?$AAh?$AAs?$AAt?$AAa?$AAn?$AA?$AA@ 100b3bd0     TR_Trace:DateTime.obj
 0002:00008be8       ??_C@_1BA@FPELALN@?$AAB?$AAA?$AAN?$AAG?$AAK?$AAO?$AAK?$AA?$AA@ 100b3be8     TR_Trace:DateTime.obj
 0002:00008bf8       ??_C@_1BC@LIDJKLGH@?$AAT?$AAh?$AAa?$AAi?$AAl?$AAa?$AAn?$AAd?$AA?$AA@ 100b3bf8     TR_Trace:DateTime.obj
 0002:00008c0c       ??_C@_1BA@FOJBDGPJ@?$AAB?$AAE?$AAI?$AAJ?$AAI?$AAN?$AAG?$AA?$AA@ 100b3c0c     TR_Trace:DateTime.obj
 0002:00008c1c       ??_C@_1BO@CCKMNJEN@?$AAm?$AAa?$AAi?$AAn?$AAl?$AAa?$AAn?$AAd?$AA?5?$AAC?$AAh?$AAi?$AAn?$AAa?$AA?$AA@ 100b3c1c     TR_Trace:DateTime.obj
 0002:00008c3c       ??_C@_1BE@NFOKHJEN@?$AAH?$AAO?$AAN?$AAG?$AA_?$AAK?$AAO?$AAN?$AAG?$AA?$AA@ 100b3c3c     TR_Trace:DateTime.obj
 0002:00008c50       ??_C@_1BE@FKMBBEAD@?$AAH?$AAo?$AAn?$AAg?$AA?5?$AAK?$AAo?$AAn?$AAg?$AA?$AA@ 100b3c50     TR_Trace:DateTime.obj
 0002:00008c64       ??_C@_1M@EIOHMLCB@?$AAT?$AAO?$AAK?$AAY?$AAO?$AA?$AA@ 100b3c64     TR_Trace:DateTime.obj
 0002:00008c70       ??_C@_1M@NEFKMEBA@?$AAJ?$AAa?$AAp?$AAa?$AAn?$AA?$AA@ 100b3c70     TR_Trace:DateTime.obj
 0002:00008c7c       ??_C@_1BC@LIKOHKIO@?$AAA?$AAD?$AAE?$AAL?$AAA?$AAI?$AAD?$AAE?$AA?$AA@ 100b3c7c     TR_Trace:DateTime.obj
 0002:00008c90       ??_C@_1CE@IMBBJOAE@?$AAc?$AAe?$AAn?$AAt?$AAr?$AAa?$AAl?$AA?5?$AAA?$AAu?$AAs?$AAt?$AAr?$AAa?$AAl?$AAi?$AAa?$AA?$AA@ 100b3c90     TR_Trace:DateTime.obj
 0002:00008cb4       ??_C@_1O@GMAJNNEN@?$AAD?$AAA?$AAR?$AAW?$AAI?$AAN?$AA?$AA@ 100b3cb4     TR_Trace:DateTime.obj
 0002:00008cc4       ??_C@_1CG@CKJDIMMJ@?$AAn?$AAo?$AAr?$AAt?$AAh?$AAe?$AAr?$AAn?$AA?5?$AAA?$AAu?$AAs?$AAt?$AAr?$AAa?$AAl?$AAi?$AAa?$AA?$AA@ 100b3cc4     TR_Trace:DateTime.obj
 0002:00008cec       ??_C@_1BC@CKKOJAOG@?$AAB?$AAR?$AAI?$AAS?$AAB?$AAA?$AAN?$AAE?$AA?$AA@ 100b3cec     TR_Trace:DateTime.obj
 0002:00008d00       ??_C@_1CE@DHKNDABB@?$AAe?$AAa?$AAs?$AAt?$AAe?$AAr?$AAn?$AA?5?$AAA?$AAu?$AAs?$AAt?$AAr?$AAa?$AAl?$AAi?$AAa?$AA?$AA@ 100b3d00     TR_Trace:DateTime.obj
 0002:00008d24       ??_C@_19NAKPCPNL@?$AAG?$AAU?$AAA?$AAM?$AA?$AA@ 100b3d24     TR_Trace:DateTime.obj
 0002:00008d30       ??_C@_19IOEHOHIF@?$AAG?$AAu?$AAa?$AAm?$AA?$AA@ 100b3d30     TR_Trace:DateTime.obj
 0002:00008d3c       ??_C@_1O@GEACGDJJ@?$AAH?$AAO?$AAB?$AAA?$AAR?$AAT?$AA?$AA@ 100b3d3c     TR_Trace:DateTime.obj
 0002:00008d4c       ??_C@_1BC@OHJNDPJB@?$AAT?$AAa?$AAs?$AAm?$AAa?$AAn?$AAi?$AAa?$AA?$AA@ 100b3d4c     TR_Trace:DateTime.obj
 0002:00008d60       ??_C@_1BA@MPFNBOLP@?$AAM?$AAA?$AAG?$AAA?$AAD?$AAA?$AAN?$AA?$AA@ 100b3d60     TR_Trace:DateTime.obj
 0002:00008d70       ??_C@_1BO@EANIOIHB@?$AAe?$AAa?$AAs?$AAt?$AAe?$AAr?$AAn?$AA?5?$AAR?$AAu?$AAs?$AAs?$AAi?$AAa?$AA?$AA@ 100b3d70     TR_Trace:DateTime.obj
 0002:00008d90       ??_C@_19PBNMAHBF@?$AAF?$AAI?$AAJ?$AAI?$AA?$AA@ 100b3d90     TR_Trace:DateTime.obj
 0002:00008d9c       ??_C@_1CG@KINNIBGK@?$AAt?$AAh?$AAe?$AA?5?$AAF?$AAi?$AAj?$AAi?$AAa?$AAn?$AA?5?$AAI?$AAs?$AAl?$AAa?$AAn?$AAd?$AAs?$AA?$AA@ 100b3d9c     TR_Trace:DateTime.obj
 0002:00008dc4       ??_C@_1BG@HOJOFPIF@?$AAW?$AAE?$AAL?$AAL?$AAI?$AAN?$AAG?$AAT?$AAO?$AAN?$AA?$AA@ 100b3dc4     TR_Trace:DateTime.obj
 0002:00008ddc       ??_C@_1BI@LEAJFLBF@?$AAN?$AAe?$AAw?$AA?5?$AAZ?$AAe?$AAa?$AAl?$AAa?$AAn?$AAd?$AA?$AA@ 100b3ddc     TR_Trace:DateTime.obj
 0002:00008df4       ??_C@_1BK@MLPMDMLE@?$AAD?$AAa?$AAt?$AAe?$AAT?$AAi?$AAm?$AAe?$AA?4?$AAc?$AAp?$AAp?$AA?$AA@ 100b3df4     TR_Trace:DateTime.obj
 0002:00008e10       ??_C@_1BI@FKIEENIH@?$AAr?$AAe?$AAs?$AAu?$AAl?$AAt?$AA?5?$AA?$CB?$AA?$DN?$AA?5?$AA0?$AA?$AA@ 100b3e10     TR_Trace:DateTime.obj
 0002:00008e28       ??_C@_1CK@NPCCJMPG@?$AAt?$AAz?$AAi?$AAR?$AAe?$AAt?$AA?5?$AA?$CB?$AA?$DN?$AA?5?$AA0?$AAx?$AAF?$AAF?$AAF?$AAF?$AAF?$AAF?$AAF?$AAF?$AA?$AA@ 100b3e28     TR_Trace:DateTime.obj
 0002:00008e58       ??_C@_1EI@BDNJBPBE@?$AAe?$AAn?$AAt?$AAr?$AAy?$AA?4?$AAt?$AAi?$AAm?$AAe?$AAZ?$AAo?$AAn?$AAe?$AAE?$AAn?$AAu?$AAm?$AA?5?$AA?$DN?$AA?$DN?$AA?5?$AAt?$AAi?$AAm?$AAe?$AAZ?$AAo?$AAn?$AAe?$AAP?$AAa@ 100b3e58     TR_Trace:DateTime.obj
 0002:00008ea0       ??_C@_1KM@CFNECCLE@?$AAt?$AAi?$AAm?$AAe?$AAZ?$AAo?$AAn?$AAe?$AAP?$AAa?$AAr?$AAa?$AAm?$AA?5?$AA?$DO?$AA?$DN?$AA?5?$AAD?$AAT?$AA_?$AAT?$AAZ?$AA_?$AAU?$AAS?$AAE?$AA_?$AAM?$AAA?$AAC?$AAH?$AAI@ 100b3ea0     TR_Trace:DateTime.obj
 0002:00008f4c       ??_C@_1CE@ONNNLNBI@?$AAS?$AAU?$AAC?$AAC?$AAE?$AAE?$AAD?$AAE?$AAD?$AA?$CI?$AA?5?$AAh?$AAR?$AAe?$AAs?$AA?5?$AA?$CJ?$AA?$AA@ 100b3f4c     TR_Trace:DateTime.obj
 0002:00008f70       ??_C@_1M@DKBGJMBJ@?$AAe?$AAm?$AAp?$AAt?$AAy?$AA?$AA@ 100b3f70     TR_Trace:DateTime.obj
 0002:00008f7c       ??_C@_1BA@BOMOLKPO@?$AA?$CF?$AAl?$AAd?$AA?3?$AA?$CF?$AAl?$AAu?$AA?$AA@ 100b3f7c     TR_Trace:DateTime.obj
 0002:00008f90       ??_C@_1FC@PLJJCOG@?$AA?9?$AA?9?$AA?9?$AA?9?$AA?9?$AA?9?$AA?9?$AA?9?$AA?9?$AA?9?$AA?9?$AA?5?$AAD?$AAa?$AAt?$AAe?$AA?5?$AAT?$AAi?$AAm?$AAe?$AA?5?$AAO?$AAb?$AAj?$AAe?$AAc?$AAt?$AA?5?$AA?9?$AA?9?$AA?9@ 100b3f90     TR_Trace:DateTime.obj
 0002:00008fe4       ??_C@_1BM@EFAJNLKD@?$AAE?$AAm?$AAp?$AAt?$AAy?$AA?5?$AAo?$AAb?$AAj?$AAe?$AAc?$AAt?$AA?$CB?$AA?$AA@ 100b3fe4     TR_Trace:DateTime.obj
 0002:00009000       ??_C@_15DAKAOAIM@?$AA?$DO?$AA?4?$AA?$AA@ 100b4000     TR_Trace:DateTime.obj
 0002:00009008       ??_C@_1BC@BBMMJGBH@?$AAV?$AAa?$AAl?$AAu?$AAe?$AA?3?$AA?5?$AA?$DM?$AA?$AA@ 100b4008     TR_Trace:DateTime.obj
 0002:00009020       ??_C@_1FC@OJNKDJBH@?$AA?9?$AA?9?$AA?9?$AA?9?$AA?9?$AA?9?$AA?9?$AA?9?$AA?9?$AA?9?$AA?9?$AA?9?$AA?9?$AA?9?$AA?9?$AA?9?$AA?9?$AA?9?$AA?9?$AA?9?$AA?9?$AA?9?$AA?9?$AA?9?$AA?9?$AA?9?$AA?9?$AA?9?$AA?9?$AA?9?$AA?9?$AA?9@ 100b4020     TR_Trace:DateTime.obj
 0002:00009074       ??_C@_1DK@HPJNGLKG@?$AAC?$AAo?$AAr?$AAr?$AAe?$AAs?$AAp?$AAo?$AAn?$AAd?$AAi?$AAn?$AAg?$AA?5?$AAU?$AAT?$AAC?$AA?5?$AAD?$AAa?$AAt?$AAe?$AA?5?$AAT?$AAi?$AAm?$AAe?$AA?3?$AA?$AA@ 100b4074     TR_Trace:DateTime.obj
 0002:000090b0       ??_C@_1FE@DFDLAFCA@?$AA?9?$AA?9?$AA?9?$AA?9?$AA?9?$AA?9?$AA?9?$AA?9?$AA?9?$AA?9?$AA?9?$AA?9?$AA?9?$AA?9?$AA?9?$AA?9?$AA?9?$AA?9?$AA?9?$AA?9?$AA?9?$AA?9?$AA?9?$AA?9?$AA?9?$AA?9?$AA?9?$AA?9?$AA?9?$AA?9?$AA?9?$AA?9@ 100b40b0     TR_Trace:DateTime.obj
 0002:00009104       ??_C@_1BI@HOIFDMND@?$AA?$CB?$AAI?$AAs?$AAE?$AAm?$AAp?$AAt?$AAy?$AA?$CI?$AA?5?$AA?$CJ?$AA?$AA@ 100b4104     TR_Trace:DateTime.obj
 0002:0000911c       ??_C@_1CA@FIGCGJKK@?$AA?$CB?$AAr?$AAh?$AAs?$AA?4?$AAI?$AAs?$AAE?$AAm?$AAp?$AAt?$AAy?$AA?$CI?$AA?5?$AA?$CJ?$AA?$AA@ 100b411c     TR_Trace:DateTime.obj
 0002:0000913c       ??_C@_1BC@NHIBDOMC@?$AA_?$AAw?$AAc?$AAs?$AAi?$AAc?$AAm?$AAp?$AA?$AA@ 100b413c     TR_Trace:DateTime.obj
 0002:00009150       __real@0000000000000000    100b4150     TR_Trace:DateTime.obj
 0002:0000915c       ??_7THR_CriticalSection@@6B@ 100b415c     TR_Trace:ThreadCriticalSection.obj
 0002:00009168       ??_C@_1DE@BODHJKMD@?$AAI?$AAn?$AAi?$AAt?$AAi?$AAa?$AAl?$AAi?$AAz?$AAe?$AAC?$AAr?$AAi?$AAt?$AAi?$AAc?$AAa?$AAl?$AAS?$AAe?$AAc?$AAt?$AAi?$AAo?$AAn?$AA?$AA@ 100b4168     TR_Trace:ThreadCriticalSection.obj
 0002:0000919c       ??_C@_1DE@FPJLJDHA@?$AAT?$AAh?$AAr?$AAe?$AAa?$AAd?$AAC?$AAr?$AAi?$AAt?$AAi?$AAc?$AAa?$AAl?$AAS?$AAe?$AAc?$AAt?$AAi?$AAo?$AAn?$AA?4?$AAc?$AAp?$AAp?$AA?$AA@ 100b419c     TR_Trace:ThreadCriticalSection.obj
 0002:000091d0       ??_C@_1BO@BPPEIPCH@?$AAm?$AA_?$AAb?$AAI?$AAn?$AAi?$AAt?$AAi?$AAa?$AAl?$AAi?$AAz?$AAe?$AAd?$AA?$AA@ 100b41d0     TR_Trace:ThreadCriticalSection.obj
 0002:000091f0       ??_C@_1GG@JEFBOLEM@?$AAE?$AA?3?$AA?2?$AAc?$AAo?$AAm?$AAm?$AAs?$AA_?$AAn?$AAi?$AAu?$AA?2?$AAf?$AAc?$AAc?$AA?2?$AAF?$AAC?$AAC?$AA_?$AAF?$AAC?$AA_?$AAs?$AAr?$AAc?$AA?2?$AAs?$AAr?$AAc?$AA?2@ 100b41f0     TR_Trace:LocalDateTime.obj
 0002:00009258       ??_C@_1CI@DGPBKEJB@?$AA?$CB?$AAI?$AAs?$AAD?$AAa?$AAy?$AAO?$AAf?$AAY?$AAe?$AAa?$AAr?$AAE?$AAm?$AAp?$AAt?$AAy?$AA?$CI?$AA?$CJ?$AA?$AA@ 100b4258     TR_Trace:LocalDateTime.obj
 0002:00009280       ??_C@_1CE@LLOAMKFB@?$AAL?$AAo?$AAc?$AAa?$AAl?$AAD?$AAa?$AAt?$AAe?$AAT?$AAi?$AAm?$AAe?$AA?4?$AAc?$AAp?$AAp?$AA?$AA@ 100b4280     TR_Trace:LocalDateTime.obj
 0002:000092a4       ??_C@_1DC@LEAMHHGB@?$AAy?$AAe?$AAa?$AAr?$AAP?$AAa?$AAr?$AAa?$AAm?$AA?5?$AA?$DO?$AA?$DN?$AA?5?$AAD?$AAT?$AA_?$AAM?$AAI?$AAN?$AA_?$AAY?$AAE?$AAA?$AAR?$AA?$AA@ 100b42a4     TR_Trace:LocalDateTime.obj
 0002:000092d8       ??_C@_1GM@GFPKFBGL@?$AAm?$AAo?$AAn?$AAt?$AAh?$AAP?$AAa?$AAr?$AAa?$AAm?$AA?5?$AA?$DO?$AA?$DN?$AA?5?$AAD?$AAT?$AA_?$AAJ?$AAA?$AAN?$AAU?$AAA?$AAR?$AAY?$AA?5?$AA?$CG?$AA?$CG?$AA?5?$AAm?$AAo?$AAn?$AAt@ 100b42d8     TR_Trace:LocalDateTime.obj
 0002:00009348       ??_C@_1FM@ECBJGKFJ@?$AAd?$AAa?$AAy?$AAO?$AAf?$AAM?$AAo?$AAn?$AAt?$AAh?$AAP?$AAa?$AAr?$AAa?$AAm?$AA?5?$AA?$DO?$AA?$DN?$AA?5?$AA1?$AA?5?$AA?$CG?$AA?$CG?$AA?5?$AAd?$AAa?$AAy?$AAO?$AAf?$AAM?$AAo?$AAn@ 100b4348     TR_Trace:LocalDateTime.obj
 0002:000093a4       ??_C@_1DG@GLELFLPI@?$AA?$CB?$AAt?$AAi?$AAm?$AAe?$AAO?$AAf?$AAD?$AAa?$AAy?$AAP?$AAa?$AAr?$AAa?$AAm?$AA?4?$AAI?$AAs?$AAE?$AAm?$AAp?$AAt?$AAy?$AA?$CI?$AA?5?$AA?$CJ?$AA?$AA@ 100b43a4     TR_Trace:LocalDateTime.obj
 0002:000093e0       ??_C@_1EK@PBCBMAFD@?$AAs?$AAy?$AAs?$AAt?$AAe?$AAm?$AAT?$AAi?$AAm?$AAe?$AAP?$AAa?$AAr?$AAa?$AAm?$AA?4?$AAw?$AAY?$AAe?$AAa?$AAr?$AA?5?$AA?$DO?$AA?$DN?$AA?5?$AAD?$AAT?$AA_?$AAM?$AAI?$AAN?$AA_@ 100b43e0     TR_Trace:LocalDateTime.obj
 0002:00009430       ??_C@_1HI@JDPABAH@?$AAs?$AAy?$AAs?$AAt?$AAe?$AAm?$AAT?$AAi?$AAm?$AAe?$AAP?$AAa?$AAr?$AAa?$AAm?$AA?4?$AAw?$AAM?$AAo?$AAn?$AAt?$AAh?$AA?5?$AA?$DO?$AA?$DN?$AA?5?$AA1?$AA?5?$AA?$CG?$AA?$CG?$AA?5?$AAs@ 100b4430     TR_Trace:LocalDateTime.obj
 0002:000094a8       ??_C@_1HA@OMJPMLIJ@?$AAs?$AAy?$AAs?$AAt?$AAe?$AAm?$AAT?$AAi?$AAm?$AAe?$AAP?$AAa?$AAr?$AAa?$AAm?$AA?4?$AAw?$AAD?$AAa?$AAy?$AA?5?$AA?$DO?$AA?$DN?$AA?5?$AA1?$AA?5?$AA?$CG?$AA?$CG?$AA?5?$AAs?$AAy?$AAs@ 100b44a8     TR_Trace:LocalDateTime.obj
 0002:00009518       ??_C@_1IG@KKIOFEJN@?$AAs?$AAy?$AAs?$AAt?$AAe?$AAm?$AAT?$AAi?$AAm?$AAe?$AAP?$AAa?$AAr?$AAa?$AAm?$AA?4?$AAw?$AAD?$AAa?$AAy?$AAO?$AAf?$AAW?$AAe?$AAe?$AAk?$AA?5?$AA?$DO?$AA?$DN?$AA?5?$AA0?$AA?5@ 100b4518     TR_Trace:LocalDateTime.obj
 0002:000095a0       ??_C@_1HE@OLPKJKFB@?$AAs?$AAy?$AAs?$AAt?$AAe?$AAm?$AAT?$AAi?$AAm?$AAe?$AAP?$AAa?$AAr?$AAa?$AAm?$AA?4?$AAw?$AAH?$AAo?$AAu?$AAr?$AA?5?$AA?$DO?$AA?$DN?$AA?5?$AA0?$AA?5?$AA?$CG?$AA?$CG?$AA?5?$AAs?$AAy@ 100b45a0     TR_Trace:LocalDateTime.obj
 0002:00009618       ??_C@_1HM@PKDJJMLP@?$AAs?$AAy?$AAs?$AAt?$AAe?$AAm?$AAT?$AAi?$AAm?$AAe?$AAP?$AAa?$AAr?$AAa?$AAm?$AA?4?$AAw?$AAM?$AAi?$AAn?$AAu?$AAt?$AAe?$AA?5?$AA?$DO?$AA?$DN?$AA?5?$AA0?$AA?5?$AA?$CG?$AA?$CG?$AA?5@ 100b4618     TR_Trace:LocalDateTime.obj
 0002:00009698       ??_C@_1HM@KCEDFPA@?$AAs?$AAy?$AAs?$AAt?$AAe?$AAm?$AAT?$AAi?$AAm?$AAe?$AAP?$AAa?$AAr?$AAa?$AAm?$AA?4?$AAw?$AAS?$AAe?$AAc?$AAo?$AAn?$AAd?$AA?5?$AA?$DO?$AA?$DN?$AA?5?$AA0?$AA?5?$AA?$CG?$AA?$CG?$AA?5@ 100b4698     TR_Trace:LocalDateTime.obj
 0002:00009718       ??_C@_1JG@MGCPPEGE@?$AAs?$AAy?$AAs?$AAt?$AAe?$AAm?$AAT?$AAi?$AAm?$AAe?$AAP?$AAa?$AAr?$AAa?$AAm?$AA?4?$AAw?$AAM?$AAi?$AAl?$AAl?$AAi?$AAs?$AAe?$AAc?$AAo?$AAn?$AAd?$AAs?$AA?5?$AA?$DO?$AA?$DN@ 100b4718     TR_Trace:LocalDateTime.obj
 0002:000097b0       ??_C@_1EM@IAFKEJPP@?$AAt?$AAm?$AAP?$AAa?$AAr?$AAa?$AAm?$AA?4?$AAt?$AAm?$AA_?$AAy?$AAe?$AAa?$AAr?$AA?5?$AA?$DO?$AA?$DN?$AA?5?$AAD?$AAT?$AA_?$AAM?$AAI?$AAN?$AA_?$AAY?$AAE?$AAA?$AAR?$AA?5?$AA?9@ 100b47b0     TR_Trace:LocalDateTime.obj
